
/home/hook/ics2025/am-kernels/tests/am-tests/build/amtest-riscv32-nemu.elf:     file format elf32-littleriscv


Disassembly of section .text:

80000000 <_start>:
80000000:	00000413          	li	s0,0
80000004:	0009e117          	auipc	sp,0x9e
80000008:	ffc10113          	addi	sp,sp,-4 # 8009e000 <_end>
8000000c:	000010ef          	jal	8000100c <_trm_init>

80000010 <hello>:
80000010:	ff010113          	addi	sp,sp,-16
80000014:	00912223          	sw	s1,4(sp)
80000018:	00112623          	sw	ra,12(sp)
8000001c:	00812423          	sw	s0,8(sp)
80000020:	00a00493          	li	s1,10
80000024:	00002417          	auipc	s0,0x2
80000028:	35040413          	addi	s0,s0,848 # 80002374 <_etext>
8000002c:	04800513          	li	a0,72
80000030:	7b1000ef          	jal	80000fe0 <putch>
80000034:	00144503          	lbu	a0,1(s0)
80000038:	00140413          	addi	s0,s0,1
8000003c:	fe051ae3          	bnez	a0,80000030 <hello+0x20>
80000040:	fff48493          	addi	s1,s1,-1
80000044:	fe0490e3          	bnez	s1,80000024 <hello+0x14>
80000048:	00c12083          	lw	ra,12(sp)
8000004c:	00812403          	lw	s0,8(sp)
80000050:	00412483          	lw	s1,4(sp)
80000054:	01010113          	addi	sp,sp,16
80000058:	00008067          	ret

8000005c <keyboard_test>:
8000005c:	fc010113          	addi	sp,sp,-64
80000060:	00002517          	auipc	a0,0x2
80000064:	33050513          	addi	a0,a0,816 # 80002390 <_etext+0x1c>
80000068:	02112e23          	sw	ra,60(sp)
8000006c:	02812c23          	sw	s0,56(sp)
80000070:	02912a23          	sw	s1,52(sp)
80000074:	03212823          	sw	s2,48(sp)
80000078:	03312623          	sw	s3,44(sp)
8000007c:	03412423          	sw	s4,40(sp)
80000080:	03512223          	sw	s5,36(sp)
80000084:	03612023          	sw	s6,32(sp)
80000088:	01712e23          	sw	s7,28(sp)
8000008c:	274020ef          	jal	80002300 <printf>
80000090:	00810593          	addi	a1,sp,8
80000094:	00100513          	li	a0,1
80000098:	084010ef          	jal	8000111c <ioe_read>
8000009c:	00814783          	lbu	a5,8(sp)
800000a0:	00096b97          	auipc	s7,0x96
800000a4:	87db8b93          	addi	s7,s7,-1923 # 8009591d <has_uart>
800000a8:	00810593          	addi	a1,sp,8
800000ac:	00700513          	li	a0,7
800000b0:	00fb8023          	sb	a5,0(s7)
800000b4:	068010ef          	jal	8000111c <ioe_read>
800000b8:	00814783          	lbu	a5,8(sp)
800000bc:	00096b17          	auipc	s6,0x96
800000c0:	860b0b13          	addi	s6,s6,-1952 # 8009591c <has_kbd>
800000c4:	00003997          	auipc	s3,0x3
800000c8:	a7098993          	addi	s3,s3,-1424 # 80002b34 <names>
800000cc:	00fb0023          	sb	a5,0(s6)
800000d0:	0ff00913          	li	s2,255
800000d4:	00002497          	auipc	s1,0x2
800000d8:	2e848493          	addi	s1,s1,744 # 800023bc <_etext+0x48>
800000dc:	00002a17          	auipc	s4,0x2
800000e0:	4b4a0a13          	addi	s4,s4,1204 # 80002590 <_etext+0x21c>
800000e4:	00002a97          	auipc	s5,0x2
800000e8:	4b4a8a93          	addi	s5,s5,1204 # 80002598 <_etext+0x224>
800000ec:	00002417          	auipc	s0,0x2
800000f0:	2e840413          	addi	s0,s0,744 # 800023d4 <_etext+0x60>
800000f4:	000bc783          	lbu	a5,0(s7)
800000f8:	00079a63          	bnez	a5,8000010c <keyboard_test+0xb0>
800000fc:	000b4783          	lbu	a5,0(s6)
80000100:	fe078ae3          	beqz	a5,800000f4 <keyboard_test+0x98>
80000104:	03c0006f          	j	80000140 <keyboard_test+0xe4>
80000108:	1f8020ef          	jal	80002300 <printf>
8000010c:	00810593          	addi	a1,sp,8
80000110:	00300513          	li	a0,3
80000114:	008010ef          	jal	8000111c <ioe_read>
80000118:	00814603          	lbu	a2,8(sp)
8000011c:	00048513          	mv	a0,s1
80000120:	00060593          	mv	a1,a2
80000124:	ff2612e3          	bne	a2,s2,80000108 <keyboard_test+0xac>
80000128:	fd5ff06f          	j	800000fc <keyboard_test+0xa0>
8000012c:	0007a583          	lw	a1,0(a5)
80000130:	000a0693          	mv	a3,s4
80000134:	00070463          	beqz	a4,8000013c <keyboard_test+0xe0>
80000138:	000a8693          	mv	a3,s5
8000013c:	1c4020ef          	jal	80002300 <printf>
80000140:	00800513          	li	a0,8
80000144:	00810593          	addi	a1,sp,8
80000148:	7d5000ef          	jal	8000111c <ioe_read>
8000014c:	00c12603          	lw	a2,12(sp)
80000150:	00814703          	lbu	a4,8(sp)
80000154:	00040513          	mv	a0,s0
80000158:	00261793          	slli	a5,a2,0x2
8000015c:	00f987b3          	add	a5,s3,a5
80000160:	fc0616e3          	bnez	a2,8000012c <keyboard_test+0xd0>
80000164:	f91ff06f          	j	800000f4 <keyboard_test+0x98>

80000168 <rtc_test>:
80000168:	fb010113          	addi	sp,sp,-80
8000016c:	05212023          	sw	s2,64(sp)
80000170:	000f4937          	lui	s2,0xf4
80000174:	04812423          	sw	s0,72(sp)
80000178:	04912223          	sw	s1,68(sp)
8000017c:	03312e23          	sw	s3,60(sp)
80000180:	03412c23          	sw	s4,56(sp)
80000184:	03512a23          	sw	s5,52(sp)
80000188:	03612823          	sw	s6,48(sp)
8000018c:	03712623          	sw	s7,44(sp)
80000190:	04112623          	sw	ra,76(sp)
80000194:	00100493          	li	s1,1
80000198:	00000413          	li	s0,0
8000019c:	24090913          	addi	s2,s2,576 # f4240 <_entry_offset+0xf4240>
800001a0:	00000993          	li	s3,0
800001a4:	00002b17          	auipc	s6,0x2
800001a8:	3fcb0b13          	addi	s6,s6,1020 # 800025a0 <_etext+0x22c>
800001ac:	00100a93          	li	s5,1
800001b0:	00002b97          	auipc	s7,0x2
800001b4:	420b8b93          	addi	s7,s7,1056 # 800025d0 <_etext+0x25c>
800001b8:	00002a17          	auipc	s4,0x2
800001bc:	408a0a13          	addi	s4,s4,1032 # 800025c0 <_etext+0x24c>
800001c0:	00810593          	addi	a1,sp,8
800001c4:	00600513          	li	a0,6
800001c8:	755000ef          	jal	8000111c <ioe_read>
800001cc:	00812503          	lw	a0,8(sp)
800001d0:	00c12583          	lw	a1,12(sp)
800001d4:	00090613          	mv	a2,s2
800001d8:	00098693          	mv	a3,s3
800001dc:	7c8010ef          	jal	800019a4 <__udivdi3>
800001e0:	fe85e0e3          	bltu	a1,s0,800001c0 <rtc_test+0x58>
800001e4:	00b41463          	bne	s0,a1,800001ec <rtc_test+0x84>
800001e8:	fc956ce3          	bltu	a0,s1,800001c0 <rtc_test+0x58>
800001ec:	00810593          	addi	a1,sp,8
800001f0:	00500513          	li	a0,5
800001f4:	729000ef          	jal	8000111c <ioe_read>
800001f8:	00812583          	lw	a1,8(sp)
800001fc:	01c12803          	lw	a6,28(sp)
80000200:	01812783          	lw	a5,24(sp)
80000204:	01412703          	lw	a4,20(sp)
80000208:	01012683          	lw	a3,16(sp)
8000020c:	00c12603          	lw	a2,12(sp)
80000210:	000b0513          	mv	a0,s6
80000214:	0ec020ef          	jal	80002300 <printf>
80000218:	00100593          	li	a1,1
8000021c:	000a0513          	mv	a0,s4
80000220:	01548663          	beq	s1,s5,8000022c <rtc_test+0xc4>
80000224:	00048593          	mv	a1,s1
80000228:	000b8513          	mv	a0,s7
8000022c:	0d4020ef          	jal	80002300 <printf>
80000230:	00148793          	addi	a5,s1,1
80000234:	0097b4b3          	sltu	s1,a5,s1
80000238:	00848433          	add	s0,s1,s0
8000023c:	00078493          	mv	s1,a5
80000240:	f81ff06f          	j	800001c0 <rtc_test+0x58>

80000244 <simple_pgalloc>:
80000244:	00095617          	auipc	a2,0x95
80000248:	6dc60613          	addi	a2,a2,1756 # 80095920 <st>
8000024c:	00062683          	lw	a3,0(a2)
80000250:	00069663          	bnez	a3,8000025c <simple_pgalloc+0x18>
80000254:	00011697          	auipc	a3,0x11
80000258:	09c6a683          	lw	a3,156(a3) # 800112f0 <heap>
8000025c:	02a6f7b3          	remu	a5,a3,a0
80000260:	00078c63          	beqz	a5,80000278 <simple_pgalloc+0x34>
80000264:	00168793          	addi	a5,a3,1
80000268:	02a7f733          	remu	a4,a5,a0
8000026c:	00078693          	mv	a3,a5
80000270:	00178793          	addi	a5,a5,1
80000274:	fe071ae3          	bnez	a4,80000268 <simple_pgalloc+0x24>
80000278:	00d50533          	add	a0,a0,a3
8000027c:	00a62023          	sw	a0,0(a2)
80000280:	00068513          	mv	a0,a3
80000284:	00008067          	ret

80000288 <simple_pgfree>:
80000288:	00008067          	ret

8000028c <vm_handler>:
8000028c:	00052783          	lw	a5,0(a0)
80000290:	fe010113          	addi	sp,sp,-32
80000294:	00812c23          	sw	s0,24(sp)
80000298:	00112e23          	sw	ra,28(sp)
8000029c:	00300713          	li	a4,3
800002a0:	00452603          	lw	a2,4(a0)
800002a4:	00058413          	mv	s0,a1
800002a8:	0ae78a63          	beq	a5,a4,8000035c <vm_handler+0xd0>
800002ac:	08f76263          	bltu	a4,a5,80000330 <vm_handler+0xa4>
800002b0:	00100713          	li	a4,1
800002b4:	04e78663          	beq	a5,a4,80000300 <vm_handler+0x74>
800002b8:	00200713          	li	a4,2
800002bc:	0ee79c63          	bne	a5,a4,800003b4 <vm_handler+0x128>
800002c0:	00100513          	li	a0,1
800002c4:	180010ef          	jal	80001444 <iset>
800002c8:	00012623          	sw	zero,12(sp)
800002cc:	00c12783          	lw	a5,12(sp)
800002d0:	000f4737          	lui	a4,0xf4
800002d4:	23f70713          	addi	a4,a4,575 # f423f <_entry_offset+0xf423f>
800002d8:	00f74c63          	blt	a4,a5,800002f0 <vm_handler+0x64>
800002dc:	00c12783          	lw	a5,12(sp)
800002e0:	00178793          	addi	a5,a5,1
800002e4:	00f12623          	sw	a5,12(sp)
800002e8:	00c12783          	lw	a5,12(sp)
800002ec:	fef758e3          	bge	a4,a5,800002dc <vm_handler+0x50>
800002f0:	02042583          	lw	a1,32(s0)
800002f4:	00002517          	auipc	a0,0x2
800002f8:	33450513          	addi	a0,a0,820 # 80002628 <_etext+0x2b4>
800002fc:	004020ef          	jal	80002300 <printf>
80000300:	00011797          	auipc	a5,0x11
80000304:	fec7a783          	lw	a5,-20(a5) # 800112ec <first_trap>
80000308:	00078a63          	beqz	a5,8000031c <vm_handler+0x90>
8000030c:	00011797          	auipc	a5,0x11
80000310:	fe07a023          	sw	zero,-32(a5) # 800112ec <first_trap>
80000314:	00095417          	auipc	s0,0x95
80000318:	61042403          	lw	s0,1552(s0) # 80095924 <uctx>
8000031c:	01c12083          	lw	ra,28(sp)
80000320:	00040513          	mv	a0,s0
80000324:	01812403          	lw	s0,24(sp)
80000328:	02010113          	addi	sp,sp,32
8000032c:	00008067          	ret
80000330:	ffb78793          	addi	a5,a5,-5
80000334:	00100713          	li	a4,1
80000338:	06f76e63          	bltu	a4,a5,800003b4 <vm_handler+0x128>
8000033c:	00c52583          	lw	a1,12(a0)
80000340:	00002517          	auipc	a0,0x2
80000344:	2bc50513          	addi	a0,a0,700 # 800025fc <_etext+0x288>
80000348:	7b9010ef          	jal	80002300 <printf>
8000034c:	00011797          	auipc	a5,0x11
80000350:	fa07a783          	lw	a5,-96(a5) # 800112ec <first_trap>
80000354:	fc0784e3          	beqz	a5,8000031c <vm_handler+0x90>
80000358:	fb5ff06f          	j	8000030c <vm_handler+0x80>
8000035c:	00167793          	andi	a5,a2,1
80000360:	00852583          	lw	a1,8(a0)
80000364:	00002697          	auipc	a3,0x2
80000368:	06c68693          	addi	a3,a3,108 # 800023d0 <_etext+0x5c>
8000036c:	00078663          	beqz	a5,80000378 <vm_handler+0xec>
80000370:	00002697          	auipc	a3,0x2
80000374:	27068693          	addi	a3,a3,624 # 800025e0 <_etext+0x26c>
80000378:	00267613          	andi	a2,a2,2
8000037c:	00002717          	auipc	a4,0x2
80000380:	05470713          	addi	a4,a4,84 # 800023d0 <_etext+0x5c>
80000384:	00060663          	beqz	a2,80000390 <vm_handler+0x104>
80000388:	00002717          	auipc	a4,0x2
8000038c:	26470713          	addi	a4,a4,612 # 800025ec <_etext+0x278>
80000390:	00002617          	auipc	a2,0x2
80000394:	04060613          	addi	a2,a2,64 # 800023d0 <_etext+0x5c>
80000398:	00002517          	auipc	a0,0x2
8000039c:	28050513          	addi	a0,a0,640 # 80002618 <_etext+0x2a4>
800003a0:	761010ef          	jal	80002300 <printf>
800003a4:	00011797          	auipc	a5,0x11
800003a8:	f487a783          	lw	a5,-184(a5) # 800112ec <first_trap>
800003ac:	f60788e3          	beqz	a5,8000031c <vm_handler+0x90>
800003b0:	f5dff06f          	j	8000030c <vm_handler+0x80>
800003b4:	02900613          	li	a2,41
800003b8:	00002597          	auipc	a1,0x2
800003bc:	27458593          	addi	a1,a1,628 # 8000262c <_etext+0x2b8>
800003c0:	00002517          	auipc	a0,0x2
800003c4:	2a850513          	addi	a0,a0,680 # 80002668 <_etext+0x2f4>
800003c8:	739010ef          	jal	80002300 <printf>
800003cc:	00100513          	li	a0,1
800003d0:	431000ef          	jal	80001000 <halt>

800003d4 <vm_test>:
800003d4:	fe010113          	addi	sp,sp,-32
800003d8:	00300613          	li	a2,3
800003dc:	00002597          	auipc	a1,0x2
800003e0:	2a858593          	addi	a1,a1,680 # 80002684 <_etext+0x310>
800003e4:	00002517          	auipc	a0,0x2
800003e8:	2a450513          	addi	a0,a0,676 # 80002688 <_etext+0x314>
800003ec:	00112e23          	sw	ra,28(sp)
800003f0:	734010ef          	jal	80001b24 <strncmp>
800003f4:	00050e63          	beqz	a0,80000410 <vm_test+0x3c>
800003f8:	00002597          	auipc	a1,0x2
800003fc:	29858593          	addi	a1,a1,664 # 80002690 <_etext+0x31c>
80000400:	00002517          	auipc	a0,0x2
80000404:	28850513          	addi	a0,a0,648 # 80002688 <_etext+0x314>
80000408:	6d4010ef          	jal	80001adc <strcmp>
8000040c:	10051863          	bnez	a0,8000051c <vm_test+0x148>
80000410:	00012517          	auipc	a0,0x12
80000414:	eec50513          	addi	a0,a0,-276 # 800122fc <prot>
80000418:	00812c23          	sw	s0,24(sp)
8000041c:	00912a23          	sw	s1,20(sp)
80000420:	01212823          	sw	s2,16(sp)
80000424:	1ac010ef          	jal	800015d0 <protect>
80000428:	00012917          	auipc	s2,0x12
8000042c:	ed490913          	addi	s2,s2,-300 # 800122fc <prot>
80000430:	00892603          	lw	a2,8(s2)
80000434:	00492583          	lw	a1,4(s2)
80000438:	00002517          	auipc	a0,0x2
8000043c:	28050513          	addi	a0,a0,640 # 800026b8 <_etext+0x344>
80000440:	6c1010ef          	jal	80002300 <printf>
80000444:	00492783          	lw	a5,4(s2)
80000448:	00892483          	lw	s1,8(s2)
8000044c:	00095697          	auipc	a3,0x95
80000450:	4d468693          	addi	a3,a3,1236 # 80095920 <st>
80000454:	0006a403          	lw	s0,0(a3)
80000458:	40f484b3          	sub	s1,s1,a5
8000045c:	0014d493          	srli	s1,s1,0x1
80000460:	00092703          	lw	a4,0(s2)
80000464:	00f484b3          	add	s1,s1,a5
80000468:	00041c63          	bnez	s0,80000480 <vm_test+0xac>
8000046c:	00011417          	auipc	s0,0x11
80000470:	e8442403          	lw	s0,-380(s0) # 800112f0 <heap>
80000474:	02e477b3          	remu	a5,s0,a4
80000478:	00078863          	beqz	a5,80000488 <vm_test+0xb4>
8000047c:	00140413          	addi	s0,s0,1
80000480:	02e477b3          	remu	a5,s0,a4
80000484:	fe079ce3          	bnez	a5,8000047c <vm_test+0xa8>
80000488:	00870733          	add	a4,a4,s0
8000048c:	00f00613          	li	a2,15
80000490:	00011597          	auipc	a1,0x11
80000494:	c4c58593          	addi	a1,a1,-948 # 800110dc <code>
80000498:	00040513          	mv	a0,s0
8000049c:	00e6a023          	sw	a4,0(a3)
800004a0:	6f4010ef          	jal	80001b94 <memcpy>
800004a4:	00300693          	li	a3,3
800004a8:	00040613          	mv	a2,s0
800004ac:	00048593          	mv	a1,s1
800004b0:	00012517          	auipc	a0,0x12
800004b4:	e4c50513          	addi	a0,a0,-436 # 800122fc <prot>
800004b8:	170010ef          	jal	80001628 <map>
800004bc:	00040613          	mv	a2,s0
800004c0:	00048593          	mv	a1,s1
800004c4:	00002517          	auipc	a0,0x2
800004c8:	21850513          	addi	a0,a0,536 # 800026dc <_etext+0x368>
800004cc:	635010ef          	jal	80002300 <printf>
800004d0:	00048693          	mv	a3,s1
800004d4:	00011597          	auipc	a1,0x11
800004d8:	e2858593          	addi	a1,a1,-472 # 800112fc <stack.0>
800004dc:	00012617          	auipc	a2,0x12
800004e0:	e2060613          	addi	a2,a2,-480 # 800122fc <prot>
800004e4:	00012517          	auipc	a0,0x12
800004e8:	e1850513          	addi	a0,a0,-488 # 800122fc <prot>
800004ec:	140010ef          	jal	8000162c <ucontext>
800004f0:	00050793          	mv	a5,a0
800004f4:	00100513          	li	a0,1
800004f8:	00095717          	auipc	a4,0x95
800004fc:	42f72623          	sw	a5,1068(a4) # 80095924 <uctx>
80000500:	745000ef          	jal	80001444 <iset>
80000504:	01812403          	lw	s0,24(sp)
80000508:	01412483          	lw	s1,20(sp)
8000050c:	01012903          	lw	s2,16(sp)
80000510:	01c12083          	lw	ra,28(sp)
80000514:	02010113          	addi	sp,sp,32
80000518:	7250006f          	j	8000143c <yield>
8000051c:	01c12083          	lw	ra,28(sp)
80000520:	00002517          	auipc	a0,0x2
80000524:	17850513          	addi	a0,a0,376 # 80002698 <_etext+0x324>
80000528:	02010113          	addi	sp,sp,32
8000052c:	5d50106f          	j	80002300 <printf>

80000530 <audio_test>:
80000530:	fd010113          	addi	sp,sp,-48
80000534:	00410593          	addi	a1,sp,4
80000538:	00e00513          	li	a0,14
8000053c:	02112623          	sw	ra,44(sp)
80000540:	3dd000ef          	jal	8000111c <ioe_read>
80000544:	00414783          	lbu	a5,4(sp)
80000548:	0e078663          	beqz	a5,80000634 <audio_test+0x104>
8000054c:	000027b7          	lui	a5,0x2
80000550:	f4078793          	addi	a5,a5,-192 # 1f40 <_entry_offset+0x1f40>
80000554:	00f12223          	sw	a5,4(sp)
80000558:	00100793          	li	a5,1
8000055c:	00f12423          	sw	a5,8(sp)
80000560:	00410593          	addi	a1,sp,4
80000564:	40000793          	li	a5,1024
80000568:	00f00513          	li	a0,15
8000056c:	03212023          	sw	s2,32(sp)
80000570:	01312e23          	sw	s3,28(sp)
80000574:	00f12623          	sw	a5,12(sp)
80000578:	3c1000ef          	jal	80001138 <ioe_write>
8000057c:	00011797          	auipc	a5,0x11
80000580:	b6078793          	addi	a5,a5,-1184 # 800110dc <code>
80000584:	00003917          	auipc	s2,0x3
80000588:	d4c90913          	addi	s2,s2,-692 # 800032d0 <audio_payload>
8000058c:	412789b3          	sub	s3,a5,s2
80000590:	07278e63          	beq	a5,s2,8000060c <audio_test+0xdc>
80000594:	02812423          	sw	s0,40(sp)
80000598:	02912223          	sw	s1,36(sp)
8000059c:	01412c23          	sw	s4,24(sp)
800005a0:	01512a23          	sw	s5,20(sp)
800005a4:	00000493          	li	s1,0
800005a8:	00000413          	li	s0,0
800005ac:	00001ab7          	lui	s5,0x1
800005b0:	00002a17          	auipc	s4,0x2
800005b4:	18ca0a13          	addi	s4,s4,396 # 8000273c <_etext+0x3c8>
800005b8:	40898433          	sub	s0,s3,s0
800005bc:	00090793          	mv	a5,s2
800005c0:	00410593          	addi	a1,sp,4
800005c4:	01100513          	li	a0,17
800005c8:	008af463          	bgeu	s5,s0,800005d0 <audio_test+0xa0>
800005cc:	00001437          	lui	s0,0x1
800005d0:	00890933          	add	s2,s2,s0
800005d4:	00f12223          	sw	a5,4(sp)
800005d8:	008484b3          	add	s1,s1,s0
800005dc:	01212423          	sw	s2,8(sp)
800005e0:	359000ef          	jal	80001138 <ioe_write>
800005e4:	00098613          	mv	a2,s3
800005e8:	00048593          	mv	a1,s1
800005ec:	000a0513          	mv	a0,s4
800005f0:	511010ef          	jal	80002300 <printf>
800005f4:	00048413          	mv	s0,s1
800005f8:	fd34e0e3          	bltu	s1,s3,800005b8 <audio_test+0x88>
800005fc:	02812403          	lw	s0,40(sp)
80000600:	02412483          	lw	s1,36(sp)
80000604:	01812a03          	lw	s4,24(sp)
80000608:	01412a83          	lw	s5,20(sp)
8000060c:	00410593          	addi	a1,sp,4
80000610:	01000513          	li	a0,16
80000614:	309000ef          	jal	8000111c <ioe_read>
80000618:	00412783          	lw	a5,4(sp)
8000061c:	fef048e3          	bgtz	a5,8000060c <audio_test+0xdc>
80000620:	02c12083          	lw	ra,44(sp)
80000624:	02012903          	lw	s2,32(sp)
80000628:	01c12983          	lw	s3,28(sp)
8000062c:	03010113          	addi	sp,sp,48
80000630:	00008067          	ret
80000634:	02c12083          	lw	ra,44(sp)
80000638:	00002597          	auipc	a1,0x2
8000063c:	0d058593          	addi	a1,a1,208 # 80002708 <_etext+0x394>
80000640:	00002517          	auipc	a0,0x2
80000644:	0d850513          	addi	a0,a0,216 # 80002718 <_etext+0x3a4>
80000648:	03010113          	addi	sp,sp,48
8000064c:	4b50106f          	j	80002300 <printf>

80000650 <redraw>:
80000650:	fb010113          	addi	sp,sp,-80
80000654:	00810593          	addi	a1,sp,8
80000658:	00900513          	li	a0,9
8000065c:	04112623          	sw	ra,76(sp)
80000660:	03312e23          	sw	s3,60(sp)
80000664:	03512a23          	sw	s5,52(sp)
80000668:	03712623          	sw	s7,44(sp)
8000066c:	04812423          	sw	s0,72(sp)
80000670:	04912223          	sw	s1,68(sp)
80000674:	05212023          	sw	s2,64(sp)
80000678:	03412c23          	sw	s4,56(sp)
8000067c:	03612823          	sw	s6,48(sp)
80000680:	03812423          	sw	s8,40(sp)
80000684:	03912223          	sw	s9,36(sp)
80000688:	295000ef          	jal	8000111c <ioe_read>
8000068c:	00c12783          	lw	a5,12(sp)
80000690:	00810593          	addi	a1,sp,8
80000694:	00900513          	li	a0,9
80000698:	41f7d993          	srai	s3,a5,0x1f
8000069c:	01f9f993          	andi	s3,s3,31
800006a0:	00f989b3          	add	s3,s3,a5
800006a4:	279000ef          	jal	8000111c <ioe_read>
800006a8:	01012783          	lw	a5,16(sp)
800006ac:	4059d993          	srai	s3,s3,0x5
800006b0:	40000713          	li	a4,1024
800006b4:	41f7da93          	srai	s5,a5,0x1f
800006b8:	01fafa93          	andi	s5,s5,31
800006bc:	00fa8ab3          	add	s5,s5,a5
800006c0:	405ada93          	srai	s5,s5,0x5
800006c4:	03598bb3          	mul	s7,s3,s5
800006c8:	0f776063          	bltu	a4,s7,800007a8 <redraw+0x158>
800006cc:	00012a17          	auipc	s4,0x12
800006d0:	c40a0a13          	addi	s4,s4,-960 # 8001230c <color_buf>
800006d4:	002b9413          	slli	s0,s7,0x2
800006d8:	00014b17          	auipc	s6,0x14
800006dc:	cb4b0b13          	addi	s6,s6,-844 # 8001438c <canvas+0x80>
800006e0:	00015c17          	auipc	s8,0x15
800006e4:	cacc0c13          	addi	s8,s8,-852 # 8001538c <buf.0+0x80>
800006e8:	008a0433          	add	s0,s4,s0
800006ec:	00000c93          	li	s9,0
800006f0:	f80b0493          	addi	s1,s6,-128
800006f4:	00000913          	li	s2,0
800006f8:	000b8c63          	beqz	s7,80000710 <redraw+0xc0>
800006fc:	0004a703          	lw	a4,0(s1)
80000700:	000a0793          	mv	a5,s4
80000704:	00e7a023          	sw	a4,0(a5)
80000708:	00478793          	addi	a5,a5,4
8000070c:	fe879ce3          	bne	a5,s0,80000704 <redraw+0xb4>
80000710:	00810593          	addi	a1,sp,8
80000714:	00b00513          	li	a0,11
80000718:	00448493          	addi	s1,s1,4
8000071c:	01212423          	sw	s2,8(sp)
80000720:	01912623          	sw	s9,12(sp)
80000724:	01412823          	sw	s4,16(sp)
80000728:	01312a23          	sw	s3,20(sp)
8000072c:	01512c23          	sw	s5,24(sp)
80000730:	00010e23          	sb	zero,28(sp)
80000734:	01390933          	add	s2,s2,s3
80000738:	201000ef          	jal	80001138 <ioe_write>
8000073c:	fb649ee3          	bne	s1,s6,800006f8 <redraw+0xa8>
80000740:	08048b13          	addi	s6,s1,128
80000744:	015c8cb3          	add	s9,s9,s5
80000748:	fb8b14e3          	bne	s6,s8,800006f0 <redraw+0xa0>
8000074c:	00810593          	addi	a1,sp,8
80000750:	00100793          	li	a5,1
80000754:	00b00513          	li	a0,11
80000758:	00012423          	sw	zero,8(sp)
8000075c:	00012623          	sw	zero,12(sp)
80000760:	00012823          	sw	zero,16(sp)
80000764:	00012a23          	sw	zero,20(sp)
80000768:	00012c23          	sw	zero,24(sp)
8000076c:	00f10e23          	sb	a5,28(sp)
80000770:	1c9000ef          	jal	80001138 <ioe_write>
80000774:	04c12083          	lw	ra,76(sp)
80000778:	04812403          	lw	s0,72(sp)
8000077c:	04412483          	lw	s1,68(sp)
80000780:	04012903          	lw	s2,64(sp)
80000784:	03c12983          	lw	s3,60(sp)
80000788:	03812a03          	lw	s4,56(sp)
8000078c:	03412a83          	lw	s5,52(sp)
80000790:	03012b03          	lw	s6,48(sp)
80000794:	02c12b83          	lw	s7,44(sp)
80000798:	02812c03          	lw	s8,40(sp)
8000079c:	02412c83          	lw	s9,36(sp)
800007a0:	05010113          	addi	sp,sp,80
800007a4:	00008067          	ret
800007a8:	01600613          	li	a2,22
800007ac:	00002597          	auipc	a1,0x2
800007b0:	fb458593          	addi	a1,a1,-76 # 80002760 <_etext+0x3ec>
800007b4:	00002517          	auipc	a0,0x2
800007b8:	eb450513          	addi	a0,a0,-332 # 80002668 <_etext+0x2f4>
800007bc:	345010ef          	jal	80002300 <printf>
800007c0:	00100513          	li	a0,1
800007c4:	03d000ef          	jal	80001000 <halt>

800007c8 <update>:
800007c8:	00095797          	auipc	a5,0x95
800007cc:	16078793          	addi	a5,a5,352 # 80095928 <tsc.2>
800007d0:	0007a383          	lw	t2,0(a5)
800007d4:	fe010113          	addi	sp,sp,-32
800007d8:	00812e23          	sw	s0,28(sp)
800007dc:	00912c23          	sw	s1,24(sp)
800007e0:	01212a23          	sw	s2,20(sp)
800007e4:	01312823          	sw	s3,16(sp)
800007e8:	01412623          	sw	s4,12(sp)
800007ec:	00138393          	addi	t2,t2,1
800007f0:	00013717          	auipc	a4,0x13
800007f4:	b9c70713          	addi	a4,a4,-1124 # 8001338c <used+0x80>
800007f8:	00014697          	auipc	a3,0x14
800007fc:	b9468693          	addi	a3,a3,-1132 # 8001438c <canvas+0x80>
80000800:	0077a023          	sw	t2,0(a5)
80000804:	f8070793          	addi	a5,a4,-128
80000808:	0007a023          	sw	zero,0(a5)
8000080c:	00478793          	addi	a5,a5,4
80000810:	fef71ce3          	bne	a4,a5,80000808 <update+0x40>
80000814:	08070713          	addi	a4,a4,128
80000818:	fee696e3          	bne	a3,a4,80000804 <update+0x3c>
8000081c:	0ff3f693          	zext.b	a3,t2
80000820:	00169793          	slli	a5,a3,0x1
80000824:	00f687b3          	add	a5,a3,a5
80000828:	00369713          	slli	a4,a3,0x3
8000082c:	40d70733          	sub	a4,a4,a3
80000830:	00179793          	slli	a5,a5,0x1
80000834:	0ff7f793          	zext.b	a5,a5
80000838:	0ff77713          	zext.b	a4,a4
8000083c:	00871713          	slli	a4,a4,0x8
80000840:	01079793          	slli	a5,a5,0x10
80000844:	00e7e7b3          	or	a5,a5,a4
80000848:	0ff3f713          	zext.b	a4,t2
8000084c:	00e7e7b3          	or	a5,a5,a4
80000850:	00014417          	auipc	s0,0x14
80000854:	abc40413          	addi	s0,s0,-1348 # 8001430c <canvas>
80000858:	00013e97          	auipc	t4,0x13
8000085c:	ab4e8e93          	addi	t4,t4,-1356 # 8001330c <used>
80000860:	00f42023          	sw	a5,0(s0)
80000864:	00100793          	li	a5,1
80000868:	00fea023          	sw	a5,0(t4)
8000086c:	00100693          	li	a3,1
80000870:	00000713          	li	a4,0
80000874:	00100f93          	li	t6,1
80000878:	00000813          	li	a6,0
8000087c:	00000913          	li	s2,0
80000880:	00000e13          	li	t3,0
80000884:	01f00f13          	li	t5,31
80000888:	00002317          	auipc	t1,0x2
8000088c:	40830313          	addi	t1,t1,1032 # 80002c90 <dx.1>
80000890:	00002897          	auipc	a7,0x2
80000894:	3f088893          	addi	a7,a7,1008 # 80002c80 <dy.0>
80000898:	00100493          	li	s1,1
8000089c:	40000293          	li	t0,1024
800008a0:	00400513          	li	a0,4
800008a4:	00180793          	addi	a5,a6,1
800008a8:	00ee05b3          	add	a1,t3,a4
800008ac:	41f7d613          	srai	a2,a5,0x1f
800008b0:	00d906b3          	add	a3,s2,a3
800008b4:	00559713          	slli	a4,a1,0x5
800008b8:	01e65613          	srli	a2,a2,0x1e
800008bc:	00d70733          	add	a4,a4,a3
800008c0:	00271713          	slli	a4,a4,0x2
800008c4:	00c787b3          	add	a5,a5,a2
800008c8:	00d5e9b3          	or	s3,a1,a3
800008cc:	00ee8a33          	add	s4,t4,a4
800008d0:	0037f793          	andi	a5,a5,3
800008d4:	fff50513          	addi	a0,a0,-1
800008d8:	013f6663          	bltu	t5,s3,800008e4 <update+0x11c>
800008dc:	000a2983          	lw	s3,0(s4)
800008e0:	02098263          	beqz	s3,80000904 <update+0x13c>
800008e4:	40c78833          	sub	a6,a5,a2
800008e8:	00281793          	slli	a5,a6,0x2
800008ec:	00f30733          	add	a4,t1,a5
800008f0:	00f887b3          	add	a5,a7,a5
800008f4:	06050063          	beqz	a0,80000954 <update+0x18c>
800008f8:	00072703          	lw	a4,0(a4)
800008fc:	0007a683          	lw	a3,0(a5)
80000900:	fa5ff06f          	j	800008a4 <update+0xdc>
80000904:	401fd513          	srai	a0,t6,0x1
80000908:	00750533          	add	a0,a0,t2
8000090c:	0ff57e13          	zext.b	t3,a0
80000910:	001e1613          	slli	a2,t3,0x1
80000914:	00ce0633          	add	a2,t3,a2
80000918:	003e1793          	slli	a5,t3,0x3
8000091c:	41c787b3          	sub	a5,a5,t3
80000920:	00161613          	slli	a2,a2,0x1
80000924:	0ff67613          	zext.b	a2,a2
80000928:	0ff7f793          	zext.b	a5,a5
8000092c:	00879793          	slli	a5,a5,0x8
80000930:	01061613          	slli	a2,a2,0x10
80000934:	00f66633          	or	a2,a2,a5
80000938:	0ff57513          	zext.b	a0,a0
8000093c:	00e407b3          	add	a5,s0,a4
80000940:	00a66733          	or	a4,a2,a0
80000944:	009a2023          	sw	s1,0(s4)
80000948:	00e7a023          	sw	a4,0(a5)
8000094c:	00068913          	mv	s2,a3
80000950:	00058e13          	mv	t3,a1
80000954:	001f8f93          	addi	t6,t6,1
80000958:	005f8e63          	beq	t6,t0,80000974 <update+0x1ac>
8000095c:	00281793          	slli	a5,a6,0x2
80000960:	00f30733          	add	a4,t1,a5
80000964:	00f887b3          	add	a5,a7,a5
80000968:	00072703          	lw	a4,0(a4)
8000096c:	0007a683          	lw	a3,0(a5)
80000970:	f31ff06f          	j	800008a0 <update+0xd8>
80000974:	01c12403          	lw	s0,28(sp)
80000978:	01812483          	lw	s1,24(sp)
8000097c:	01412903          	lw	s2,20(sp)
80000980:	01012983          	lw	s3,16(sp)
80000984:	00c12a03          	lw	s4,12(sp)
80000988:	02010113          	addi	sp,sp,32
8000098c:	00008067          	ret

80000990 <video_test>:
80000990:	fd010113          	addi	sp,sp,-48
80000994:	02912223          	sw	s1,36(sp)
80000998:	03212023          	sw	s2,32(sp)
8000099c:	01312e23          	sw	s3,28(sp)
800009a0:	01412c23          	sw	s4,24(sp)
800009a4:	01512a23          	sw	s5,20(sp)
800009a8:	01612823          	sw	s6,16(sp)
800009ac:	02112623          	sw	ra,44(sp)
800009b0:	02812423          	sw	s0,40(sp)
800009b4:	00000993          	li	s3,0
800009b8:	00000913          	li	s2,0
800009bc:	00000493          	li	s1,0
800009c0:	02100a93          	li	s5,33
800009c4:	3e800a13          	li	s4,1000
800009c8:	00002b17          	auipc	s6,0x2
800009cc:	dd8b0b13          	addi	s6,s6,-552 # 800027a0 <_etext+0x42c>
800009d0:	00810593          	addi	a1,sp,8
800009d4:	00600513          	li	a0,6
800009d8:	744000ef          	jal	8000111c <ioe_read>
800009dc:	00812503          	lw	a0,8(sp)
800009e0:	00c12583          	lw	a1,12(sp)
800009e4:	3e800613          	li	a2,1000
800009e8:	00000693          	li	a3,0
800009ec:	7b9000ef          	jal	800019a4 <__udivdi3>
800009f0:	409507b3          	sub	a5,a0,s1
800009f4:	00050413          	mv	s0,a0
800009f8:	02fae463          	bltu	s5,a5,80000a20 <video_test+0x90>
800009fc:	412407b3          	sub	a5,s0,s2
80000a00:	fcfa78e3          	bgeu	s4,a5,800009d0 <video_test+0x40>
80000a04:	00098613          	mv	a2,s3
80000a08:	00040593          	mv	a1,s0
80000a0c:	000b0513          	mv	a0,s6
80000a10:	0f1010ef          	jal	80002300 <printf>
80000a14:	00040913          	mv	s2,s0
80000a18:	00000993          	li	s3,0
80000a1c:	fb5ff06f          	j	800009d0 <video_test+0x40>
80000a20:	da9ff0ef          	jal	800007c8 <update>
80000a24:	00198993          	addi	s3,s3,1
80000a28:	c29ff0ef          	jal	80000650 <redraw>
80000a2c:	00040493          	mv	s1,s0
80000a30:	fcdff06f          	j	800009fc <video_test+0x6c>

80000a34 <simple_trap>:
80000a34:	00052783          	lw	a5,0(a0)
80000a38:	ff010113          	addi	sp,sp,-16
80000a3c:	00812423          	sw	s0,8(sp)
80000a40:	00112623          	sw	ra,12(sp)
80000a44:	00500713          	li	a4,5
80000a48:	00058413          	mv	s0,a1
80000a4c:	04e78663          	beq	a5,a4,80000a98 <simple_trap+0x64>
80000a50:	00600713          	li	a4,6
80000a54:	02e78463          	beq	a5,a4,80000a7c <simple_trap+0x48>
80000a58:	00100713          	li	a4,1
80000a5c:	04e79c63          	bne	a5,a4,80000ab4 <simple_trap+0x80>
80000a60:	07900513          	li	a0,121
80000a64:	57c000ef          	jal	80000fe0 <putch>
80000a68:	00c12083          	lw	ra,12(sp)
80000a6c:	00040513          	mv	a0,s0
80000a70:	00812403          	lw	s0,8(sp)
80000a74:	01010113          	addi	sp,sp,16
80000a78:	00008067          	ret
80000a7c:	06400513          	li	a0,100
80000a80:	560000ef          	jal	80000fe0 <putch>
80000a84:	00c12083          	lw	ra,12(sp)
80000a88:	00040513          	mv	a0,s0
80000a8c:	00812403          	lw	s0,8(sp)
80000a90:	01010113          	addi	sp,sp,16
80000a94:	00008067          	ret
80000a98:	07400513          	li	a0,116
80000a9c:	544000ef          	jal	80000fe0 <putch>
80000aa0:	00c12083          	lw	ra,12(sp)
80000aa4:	00040513          	mv	a0,s0
80000aa8:	00812403          	lw	s0,8(sp)
80000aac:	01010113          	addi	sp,sp,16
80000ab0:	00008067          	ret
80000ab4:	00002417          	auipc	s0,0x2
80000ab8:	cfc40413          	addi	s0,s0,-772 # 800027b0 <_etext+0x43c>
80000abc:	04100513          	li	a0,65
80000ac0:	520000ef          	jal	80000fe0 <putch>
80000ac4:	00144503          	lbu	a0,1(s0)
80000ac8:	00140413          	addi	s0,s0,1
80000acc:	fe051ae3          	bnez	a0,80000ac0 <simple_trap+0x8c>
80000ad0:	00002417          	auipc	s0,0x2
80000ad4:	cec40413          	addi	s0,s0,-788 # 800027bc <_etext+0x448>
80000ad8:	05500513          	li	a0,85
80000adc:	504000ef          	jal	80000fe0 <putch>
80000ae0:	00144503          	lbu	a0,1(s0)
80000ae4:	00140413          	addi	s0,s0,1
80000ae8:	fe051ae3          	bnez	a0,80000adc <simple_trap+0xa8>
80000aec:	00002417          	auipc	s0,0x2
80000af0:	ce040413          	addi	s0,s0,-800 # 800027cc <_etext+0x458>
80000af4:	02000513          	li	a0,32
80000af8:	4e8000ef          	jal	80000fe0 <putch>
80000afc:	00144503          	lbu	a0,1(s0)
80000b00:	00140413          	addi	s0,s0,1
80000b04:	fe051ae3          	bnez	a0,80000af8 <simple_trap+0xc4>
80000b08:	00100513          	li	a0,1
80000b0c:	4f4000ef          	jal	80001000 <halt>

80000b10 <hello_intr>:
80000b10:	fe010113          	addi	sp,sp,-32
80000b14:	00002517          	auipc	a0,0x2
80000b18:	86050513          	addi	a0,a0,-1952 # 80002374 <_etext>
80000b1c:	00112e23          	sw	ra,28(sp)
80000b20:	00812c23          	sw	s0,24(sp)
80000b24:	7dc010ef          	jal	80002300 <printf>
80000b28:	00002517          	auipc	a0,0x2
80000b2c:	cec50513          	addi	a0,a0,-788 # 80002814 <_etext+0x4a0>
80000b30:	7d0010ef          	jal	80002300 <printf>
80000b34:	00c10593          	addi	a1,sp,12
80000b38:	00700513          	li	a0,7
80000b3c:	5e0000ef          	jal	8000111c <ioe_read>
80000b40:	00000517          	auipc	a0,0x0
80000b44:	ef450513          	addi	a0,a0,-268 # 80000a34 <simple_trap>
80000b48:	0d5000ef          	jal	8000141c <cte_init>
80000b4c:	00100513          	li	a0,1
80000b50:	00989437          	lui	s0,0x989
80000b54:	0f1000ef          	jal	80001444 <iset>
80000b58:	67f40413          	addi	s0,s0,1663 # 98967f <_entry_offset+0x98967f>
80000b5c:	00012623          	sw	zero,12(sp)
80000b60:	00c12783          	lw	a5,12(sp)
80000b64:	00f44c63          	blt	s0,a5,80000b7c <hello_intr+0x6c>
80000b68:	00c12783          	lw	a5,12(sp)
80000b6c:	00178793          	addi	a5,a5,1
80000b70:	00f12623          	sw	a5,12(sp)
80000b74:	00c12783          	lw	a5,12(sp)
80000b78:	fef458e3          	bge	s0,a5,80000b68 <hello_intr+0x58>
80000b7c:	0c1000ef          	jal	8000143c <yield>
80000b80:	fddff06f          	j	80000b5c <hello_intr+0x4c>

80000b84 <mp_print>:
80000b84:	ff010113          	addi	sp,sp,-16
80000b88:	00812423          	sw	s0,8(sp)
80000b8c:	00112623          	sw	ra,12(sp)
80000b90:	00002417          	auipc	s0,0x2
80000b94:	ca840413          	addi	s0,s0,-856 # 80002838 <_etext+0x4c4>
80000b98:	7d8000ef          	jal	80001370 <cpu_current>
80000b9c:	00050593          	mv	a1,a0
80000ba0:	00040513          	mv	a0,s0
80000ba4:	75c010ef          	jal	80002300 <printf>
80000ba8:	ff1ff06f          	j	80000b98 <mp_print+0x14>

80000bac <devscan>:
80000bac:	00010797          	auipc	a5,0x10
80000bb0:	74478793          	addi	a5,a5,1860 # 800112f0 <heap>
80000bb4:	0047a603          	lw	a2,4(a5)
80000bb8:	0007a583          	lw	a1,0(a5)
80000bbc:	fc010113          	addi	sp,sp,-64
80000bc0:	00002517          	auipc	a0,0x2
80000bc4:	c7c50513          	addi	a0,a0,-900 # 8000283c <_etext+0x4c8>
80000bc8:	02112e23          	sw	ra,60(sp)
80000bcc:	02812c23          	sw	s0,56(sp)
80000bd0:	02912a23          	sw	s1,52(sp)
80000bd4:	03212823          	sw	s2,48(sp)
80000bd8:	03312623          	sw	s3,44(sp)
80000bdc:	03412423          	sw	s4,40(sp)
80000be0:	720010ef          	jal	80002300 <printf>
80000be4:	00002517          	auipc	a0,0x2
80000be8:	c7050513          	addi	a0,a0,-912 # 80002854 <_etext+0x4e0>
80000bec:	714010ef          	jal	80002300 <printf>
80000bf0:	01010593          	addi	a1,sp,16
80000bf4:	00600513          	li	a0,6
80000bf8:	524000ef          	jal	8000111c <ioe_read>
80000bfc:	01012503          	lw	a0,16(sp)
80000c00:	01412583          	lw	a1,20(sp)
80000c04:	3e800613          	li	a2,1000
80000c08:	00000693          	li	a3,0
80000c0c:	599000ef          	jal	800019a4 <__udivdi3>
80000c10:	00012623          	sw	zero,12(sp)
80000c14:	00c12783          	lw	a5,12(sp)
80000c18:	00989737          	lui	a4,0x989
80000c1c:	67f70713          	addi	a4,a4,1663 # 98967f <_entry_offset+0x98967f>
80000c20:	00050413          	mv	s0,a0
80000c24:	00f74c63          	blt	a4,a5,80000c3c <devscan+0x90>
80000c28:	00c12783          	lw	a5,12(sp)
80000c2c:	00178793          	addi	a5,a5,1
80000c30:	00f12623          	sw	a5,12(sp)
80000c34:	00c12783          	lw	a5,12(sp)
80000c38:	fef758e3          	bge	a4,a5,80000c28 <devscan+0x7c>
80000c3c:	01010593          	addi	a1,sp,16
80000c40:	00600513          	li	a0,6
80000c44:	4d8000ef          	jal	8000111c <ioe_read>
80000c48:	01012503          	lw	a0,16(sp)
80000c4c:	01412583          	lw	a1,20(sp)
80000c50:	3e800613          	li	a2,1000
80000c54:	00000693          	li	a3,0
80000c58:	54d000ef          	jal	800019a4 <__udivdi3>
80000c5c:	408505b3          	sub	a1,a0,s0
80000c60:	00002517          	auipc	a0,0x2
80000c64:	c1050513          	addi	a0,a0,-1008 # 80002870 <_etext+0x4fc>
80000c68:	698010ef          	jal	80002300 <printf>
80000c6c:	01010593          	addi	a1,sp,16
80000c70:	00900513          	li	a0,9
80000c74:	4a8000ef          	jal	8000111c <ioe_read>
80000c78:	01412983          	lw	s3,20(sp)
80000c7c:	01812903          	lw	s2,24(sp)
80000c80:	00002517          	auipc	a0,0x2
80000c84:	c1050513          	addi	a0,a0,-1008 # 80002890 <_etext+0x51c>
80000c88:	00098593          	mv	a1,s3
80000c8c:	00090613          	mv	a2,s2
80000c90:	670010ef          	jal	80002300 <printf>
80000c94:	00015417          	auipc	s0,0x15
80000c98:	94840413          	addi	s0,s0,-1720 # 800155dc <vmem+0xd0>
80000c9c:	00095497          	auipc	s1,0x95
80000ca0:	87048493          	addi	s1,s1,-1936 # 8009550c <kas>
80000ca4:	715000ef          	jal	80001bb8 <rand>
80000ca8:	00a40023          	sb	a0,0(s0)
80000cac:	00140413          	addi	s0,s0,1
80000cb0:	fe941ae3          	bne	s0,s1,80000ca4 <devscan+0xf8>
80000cb4:	41f9d713          	srai	a4,s3,0x1f
80000cb8:	00377713          	andi	a4,a4,3
80000cbc:	01370733          	add	a4,a4,s3
80000cc0:	00015797          	auipc	a5,0x15
80000cc4:	84c78793          	addi	a5,a5,-1972 # 8001550c <vmem>
80000cc8:	40275713          	srai	a4,a4,0x2
80000ccc:	00e79323          	sh	a4,6(a5)
80000cd0:	00015717          	auipc	a4,0x15
80000cd4:	84071223          	sh	zero,-1980(a4) # 80015514 <vmem+0x8>
80000cd8:	01f9d693          	srli	a3,s3,0x1f
80000cdc:	02500713          	li	a4,37
80000ce0:	00e79923          	sh	a4,18(a5)
80000ce4:	013686b3          	add	a3,a3,s3
80000ce8:	00a00713          	li	a4,10
80000cec:	ffff0837          	lui	a6,0xffff0
80000cf0:	fff00613          	li	a2,-1
80000cf4:	00180813          	addi	a6,a6,1 # ffff0001 <_end+0x7ff52001>
80000cf8:	4016d693          	srai	a3,a3,0x1
80000cfc:	00e79a23          	sh	a4,20(a5)
80000d00:	f9c90913          	addi	s2,s2,-100
80000d04:	0d000713          	li	a4,208
80000d08:	00e79b23          	sh	a4,22(a5)
80000d0c:	0107a023          	sw	a6,0(a5)
80000d10:	00d79523          	sh	a3,10(a5)
80000d14:	00c79223          	sh	a2,4(a5)
80000d18:	00c79723          	sh	a2,14(a5)
80000d1c:	00c79823          	sh	a2,16(a5)
80000d20:	01279623          	sh	s2,12(a5)
80000d24:	01010593          	addi	a1,sp,16
80000d28:	00c00513          	li	a0,12
80000d2c:	00f12a23          	sw	a5,20(sp)
80000d30:	000807b7          	lui	a5,0x80
80000d34:	00f12c23          	sw	a5,24(sp)
80000d38:	00014717          	auipc	a4,0x14
80000d3c:	7e071623          	sh	zero,2028(a4) # 80015524 <vmem+0x18>
80000d40:	00012823          	sw	zero,16(sp)
80000d44:	3f4000ef          	jal	80001138 <ioe_write>
80000d48:	01010593          	addi	a1,sp,16
80000d4c:	00d00513          	li	a0,13
80000d50:	00012823          	sw	zero,16(sp)
80000d54:	3e4000ef          	jal	80001138 <ioe_write>
80000d58:	01010593          	addi	a1,sp,16
80000d5c:	01200513          	li	a0,18
80000d60:	3bc000ef          	jal	8000111c <ioe_read>
80000d64:	01412403          	lw	s0,20(sp)
80000d68:	01812583          	lw	a1,24(sp)
80000d6c:	00002517          	auipc	a0,0x2
80000d70:	b3c50513          	addi	a0,a0,-1220 # 800028a8 <_etext+0x534>
80000d74:	00040613          	mv	a2,s0
80000d78:	588010ef          	jal	80002300 <printf>
80000d7c:	20000793          	li	a5,512
80000d80:	0287c7b3          	div	a5,a5,s0
80000d84:	01010593          	addi	a1,sp,16
80000d88:	00014417          	auipc	s0,0x14
80000d8c:	58440413          	addi	s0,s0,1412 # 8001530c <buf.0>
80000d90:	01400513          	li	a0,20
80000d94:	00200493          	li	s1,2
80000d98:	00010823          	sb	zero,16(sp)
80000d9c:	00812a23          	sw	s0,20(sp)
80000da0:	00012c23          	sw	zero,24(sp)
80000da4:	00014997          	auipc	s3,0x14
80000da8:	76898993          	addi	s3,s3,1896 # 8001550c <vmem>
80000dac:	00002917          	auipc	s2,0x2
80000db0:	b3490913          	addi	s2,s2,-1228 # 800028e0 <_etext+0x56c>
80000db4:	408484b3          	sub	s1,s1,s0
80000db8:	00002a17          	auipc	s4,0x2
80000dbc:	824a0a13          	addi	s4,s4,-2012 # 800025dc <_etext+0x268>
80000dc0:	00f12e23          	sw	a5,28(sp)
80000dc4:	374000ef          	jal	80001138 <ioe_write>
80000dc8:	00c0006f          	j	80000dd4 <devscan+0x228>
80000dcc:	00240413          	addi	s0,s0,2
80000dd0:	03340863          	beq	s0,s3,80000e00 <devscan+0x254>
80000dd4:	00144603          	lbu	a2,1(s0)
80000dd8:	00044583          	lbu	a1,0(s0)
80000ddc:	00090513          	mv	a0,s2
80000de0:	520010ef          	jal	80002300 <printf>
80000de4:	008487b3          	add	a5,s1,s0
80000de8:	01f7f793          	andi	a5,a5,31
80000dec:	fe0790e3          	bnez	a5,80000dcc <devscan+0x220>
80000df0:	000a0513          	mv	a0,s4
80000df4:	00240413          	addi	s0,s0,2
80000df8:	508010ef          	jal	80002300 <printf>
80000dfc:	fd341ce3          	bne	s0,s3,80000dd4 <devscan+0x228>
80000e00:	00002517          	auipc	a0,0x2
80000e04:	aec50513          	addi	a0,a0,-1300 # 800028ec <_etext+0x578>
80000e08:	4f8010ef          	jal	80002300 <printf>
80000e0c:	0000006f          	j	80000e0c <devscan+0x260>

80000e10 <main>:
80000e10:	fe010113          	addi	sp,sp,-32
80000e14:	00112e23          	sw	ra,28(sp)
80000e18:	00054783          	lbu	a5,0(a0)
80000e1c:	01500713          	li	a4,21
80000e20:	f9f78793          	addi	a5,a5,-97 # 7ff9f <_entry_offset+0x7ff9f>
80000e24:	0ff7f793          	zext.b	a5,a5
80000e28:	02f76063          	bltu	a4,a5,80000e48 <main+0x38>
80000e2c:	00002717          	auipc	a4,0x2
80000e30:	e7470713          	addi	a4,a4,-396 # 80002ca0 <dx.1+0x10>
80000e34:	00279793          	slli	a5,a5,0x2
80000e38:	00e787b3          	add	a5,a5,a4
80000e3c:	0007a783          	lw	a5,0(a5)
80000e40:	00e787b3          	add	a5,a5,a4
80000e44:	00078067          	jr	a5
80000e48:	00002517          	auipc	a0,0x2
80000e4c:	ab050513          	addi	a0,a0,-1360 # 800028f8 <_etext+0x584>
80000e50:	00812c23          	sw	s0,24(sp)
80000e54:	00912a23          	sw	s1,20(sp)
80000e58:	01212823          	sw	s2,16(sp)
80000e5c:	01312623          	sw	s3,12(sp)
80000e60:	00002497          	auipc	s1,0x2
80000e64:	e9848493          	addi	s1,s1,-360 # 80002cf8 <tests>
80000e68:	498010ef          	jal	80002300 <printf>
80000e6c:	00000413          	li	s0,0
80000e70:	00002997          	auipc	s3,0x2
80000e74:	aa498993          	addi	s3,s3,-1372 # 80002914 <_etext+0x5a0>
80000e78:	10000913          	li	s2,256
80000e7c:	0004a603          	lw	a2,0(s1)
80000e80:	00060863          	beqz	a2,80000e90 <main+0x80>
80000e84:	00040593          	mv	a1,s0
80000e88:	00098513          	mv	a0,s3
80000e8c:	474010ef          	jal	80002300 <printf>
80000e90:	00140413          	addi	s0,s0,1
80000e94:	00448493          	addi	s1,s1,4
80000e98:	ff2412e3          	bne	s0,s2,80000e7c <main+0x6c>
80000e9c:	01812403          	lw	s0,24(sp)
80000ea0:	01412483          	lw	s1,20(sp)
80000ea4:	01012903          	lw	s2,16(sp)
80000ea8:	00c12983          	lw	s3,12(sp)
80000eac:	01c12083          	lw	ra,28(sp)
80000eb0:	00000513          	li	a0,0
80000eb4:	02010113          	addi	sp,sp,32
80000eb8:	00008067          	ret
80000ebc:	fffff797          	auipc	a5,0xfffff
80000ec0:	67478793          	addi	a5,a5,1652 # 80000530 <audio_test>
80000ec4:	00095717          	auipc	a4,0x95
80000ec8:	a6f72423          	sw	a5,-1432(a4) # 8009592c <entry>
80000ecc:	1f4000ef          	jal	800010c0 <ioe_init>
80000ed0:	e60ff0ef          	jal	80000530 <audio_test>
80000ed4:	fd9ff06f          	j	80000eac <main+0x9c>
80000ed8:	00000797          	auipc	a5,0x0
80000edc:	cd478793          	addi	a5,a5,-812 # 80000bac <devscan>
80000ee0:	00095717          	auipc	a4,0x95
80000ee4:	a4f72623          	sw	a5,-1460(a4) # 8009592c <entry>
80000ee8:	1d8000ef          	jal	800010c0 <ioe_init>
80000eec:	cc1ff0ef          	jal	80000bac <devscan>
80000ef0:	fbdff06f          	j	80000eac <main+0x9c>
80000ef4:	fffff797          	auipc	a5,0xfffff
80000ef8:	11c78793          	addi	a5,a5,284 # 80000010 <hello>
80000efc:	00095717          	auipc	a4,0x95
80000f00:	a2f72823          	sw	a5,-1488(a4) # 8009592c <entry>
80000f04:	90cff0ef          	jal	80000010 <hello>
80000f08:	fa5ff06f          	j	80000eac <main+0x9c>
80000f0c:	00000797          	auipc	a5,0x0
80000f10:	c0478793          	addi	a5,a5,-1020 # 80000b10 <hello_intr>
80000f14:	00095717          	auipc	a4,0x95
80000f18:	a0f72c23          	sw	a5,-1512(a4) # 8009592c <entry>
80000f1c:	1a4000ef          	jal	800010c0 <ioe_init>
80000f20:	00000517          	auipc	a0,0x0
80000f24:	b1450513          	addi	a0,a0,-1260 # 80000a34 <simple_trap>
80000f28:	4f4000ef          	jal	8000141c <cte_init>
80000f2c:	be5ff0ef          	jal	80000b10 <hello_intr>
80000f30:	f7dff06f          	j	80000eac <main+0x9c>
80000f34:	fffff797          	auipc	a5,0xfffff
80000f38:	12878793          	addi	a5,a5,296 # 8000005c <keyboard_test>
80000f3c:	00095717          	auipc	a4,0x95
80000f40:	9ef72823          	sw	a5,-1552(a4) # 8009592c <entry>
80000f44:	17c000ef          	jal	800010c0 <ioe_init>
80000f48:	914ff0ef          	jal	8000005c <keyboard_test>
80000f4c:	f61ff06f          	j	80000eac <main+0x9c>
80000f50:	00000797          	auipc	a5,0x0
80000f54:	c3478793          	addi	a5,a5,-972 # 80000b84 <mp_print>
80000f58:	00078513          	mv	a0,a5
80000f5c:	00095717          	auipc	a4,0x95
80000f60:	9cf72823          	sw	a5,-1584(a4) # 8009592c <entry>
80000f64:	3a0000ef          	jal	80001304 <mpe_init>
80000f68:	c1dff0ef          	jal	80000b84 <mp_print>
80000f6c:	f41ff06f          	j	80000eac <main+0x9c>
80000f70:	fffff797          	auipc	a5,0xfffff
80000f74:	46478793          	addi	a5,a5,1124 # 800003d4 <vm_test>
80000f78:	fffff517          	auipc	a0,0xfffff
80000f7c:	31450513          	addi	a0,a0,788 # 8000028c <vm_handler>
80000f80:	00095717          	auipc	a4,0x95
80000f84:	9af72623          	sw	a5,-1620(a4) # 8009592c <entry>
80000f88:	494000ef          	jal	8000141c <cte_init>
80000f8c:	fffff597          	auipc	a1,0xfffff
80000f90:	2fc58593          	addi	a1,a1,764 # 80000288 <simple_pgfree>
80000f94:	fffff517          	auipc	a0,0xfffff
80000f98:	2b050513          	addi	a0,a0,688 # 80000244 <simple_pgalloc>
80000f9c:	5e4000ef          	jal	80001580 <vme_init>
80000fa0:	c34ff0ef          	jal	800003d4 <vm_test>
80000fa4:	f09ff06f          	j	80000eac <main+0x9c>
80000fa8:	fffff797          	auipc	a5,0xfffff
80000fac:	1c078793          	addi	a5,a5,448 # 80000168 <rtc_test>
80000fb0:	00095717          	auipc	a4,0x95
80000fb4:	96f72e23          	sw	a5,-1668(a4) # 8009592c <entry>
80000fb8:	108000ef          	jal	800010c0 <ioe_init>
80000fbc:	9acff0ef          	jal	80000168 <rtc_test>
80000fc0:	eedff06f          	j	80000eac <main+0x9c>
80000fc4:	00000797          	auipc	a5,0x0
80000fc8:	9cc78793          	addi	a5,a5,-1588 # 80000990 <video_test>
80000fcc:	00095717          	auipc	a4,0x95
80000fd0:	96f72023          	sw	a5,-1696(a4) # 8009592c <entry>
80000fd4:	0ec000ef          	jal	800010c0 <ioe_init>
80000fd8:	9b9ff0ef          	jal	80000990 <video_test>
80000fdc:	ed1ff06f          	j	80000eac <main+0x9c>

80000fe0 <putch>:
80000fe0:	a0000737          	lui	a4,0xa0000
80000fe4:	3fd70713          	addi	a4,a4,1021 # a00003fd <_end+0x1ff623fd>
80000fe8:	00074783          	lbu	a5,0(a4)
80000fec:	0207f793          	andi	a5,a5,32
80000ff0:	fe078ce3          	beqz	a5,80000fe8 <putch+0x8>
80000ff4:	a00007b7          	lui	a5,0xa0000
80000ff8:	3ea78c23          	sb	a0,1016(a5) # a00003f8 <_end+0x1ff623f8>
80000ffc:	00008067          	ret

80001000 <halt>:
80001000:	00050513          	mv	a0,a0
80001004:	00100073          	ebreak
80001008:	0000006f          	j	80001008 <halt+0x8>

8000100c <_trm_init>:
8000100c:	ff010113          	addi	sp,sp,-16
80001010:	00002517          	auipc	a0,0x2
80001014:	0e850513          	addi	a0,a0,232 # 800030f8 <mainargs>
80001018:	00112623          	sw	ra,12(sp)
8000101c:	df5ff0ef          	jal	80000e10 <main>
80001020:	00050513          	mv	a0,a0
80001024:	00100073          	ebreak
80001028:	0000006f          	j	80001028 <_trm_init+0x1c>

8000102c <__am_timer_config>:
8000102c:	00100793          	li	a5,1
80001030:	00f50023          	sb	a5,0(a0)
80001034:	00f500a3          	sb	a5,1(a0)
80001038:	00008067          	ret

8000103c <__am_input_config>:
8000103c:	00100793          	li	a5,1
80001040:	00f50023          	sb	a5,0(a0)
80001044:	00008067          	ret

80001048 <__am_uart_config>:
80001048:	00050023          	sb	zero,0(a0)
8000104c:	00008067          	ret

80001050 <__am_net_config>:
80001050:	00050023          	sb	zero,0(a0)
80001054:	00008067          	ret

80001058 <fail>:
80001058:	ff010113          	addi	sp,sp,-16
8000105c:	00812423          	sw	s0,8(sp)
80001060:	00112623          	sw	ra,12(sp)
80001064:	00001417          	auipc	s0,0x1
80001068:	74c40413          	addi	s0,s0,1868 # 800027b0 <_etext+0x43c>
8000106c:	04100513          	li	a0,65
80001070:	f71ff0ef          	jal	80000fe0 <putch>
80001074:	00144503          	lbu	a0,1(s0)
80001078:	00140413          	addi	s0,s0,1
8000107c:	fe051ae3          	bnez	a0,80001070 <fail+0x18>
80001080:	00002417          	auipc	s0,0x2
80001084:	95c40413          	addi	s0,s0,-1700 # 800029dc <_etext+0x668>
80001088:	06100513          	li	a0,97
8000108c:	f55ff0ef          	jal	80000fe0 <putch>
80001090:	00144503          	lbu	a0,1(s0)
80001094:	00140413          	addi	s0,s0,1
80001098:	fe051ae3          	bnez	a0,8000108c <fail+0x34>
8000109c:	00002417          	auipc	s0,0x2
800010a0:	95c40413          	addi	s0,s0,-1700 # 800029f8 <_etext+0x684>
800010a4:	02000513          	li	a0,32
800010a8:	f39ff0ef          	jal	80000fe0 <putch>
800010ac:	00144503          	lbu	a0,1(s0)
800010b0:	00140413          	addi	s0,s0,1
800010b4:	fe051ae3          	bnez	a0,800010a8 <fail+0x50>
800010b8:	00100513          	li	a0,1
800010bc:	f45ff0ef          	jal	80001000 <halt>

800010c0 <ioe_init>:
800010c0:	ff010113          	addi	sp,sp,-16
800010c4:	00112623          	sw	ra,12(sp)
800010c8:	00010797          	auipc	a5,0x10
800010cc:	02478793          	addi	a5,a5,36 # 800110ec <lut>
800010d0:	00010697          	auipc	a3,0x10
800010d4:	21c68693          	addi	a3,a3,540 # 800112ec <first_trap>
800010d8:	00000617          	auipc	a2,0x0
800010dc:	f8060613          	addi	a2,a2,-128 # 80001058 <fail>
800010e0:	00c0006f          	j	800010ec <ioe_init+0x2c>
800010e4:	00478793          	addi	a5,a5,4
800010e8:	00d78c63          	beq	a5,a3,80001100 <ioe_init+0x40>
800010ec:	0007a703          	lw	a4,0(a5)
800010f0:	fe071ae3          	bnez	a4,800010e4 <ioe_init+0x24>
800010f4:	00c7a023          	sw	a2,0(a5)
800010f8:	00478793          	addi	a5,a5,4
800010fc:	fed798e3          	bne	a5,a3,800010ec <ioe_init+0x2c>
80001100:	0d0000ef          	jal	800011d0 <__am_gpu_init>
80001104:	050000ef          	jal	80001154 <__am_timer_init>
80001108:	1d0000ef          	jal	800012d8 <__am_audio_init>
8000110c:	00c12083          	lw	ra,12(sp)
80001110:	00100513          	li	a0,1
80001114:	01010113          	addi	sp,sp,16
80001118:	00008067          	ret

8000111c <ioe_read>:
8000111c:	00251513          	slli	a0,a0,0x2
80001120:	00010797          	auipc	a5,0x10
80001124:	fcc78793          	addi	a5,a5,-52 # 800110ec <lut>
80001128:	00a787b3          	add	a5,a5,a0
8000112c:	0007a783          	lw	a5,0(a5)
80001130:	00058513          	mv	a0,a1
80001134:	00078067          	jr	a5

80001138 <ioe_write>:
80001138:	00251513          	slli	a0,a0,0x2
8000113c:	00010797          	auipc	a5,0x10
80001140:	fb078793          	addi	a5,a5,-80 # 800110ec <lut>
80001144:	00a787b3          	add	a5,a5,a0
80001148:	0007a783          	lw	a5,0(a5)
8000114c:	00058513          	mv	a0,a1
80001150:	00078067          	jr	a5

80001154 <__am_timer_init>:
80001154:	a0000737          	lui	a4,0xa0000
80001158:	a00007b7          	lui	a5,0xa0000
8000115c:	04072423          	sw	zero,72(a4) # a0000048 <_end+0x1ff62048>
80001160:	0407a623          	sw	zero,76(a5) # a000004c <_end+0x1ff6204c>
80001164:	00008067          	ret

80001168 <__am_timer_uptime>:
80001168:	a0000737          	lui	a4,0xa0000
8000116c:	a00007b7          	lui	a5,0xa0000
80001170:	04870713          	addi	a4,a4,72 # a0000048 <_end+0x1ff62048>
80001174:	04c7a683          	lw	a3,76(a5) # a000004c <_end+0x1ff6204c>
80001178:	00072703          	lw	a4,0(a4)
8000117c:	00d52223          	sw	a3,4(a0)
80001180:	00e52023          	sw	a4,0(a0)
80001184:	00008067          	ret

80001188 <__am_timer_rtc>:
80001188:	76c00793          	li	a5,1900
8000118c:	00052a23          	sw	zero,20(a0)
80001190:	00052823          	sw	zero,16(a0)
80001194:	00052623          	sw	zero,12(a0)
80001198:	00052423          	sw	zero,8(a0)
8000119c:	00052223          	sw	zero,4(a0)
800011a0:	00f52023          	sw	a5,0(a0)
800011a4:	00008067          	ret

800011a8 <__am_input_keybrd>:
800011a8:	a00006b7          	lui	a3,0xa0000
800011ac:	0606a783          	lw	a5,96(a3) # a0000060 <_end+0x1ff62060>
800011b0:	ffff8637          	lui	a2,0xffff8
800011b4:	fff60613          	addi	a2,a2,-1 # ffff7fff <_end+0x7ff59fff>
800011b8:	00f7d713          	srli	a4,a5,0xf
800011bc:	00177713          	andi	a4,a4,1
800011c0:	00c7f7b3          	and	a5,a5,a2
800011c4:	00e50023          	sb	a4,0(a0)
800011c8:	00f52223          	sw	a5,4(a0)
800011cc:	00008067          	ret

800011d0 <__am_gpu_init>:
800011d0:	00008067          	ret

800011d4 <__am_gpu_config>:
800011d4:	a0000737          	lui	a4,0xa0000
800011d8:	10072783          	lw	a5,256(a4) # a0000100 <_end+0x1ff62100>
800011dc:	00100713          	li	a4,1
800011e0:	00e51023          	sh	a4,0(a0)
800011e4:	0107d693          	srli	a3,a5,0x10
800011e8:	01079793          	slli	a5,a5,0x10
800011ec:	0107d793          	srli	a5,a5,0x10
800011f0:	00d52223          	sw	a3,4(a0)
800011f4:	00f52423          	sw	a5,8(a0)
800011f8:	00052623          	sw	zero,12(a0)
800011fc:	00008067          	ret

80001200 <__am_gpu_fbdraw>:
80001200:	01454383          	lbu	t2,20(a0)
80001204:	00052f03          	lw	t5,0(a0)
80001208:	00452883          	lw	a7,4(a0)
8000120c:	00c52e03          	lw	t3,12(a0)
80001210:	01052703          	lw	a4,16(a0)
80001214:	08038a63          	beqz	t2,800012a8 <__am_gpu_fbdraw+0xa8>
80001218:	a00006b7          	lui	a3,0xa0000
8000121c:	1006a783          	lw	a5,256(a3) # a0000100 <_end+0x1ff62100>
80001220:	00852f83          	lw	t6,8(a0)
80001224:	00e882b3          	add	t0,a7,a4
80001228:	0107d793          	srli	a5,a5,0x10
8000122c:	06e05663          	blez	a4,80001298 <__am_gpu_fbdraw+0x98>
80001230:	02f885b3          	mul	a1,a7,a5
80001234:	41c787b3          	sub	a5,a5,t3
80001238:	01cf0833          	add	a6,t5,t3
8000123c:	00279e93          	slli	t4,a5,0x2
80001240:	00000313          	li	t1,0
80001244:	a1000537          	lui	a0,0xa1000
80001248:	01e585b3          	add	a1,a1,t5
8000124c:	00259593          	slli	a1,a1,0x2
80001250:	41f585b3          	sub	a1,a1,t6
80001254:	00231793          	slli	a5,t1,0x2
80001258:	00ff87b3          	add	a5,t6,a5
8000125c:	000f0693          	mv	a3,t5
80001260:	03c05063          	blez	t3,80001280 <__am_gpu_fbdraw+0x80>
80001264:	0007a603          	lw	a2,0(a5)
80001268:	00b78733          	add	a4,a5,a1
8000126c:	00e50733          	add	a4,a0,a4
80001270:	00c72023          	sw	a2,0(a4)
80001274:	00168693          	addi	a3,a3,1
80001278:	00478793          	addi	a5,a5,4
8000127c:	ff06c4e3          	blt	a3,a6,80001264 <__am_gpu_fbdraw+0x64>
80001280:	00188893          	addi	a7,a7,1
80001284:	01c30333          	add	t1,t1,t3
80001288:	01d585b3          	add	a1,a1,t4
8000128c:	fc58c4e3          	blt	a7,t0,80001254 <__am_gpu_fbdraw+0x54>
80001290:	00039463          	bnez	t2,80001298 <__am_gpu_fbdraw+0x98>
80001294:	00008067          	ret
80001298:	a00007b7          	lui	a5,0xa0000
8000129c:	00100713          	li	a4,1
800012a0:	10e7a223          	sw	a4,260(a5) # a0000104 <_end+0x1ff62104>
800012a4:	00008067          	ret
800012a8:	fe0e06e3          	beqz	t3,80001294 <__am_gpu_fbdraw+0x94>
800012ac:	fe0704e3          	beqz	a4,80001294 <__am_gpu_fbdraw+0x94>
800012b0:	a00006b7          	lui	a3,0xa0000
800012b4:	1006a783          	lw	a5,256(a3) # a0000100 <_end+0x1ff62100>
800012b8:	00852f83          	lw	t6,8(a0) # a1000008 <_end+0x20f62008>
800012bc:	00e882b3          	add	t0,a7,a4
800012c0:	0107d793          	srli	a5,a5,0x10
800012c4:	f6e046e3          	bgtz	a4,80001230 <__am_gpu_fbdraw+0x30>
800012c8:	00008067          	ret

800012cc <__am_gpu_status>:
800012cc:	00100793          	li	a5,1
800012d0:	00f50023          	sb	a5,0(a0)
800012d4:	00008067          	ret

800012d8 <__am_audio_init>:
800012d8:	00008067          	ret

800012dc <__am_audio_config>:
800012dc:	00050023          	sb	zero,0(a0)
800012e0:	00008067          	ret

800012e4 <__am_audio_ctrl>:
800012e4:	00008067          	ret

800012e8 <__am_audio_status>:
800012e8:	00052023          	sw	zero,0(a0)
800012ec:	00008067          	ret

800012f0 <__am_audio_play>:
800012f0:	00008067          	ret

800012f4 <__am_disk_config>:
800012f4:	00050023          	sb	zero,0(a0)
800012f8:	00008067          	ret

800012fc <__am_disk_status>:
800012fc:	00008067          	ret

80001300 <__am_disk_blkio>:
80001300:	00008067          	ret

80001304 <mpe_init>:
80001304:	ff010113          	addi	sp,sp,-16
80001308:	00812423          	sw	s0,8(sp)
8000130c:	00112623          	sw	ra,12(sp)
80001310:	000500e7          	jalr	a0
80001314:	00001417          	auipc	s0,0x1
80001318:	49c40413          	addi	s0,s0,1180 # 800027b0 <_etext+0x43c>
8000131c:	04100513          	li	a0,65
80001320:	cc1ff0ef          	jal	80000fe0 <putch>
80001324:	00144503          	lbu	a0,1(s0)
80001328:	00140413          	addi	s0,s0,1
8000132c:	fe051ae3          	bnez	a0,80001320 <mpe_init+0x1c>
80001330:	00001417          	auipc	s0,0x1
80001334:	71440413          	addi	s0,s0,1812 # 80002a44 <_etext+0x6d0>
80001338:	04d00513          	li	a0,77
8000133c:	ca5ff0ef          	jal	80000fe0 <putch>
80001340:	00144503          	lbu	a0,1(s0)
80001344:	00140413          	addi	s0,s0,1
80001348:	fe051ae3          	bnez	a0,8000133c <mpe_init+0x38>
8000134c:	00001417          	auipc	s0,0x1
80001350:	70c40413          	addi	s0,s0,1804 # 80002a58 <_etext+0x6e4>
80001354:	02000513          	li	a0,32
80001358:	c89ff0ef          	jal	80000fe0 <putch>
8000135c:	00144503          	lbu	a0,1(s0)
80001360:	00140413          	addi	s0,s0,1
80001364:	fe051ae3          	bnez	a0,80001358 <mpe_init+0x54>
80001368:	00100513          	li	a0,1
8000136c:	c95ff0ef          	jal	80001000 <halt>

80001370 <cpu_current>:
80001370:	00000513          	li	a0,0
80001374:	00008067          	ret

80001378 <__am_irq_handle>:
80001378:	00094717          	auipc	a4,0x94
8000137c:	5b872703          	lw	a4,1464(a4) # 80095930 <user_handler>
80001380:	00050593          	mv	a1,a0
80001384:	06070a63          	beqz	a4,800013f8 <__am_irq_handle+0x80>
80001388:	07852603          	lw	a2,120(a0)
8000138c:	fd010113          	addi	sp,sp,-48
80001390:	02112623          	sw	ra,44(sp)
80001394:	00161793          	slli	a5,a2,0x1
80001398:	00012a23          	sw	zero,20(sp)
8000139c:	00012c23          	sw	zero,24(sp)
800013a0:	00012e23          	sw	zero,28(sp)
800013a4:	0017d793          	srli	a5,a5,0x1
800013a8:	00800513          	li	a0,8
800013ac:	00100693          	li	a3,1
800013b0:	00a78a63          	beq	a5,a0,800013c4 <__am_irq_handle+0x4c>
800013b4:	00b00513          	li	a0,11
800013b8:	00a78663          	beq	a5,a0,800013c4 <__am_irq_handle+0x4c>
800013bc:	00c12a23          	sw	a2,20(sp)
800013c0:	00400693          	li	a3,4
800013c4:	01412783          	lw	a5,20(sp)
800013c8:	00d12023          	sw	a3,0(sp)
800013cc:	00010513          	mv	a0,sp
800013d0:	00f12223          	sw	a5,4(sp)
800013d4:	01812783          	lw	a5,24(sp)
800013d8:	00f12423          	sw	a5,8(sp)
800013dc:	01c12783          	lw	a5,28(sp)
800013e0:	00f12623          	sw	a5,12(sp)
800013e4:	000700e7          	jalr	a4
800013e8:	00050a63          	beqz	a0,800013fc <__am_irq_handle+0x84>
800013ec:	02c12083          	lw	ra,44(sp)
800013f0:	03010113          	addi	sp,sp,48
800013f4:	00008067          	ret
800013f8:	00008067          	ret
800013fc:	01c00613          	li	a2,28
80001400:	00001597          	auipc	a1,0x1
80001404:	6a058593          	addi	a1,a1,1696 # 80002aa0 <_etext+0x72c>
80001408:	00001517          	auipc	a0,0x1
8000140c:	26050513          	addi	a0,a0,608 # 80002668 <_etext+0x2f4>
80001410:	6f1000ef          	jal	80002300 <printf>
80001414:	00100513          	li	a0,1
80001418:	be9ff0ef          	jal	80001000 <halt>

8000141c <cte_init>:
8000141c:	00050793          	mv	a5,a0
80001420:	00000717          	auipc	a4,0x0
80001424:	02870713          	addi	a4,a4,40 # 80001448 <__am_asm_trap>
80001428:	30571073          	csrw	mtvec,a4
8000142c:	00100513          	li	a0,1
80001430:	00094717          	auipc	a4,0x94
80001434:	50f72023          	sw	a5,1280(a4) # 80095930 <user_handler>
80001438:	00008067          	ret

8000143c <yield>:
8000143c:	00000073          	ecall
80001440:	00008067          	ret

80001444 <iset>:
80001444:	00008067          	ret

80001448 <__am_asm_trap>:
80001448:	f7410113          	addi	sp,sp,-140
8000144c:	00112223          	sw	ra,4(sp)
80001450:	00312623          	sw	gp,12(sp)
80001454:	00412823          	sw	tp,16(sp)
80001458:	00512a23          	sw	t0,20(sp)
8000145c:	00612c23          	sw	t1,24(sp)
80001460:	00712e23          	sw	t2,28(sp)
80001464:	02812023          	sw	s0,32(sp)
80001468:	02912223          	sw	s1,36(sp)
8000146c:	02a12423          	sw	a0,40(sp)
80001470:	02b12623          	sw	a1,44(sp)
80001474:	02c12823          	sw	a2,48(sp)
80001478:	02d12a23          	sw	a3,52(sp)
8000147c:	02e12c23          	sw	a4,56(sp)
80001480:	02f12e23          	sw	a5,60(sp)
80001484:	05012023          	sw	a6,64(sp)
80001488:	05112223          	sw	a7,68(sp)
8000148c:	05212423          	sw	s2,72(sp)
80001490:	05312623          	sw	s3,76(sp)
80001494:	05412823          	sw	s4,80(sp)
80001498:	05512a23          	sw	s5,84(sp)
8000149c:	05612c23          	sw	s6,88(sp)
800014a0:	05712e23          	sw	s7,92(sp)
800014a4:	07812023          	sw	s8,96(sp)
800014a8:	07912223          	sw	s9,100(sp)
800014ac:	07a12423          	sw	s10,104(sp)
800014b0:	07b12623          	sw	s11,108(sp)
800014b4:	07c12823          	sw	t3,112(sp)
800014b8:	07d12a23          	sw	t4,116(sp)
800014bc:	07e12c23          	sw	t5,120(sp)
800014c0:	07f12e23          	sw	t6,124(sp)
800014c4:	342022f3          	csrr	t0,mcause
800014c8:	30002373          	csrr	t1,mstatus
800014cc:	341023f3          	csrr	t2,mepc
800014d0:	08512023          	sw	t0,128(sp)
800014d4:	08612223          	sw	t1,132(sp)
800014d8:	08712423          	sw	t2,136(sp)
800014dc:	00020537          	lui	a0,0x20
800014e0:	00a36333          	or	t1,t1,a0
800014e4:	30031073          	csrw	mstatus,t1
800014e8:	00010513          	mv	a0,sp
800014ec:	e8dff0ef          	jal	80001378 <__am_irq_handle>
800014f0:	08412303          	lw	t1,132(sp)
800014f4:	08812383          	lw	t2,136(sp)
800014f8:	30031073          	csrw	mstatus,t1
800014fc:	34139073          	csrw	mepc,t2
80001500:	00412083          	lw	ra,4(sp)
80001504:	00c12183          	lw	gp,12(sp)
80001508:	01012203          	lw	tp,16(sp)
8000150c:	01412283          	lw	t0,20(sp)
80001510:	01812303          	lw	t1,24(sp)
80001514:	01c12383          	lw	t2,28(sp)
80001518:	02012403          	lw	s0,32(sp)
8000151c:	02412483          	lw	s1,36(sp)
80001520:	02812503          	lw	a0,40(sp)
80001524:	02c12583          	lw	a1,44(sp)
80001528:	03012603          	lw	a2,48(sp)
8000152c:	03412683          	lw	a3,52(sp)
80001530:	03812703          	lw	a4,56(sp)
80001534:	03c12783          	lw	a5,60(sp)
80001538:	04012803          	lw	a6,64(sp)
8000153c:	04412883          	lw	a7,68(sp)
80001540:	04812903          	lw	s2,72(sp)
80001544:	04c12983          	lw	s3,76(sp)
80001548:	05012a03          	lw	s4,80(sp)
8000154c:	05412a83          	lw	s5,84(sp)
80001550:	05812b03          	lw	s6,88(sp)
80001554:	05c12b83          	lw	s7,92(sp)
80001558:	06012c03          	lw	s8,96(sp)
8000155c:	06412c83          	lw	s9,100(sp)
80001560:	06812d03          	lw	s10,104(sp)
80001564:	06c12d83          	lw	s11,108(sp)
80001568:	07012e03          	lw	t3,112(sp)
8000156c:	07412e83          	lw	t4,116(sp)
80001570:	07812f03          	lw	t5,120(sp)
80001574:	07c12f83          	lw	t6,124(sp)
80001578:	08c10113          	addi	sp,sp,140
8000157c:	30200073          	mret

80001580 <vme_init>:
80001580:	ff010113          	addi	sp,sp,-16
80001584:	00112623          	sw	ra,12(sp)
80001588:	00050793          	mv	a5,a0
8000158c:	00001537          	lui	a0,0x1
80001590:	00094717          	auipc	a4,0x94
80001594:	3af72423          	sw	a5,936(a4) # 80095938 <pgalloc_usr>
80001598:	000780e7          	jalr	a5
8000159c:	00094717          	auipc	a4,0x94
800015a0:	f6a72e23          	sw	a0,-132(a4) # 80095518 <kas+0xc>
800015a4:	00c55793          	srli	a5,a0,0xc
800015a8:	80000737          	lui	a4,0x80000
800015ac:	00e7e7b3          	or	a5,a5,a4
800015b0:	18079073          	csrw	satp,a5
800015b4:	00c12083          	lw	ra,12(sp)
800015b8:	00100793          	li	a5,1
800015bc:	00094717          	auipc	a4,0x94
800015c0:	36f72c23          	sw	a5,888(a4) # 80095934 <vme_enable>
800015c4:	00100513          	li	a0,1
800015c8:	01010113          	addi	sp,sp,16
800015cc:	00008067          	ret

800015d0 <protect>:
800015d0:	ff010113          	addi	sp,sp,-16
800015d4:	00812423          	sw	s0,8(sp)
800015d8:	00112623          	sw	ra,12(sp)
800015dc:	00050413          	mv	s0,a0
800015e0:	00094797          	auipc	a5,0x94
800015e4:	3587a783          	lw	a5,856(a5) # 80095938 <pgalloc_usr>
800015e8:	00001537          	lui	a0,0x1
800015ec:	000780e7          	jalr	a5
800015f0:	400007b7          	lui	a5,0x40000
800015f4:	00f42223          	sw	a5,4(s0)
800015f8:	800007b7          	lui	a5,0x80000
800015fc:	00f42423          	sw	a5,8(s0)
80001600:	000017b7          	lui	a5,0x1
80001604:	00a42623          	sw	a0,12(s0)
80001608:	00f42023          	sw	a5,0(s0)
8000160c:	00812403          	lw	s0,8(sp)
80001610:	00c12083          	lw	ra,12(sp)
80001614:	00094597          	auipc	a1,0x94
80001618:	f045a583          	lw	a1,-252(a1) # 80095518 <kas+0xc>
8000161c:	00001637          	lui	a2,0x1
80001620:	01010113          	addi	sp,sp,16
80001624:	5700006f          	j	80001b94 <memcpy>

80001628 <map>:
80001628:	00008067          	ret

8000162c <ucontext>:
8000162c:	ff010113          	addi	sp,sp,-16
80001630:	00000513          	li	a0,0
80001634:	01010113          	addi	sp,sp,16
80001638:	00008067          	ret

8000163c <__udivmoddi4>:
8000163c:	fd010113          	addi	sp,sp,-48
80001640:	01312e23          	sw	s3,28(sp)
80001644:	01412c23          	sw	s4,24(sp)
80001648:	01612823          	sw	s6,16(sp)
8000164c:	01712623          	sw	s7,12(sp)
80001650:	02112623          	sw	ra,44(sp)
80001654:	00068b13          	mv	s6,a3
80001658:	00050993          	mv	s3,a0
8000165c:	00060a13          	mv	s4,a2
80001660:	00070b93          	mv	s7,a4
80001664:	02059e63          	bnez	a1,800016a0 <__udivmoddi4+0x64>
80001668:	1a069263          	bnez	a3,8000180c <__udivmoddi4+0x1d0>
8000166c:	00070863          	beqz	a4,8000167c <__udivmoddi4+0x40>
80001670:	02c577b3          	remu	a5,a0,a2
80001674:	00072223          	sw	zero,4(a4)
80001678:	00f72023          	sw	a5,0(a4)
8000167c:	0349d533          	divu	a0,s3,s4
80001680:	00000593          	li	a1,0
80001684:	02c12083          	lw	ra,44(sp)
80001688:	01c12983          	lw	s3,28(sp)
8000168c:	01812a03          	lw	s4,24(sp)
80001690:	01012b03          	lw	s6,16(sp)
80001694:	00c12b83          	lw	s7,12(sp)
80001698:	03010113          	addi	sp,sp,48
8000169c:	00008067          	ret
800016a0:	02912223          	sw	s1,36(sp)
800016a4:	03212023          	sw	s2,32(sp)
800016a8:	01512a23          	sw	s5,20(sp)
800016ac:	02812423          	sw	s0,40(sp)
800016b0:	00058913          	mv	s2,a1
800016b4:	00058493          	mv	s1,a1
800016b8:	00060a93          	mv	s5,a2
800016bc:	0e061e63          	bnez	a2,800017b8 <__udivmoddi4+0x17c>
800016c0:	1c068063          	beqz	a3,80001880 <__udivmoddi4+0x244>
800016c4:	22050a63          	beqz	a0,800018f8 <__udivmoddi4+0x2bc>
800016c8:	fff68793          	addi	a5,a3,-1
800016cc:	00d7f733          	and	a4,a5,a3
800016d0:	28070263          	beqz	a4,80001954 <__udivmoddi4+0x318>
800016d4:	00068513          	mv	a0,a3
800016d8:	2d4000ef          	jal	800019ac <__clzsi2>
800016dc:	00050413          	mv	s0,a0
800016e0:	00090513          	mv	a0,s2
800016e4:	2c8000ef          	jal	800019ac <__clzsi2>
800016e8:	40a406b3          	sub	a3,s0,a0
800016ec:	01e00793          	li	a5,30
800016f0:	18d7ea63          	bltu	a5,a3,80001884 <__udivmoddi4+0x248>
800016f4:	00168693          	addi	a3,a3,1
800016f8:	02000793          	li	a5,32
800016fc:	40d787b3          	sub	a5,a5,a3
80001700:	00f91633          	sll	a2,s2,a5
80001704:	00d9d733          	srl	a4,s3,a3
80001708:	00d95433          	srl	s0,s2,a3
8000170c:	00f99833          	sll	a6,s3,a5
80001710:	00e664b3          	or	s1,a2,a4
80001714:	00000713          	li	a4,0
80001718:	01f85793          	srli	a5,a6,0x1f
8000171c:	00149593          	slli	a1,s1,0x1
80001720:	00f5e5b3          	or	a1,a1,a5
80001724:	01f4d493          	srli	s1,s1,0x1f
80001728:	00141793          	slli	a5,s0,0x1
8000172c:	0097e7b3          	or	a5,a5,s1
80001730:	40ba0333          	sub	t1,s4,a1
80001734:	006a3633          	sltu	a2,s4,t1
80001738:	40fb08b3          	sub	a7,s6,a5
8000173c:	40c888b3          	sub	a7,a7,a2
80001740:	00133313          	seqz	t1,t1
80001744:	406888b3          	sub	a7,a7,t1
80001748:	41f8d313          	srai	t1,a7,0x1f
8000174c:	014374b3          	and	s1,t1,s4
80001750:	409584b3          	sub	s1,a1,s1
80001754:	01637333          	and	t1,t1,s6
80001758:	01fad613          	srli	a2,s5,0x1f
8000175c:	00181813          	slli	a6,a6,0x1
80001760:	001a9a93          	slli	s5,s5,0x1
80001764:	0095b5b3          	sltu	a1,a1,s1
80001768:	406787b3          	sub	a5,a5,t1
8000176c:	fff68693          	addi	a3,a3,-1
80001770:	00eaeab3          	or	s5,s5,a4
80001774:	00c86833          	or	a6,a6,a2
80001778:	01f8d713          	srli	a4,a7,0x1f
8000177c:	40b78433          	sub	s0,a5,a1
80001780:	f8069ce3          	bnez	a3,80001718 <__udivmoddi4+0xdc>
80001784:	000b8663          	beqz	s7,80001790 <__udivmoddi4+0x154>
80001788:	009ba023          	sw	s1,0(s7)
8000178c:	008ba223          	sw	s0,4(s7)
80001790:	01fad913          	srli	s2,s5,0x1f
80001794:	001a9993          	slli	s3,s5,0x1
80001798:	00181793          	slli	a5,a6,0x1
8000179c:	00f965b3          	or	a1,s2,a5
800017a0:	02812403          	lw	s0,40(sp)
800017a4:	02412483          	lw	s1,36(sp)
800017a8:	02012903          	lw	s2,32(sp)
800017ac:	01412a83          	lw	s5,20(sp)
800017b0:	00e9e533          	or	a0,s3,a4
800017b4:	ed1ff06f          	j	80001684 <__udivmoddi4+0x48>
800017b8:	06068663          	beqz	a3,80001824 <__udivmoddi4+0x1e8>
800017bc:	00068513          	mv	a0,a3
800017c0:	1ec000ef          	jal	800019ac <__clzsi2>
800017c4:	00050413          	mv	s0,a0
800017c8:	00090513          	mv	a0,s2
800017cc:	1e0000ef          	jal	800019ac <__clzsi2>
800017d0:	40a406b3          	sub	a3,s0,a0
800017d4:	01f00793          	li	a5,31
800017d8:	0ad7e663          	bltu	a5,a3,80001884 <__udivmoddi4+0x248>
800017dc:	00168693          	addi	a3,a3,1
800017e0:	02000793          	li	a5,32
800017e4:	00098813          	mv	a6,s3
800017e8:	18f68663          	beq	a3,a5,80001974 <__udivmoddi4+0x338>
800017ec:	40d787b3          	sub	a5,a5,a3
800017f0:	00d9d733          	srl	a4,s3,a3
800017f4:	00f91633          	sll	a2,s2,a5
800017f8:	00d95433          	srl	s0,s2,a3
800017fc:	00f99833          	sll	a6,s3,a5
80001800:	00e664b3          	or	s1,a2,a4
80001804:	00000a93          	li	s5,0
80001808:	f0dff06f          	j	80001714 <__udivmoddi4+0xd8>
8000180c:	00070663          	beqz	a4,80001818 <__udivmoddi4+0x1dc>
80001810:	00aba023          	sw	a0,0(s7)
80001814:	00072223          	sw	zero,4(a4)
80001818:	00000513          	li	a0,0
8000181c:	00000593          	li	a1,0
80001820:	e65ff06f          	j	80001684 <__udivmoddi4+0x48>
80001824:	fff60793          	addi	a5,a2,-1 # fff <_entry_offset+0xfff>
80001828:	00c7f733          	and	a4,a5,a2
8000182c:	06071c63          	bnez	a4,800018a4 <__udivmoddi4+0x268>
80001830:	000b8863          	beqz	s7,80001840 <__udivmoddi4+0x204>
80001834:	00a7f7b3          	and	a5,a5,a0
80001838:	00fba023          	sw	a5,0(s7)
8000183c:	000ba223          	sw	zero,4(s7)
80001840:	00100793          	li	a5,1
80001844:	0efa0063          	beq	s4,a5,80001924 <__udivmoddi4+0x2e8>
80001848:	000a0513          	mv	a0,s4
8000184c:	1f0000ef          	jal	80001a3c <__ctzsi2>
80001850:	02000713          	li	a4,32
80001854:	40a70733          	sub	a4,a4,a0
80001858:	00050793          	mv	a5,a0
8000185c:	00e91733          	sll	a4,s2,a4
80001860:	00a9d833          	srl	a6,s3,a0
80001864:	00f955b3          	srl	a1,s2,a5
80001868:	02812403          	lw	s0,40(sp)
8000186c:	02412483          	lw	s1,36(sp)
80001870:	02012903          	lw	s2,32(sp)
80001874:	01412a83          	lw	s5,20(sp)
80001878:	01076533          	or	a0,a4,a6
8000187c:	e09ff06f          	j	80001684 <__udivmoddi4+0x48>
80001880:	00100073          	ebreak
80001884:	0a0b8e63          	beqz	s7,80001940 <__udivmoddi4+0x304>
80001888:	012ba223          	sw	s2,4(s7)
8000188c:	02812403          	lw	s0,40(sp)
80001890:	02412483          	lw	s1,36(sp)
80001894:	02012903          	lw	s2,32(sp)
80001898:	01412a83          	lw	s5,20(sp)
8000189c:	013ba023          	sw	s3,0(s7)
800018a0:	f79ff06f          	j	80001818 <__udivmoddi4+0x1dc>
800018a4:	00060513          	mv	a0,a2
800018a8:	00068413          	mv	s0,a3
800018ac:	100000ef          	jal	800019ac <__clzsi2>
800018b0:	00050913          	mv	s2,a0
800018b4:	00048513          	mv	a0,s1
800018b8:	0f4000ef          	jal	800019ac <__clzsi2>
800018bc:	40a90533          	sub	a0,s2,a0
800018c0:	02150693          	addi	a3,a0,33 # 1021 <_entry_offset+0x1021>
800018c4:	02000793          	li	a5,32
800018c8:	00098813          	mv	a6,s3
800018cc:	00000a93          	li	s5,0
800018d0:	e4f682e3          	beq	a3,a5,80001714 <__udivmoddi4+0xd8>
800018d4:	01f00713          	li	a4,31
800018d8:	0ad76463          	bltu	a4,a3,80001980 <__udivmoddi4+0x344>
800018dc:	40d78733          	sub	a4,a5,a3
800018e0:	00d4d433          	srl	s0,s1,a3
800018e4:	00d9d7b3          	srl	a5,s3,a3
800018e8:	00e494b3          	sll	s1,s1,a4
800018ec:	00f4e4b3          	or	s1,s1,a5
800018f0:	00e99833          	sll	a6,s3,a4
800018f4:	e21ff06f          	j	80001714 <__udivmoddi4+0xd8>
800018f8:	00070863          	beqz	a4,80001908 <__udivmoddi4+0x2cc>
800018fc:	02d5f7b3          	remu	a5,a1,a3
80001900:	00072023          	sw	zero,0(a4)
80001904:	00f72223          	sw	a5,4(a4)
80001908:	03695533          	divu	a0,s2,s6
8000190c:	02812403          	lw	s0,40(sp)
80001910:	02412483          	lw	s1,36(sp)
80001914:	02012903          	lw	s2,32(sp)
80001918:	01412a83          	lw	s5,20(sp)
8000191c:	00000593          	li	a1,0
80001920:	d65ff06f          	j	80001684 <__udivmoddi4+0x48>
80001924:	00090593          	mv	a1,s2
80001928:	02812403          	lw	s0,40(sp)
8000192c:	02412483          	lw	s1,36(sp)
80001930:	02012903          	lw	s2,32(sp)
80001934:	01412a83          	lw	s5,20(sp)
80001938:	00098513          	mv	a0,s3
8000193c:	d49ff06f          	j	80001684 <__udivmoddi4+0x48>
80001940:	02812403          	lw	s0,40(sp)
80001944:	02412483          	lw	s1,36(sp)
80001948:	02012903          	lw	s2,32(sp)
8000194c:	01412a83          	lw	s5,20(sp)
80001950:	ec9ff06f          	j	80001818 <__udivmoddi4+0x1dc>
80001954:	000b8863          	beqz	s7,80001964 <__udivmoddi4+0x328>
80001958:	00b7f7b3          	and	a5,a5,a1
8000195c:	00aba023          	sw	a0,0(s7)
80001960:	00fba223          	sw	a5,4(s7)
80001964:	000b0513          	mv	a0,s6
80001968:	0d4000ef          	jal	80001a3c <__ctzsi2>
8000196c:	00a95533          	srl	a0,s2,a0
80001970:	f9dff06f          	j	8000190c <__udivmoddi4+0x2d0>
80001974:	00000413          	li	s0,0
80001978:	00000a93          	li	s5,0
8000197c:	d99ff06f          	j	80001714 <__udivmoddi4+0xd8>
80001980:	04000a93          	li	s5,64
80001984:	40da8ab3          	sub	s5,s5,a3
80001988:	00150513          	addi	a0,a0,1
8000198c:	01549733          	sll	a4,s1,s5
80001990:	00a9d7b3          	srl	a5,s3,a0
80001994:	01599ab3          	sll	s5,s3,s5
80001998:	00a4d4b3          	srl	s1,s1,a0
8000199c:	00f76833          	or	a6,a4,a5
800019a0:	d75ff06f          	j	80001714 <__udivmoddi4+0xd8>

800019a4 <__udivdi3>:
800019a4:	00000713          	li	a4,0
800019a8:	c95ff06f          	j	8000163c <__udivmoddi4>

800019ac <__clzsi2>:
800019ac:	000105b7          	lui	a1,0x10
800019b0:	00b535b3          	sltu	a1,a0,a1
800019b4:	00459593          	slli	a1,a1,0x4
800019b8:	01000793          	li	a5,16
800019bc:	40b787b3          	sub	a5,a5,a1
800019c0:	00010737          	lui	a4,0x10
800019c4:	00f557b3          	srl	a5,a0,a5
800019c8:	f0070713          	addi	a4,a4,-256 # ff00 <_entry_offset+0xff00>
800019cc:	00e7f733          	and	a4,a5,a4
800019d0:	00173713          	seqz	a4,a4
800019d4:	00371713          	slli	a4,a4,0x3
800019d8:	00800693          	li	a3,8
800019dc:	40e686b3          	sub	a3,a3,a4
800019e0:	00d7d7b3          	srl	a5,a5,a3
800019e4:	0f07f613          	andi	a2,a5,240
800019e8:	00163613          	seqz	a2,a2
800019ec:	00261613          	slli	a2,a2,0x2
800019f0:	00400693          	li	a3,4
800019f4:	40c686b3          	sub	a3,a3,a2
800019f8:	00d7d7b3          	srl	a5,a5,a3
800019fc:	00c7f693          	andi	a3,a5,12
80001a00:	0016b693          	seqz	a3,a3
80001a04:	00200513          	li	a0,2
80001a08:	00169693          	slli	a3,a3,0x1
80001a0c:	40d50833          	sub	a6,a0,a3
80001a10:	0107d7b3          	srl	a5,a5,a6
80001a14:	0017d813          	srli	a6,a5,0x1
80001a18:	00b70733          	add	a4,a4,a1
80001a1c:	00187593          	andi	a1,a6,1
80001a20:	00e60633          	add	a2,a2,a4
80001a24:	40f50533          	sub	a0,a0,a5
80001a28:	00058463          	beqz	a1,80001a30 <__clzsi2+0x84>
80001a2c:	00000513          	li	a0,0
80001a30:	00c686b3          	add	a3,a3,a2
80001a34:	00d50533          	add	a0,a0,a3
80001a38:	00008067          	ret

80001a3c <__ctzsi2>:
80001a3c:	01051593          	slli	a1,a0,0x10
80001a40:	0105d593          	srli	a1,a1,0x10
80001a44:	0015b593          	seqz	a1,a1
80001a48:	00459593          	slli	a1,a1,0x4
80001a4c:	00b557b3          	srl	a5,a0,a1
80001a50:	0ff7f613          	zext.b	a2,a5
80001a54:	00163613          	seqz	a2,a2
80001a58:	00361613          	slli	a2,a2,0x3
80001a5c:	00c7d7b3          	srl	a5,a5,a2
80001a60:	00f7f693          	andi	a3,a5,15
80001a64:	0016b693          	seqz	a3,a3
80001a68:	00269693          	slli	a3,a3,0x2
80001a6c:	00d7d7b3          	srl	a5,a5,a3
80001a70:	0037f713          	andi	a4,a5,3
80001a74:	00173713          	seqz	a4,a4
80001a78:	00171713          	slli	a4,a4,0x1
80001a7c:	00e7d7b3          	srl	a5,a5,a4
80001a80:	0017d513          	srli	a0,a5,0x1
80001a84:	fff7c793          	not	a5,a5
80001a88:	00b60633          	add	a2,a2,a1
80001a8c:	0017f793          	andi	a5,a5,1
80001a90:	00157593          	andi	a1,a0,1
80001a94:	00200513          	li	a0,2
80001a98:	00c686b3          	add	a3,a3,a2
80001a9c:	40b50533          	sub	a0,a0,a1
80001aa0:	40f007b3          	neg	a5,a5
80001aa4:	00f57533          	and	a0,a0,a5
80001aa8:	00d70733          	add	a4,a4,a3
80001aac:	00e50533          	add	a0,a0,a4
80001ab0:	00008067          	ret

80001ab4 <strlen>:
80001ab4:	00054783          	lbu	a5,0(a0)
80001ab8:	00050713          	mv	a4,a0
80001abc:	00000513          	li	a0,0
80001ac0:	00078c63          	beqz	a5,80001ad8 <strlen+0x24>
80001ac4:	00150513          	addi	a0,a0,1
80001ac8:	00a707b3          	add	a5,a4,a0
80001acc:	0007c783          	lbu	a5,0(a5) # 1000 <_entry_offset+0x1000>
80001ad0:	fe079ae3          	bnez	a5,80001ac4 <strlen+0x10>
80001ad4:	00008067          	ret
80001ad8:	00008067          	ret

80001adc <strcmp>:
80001adc:	00054783          	lbu	a5,0(a0)
80001ae0:	00079c63          	bnez	a5,80001af8 <strcmp+0x1c>
80001ae4:	0380006f          	j	80001b1c <strcmp+0x40>
80001ae8:	02f71063          	bne	a4,a5,80001b08 <strcmp+0x2c>
80001aec:	00054783          	lbu	a5,0(a0)
80001af0:	02078063          	beqz	a5,80001b10 <strcmp+0x34>
80001af4:	00068593          	mv	a1,a3
80001af8:	0005c703          	lbu	a4,0(a1) # 10000 <_entry_offset+0x10000>
80001afc:	00150513          	addi	a0,a0,1
80001b00:	00158693          	addi	a3,a1,1
80001b04:	fe0712e3          	bnez	a4,80001ae8 <strcmp+0xc>
80001b08:	40e78533          	sub	a0,a5,a4
80001b0c:	00008067          	ret
80001b10:	0015c703          	lbu	a4,1(a1)
80001b14:	40e78533          	sub	a0,a5,a4
80001b18:	00008067          	ret
80001b1c:	0005c703          	lbu	a4,0(a1)
80001b20:	fe9ff06f          	j	80001b08 <strcmp+0x2c>

80001b24 <strncmp>:
80001b24:	04060663          	beqz	a2,80001b70 <strncmp+0x4c>
80001b28:	00c50833          	add	a6,a0,a2
80001b2c:	00100713          	li	a4,1
80001b30:	00050793          	mv	a5,a0
80001b34:	fff80813          	addi	a6,a6,-1
80001b38:	02e61063          	bne	a2,a4,80001b58 <strncmp+0x34>
80001b3c:	04c0006f          	j	80001b88 <strncmp+0x64>
80001b40:	00158613          	addi	a2,a1,1
80001b44:	02070263          	beqz	a4,80001b68 <strncmp+0x44>
80001b48:	02e51063          	bne	a0,a4,80001b68 <strncmp+0x44>
80001b4c:	03068663          	beq	a3,a6,80001b78 <strncmp+0x54>
80001b50:	00060593          	mv	a1,a2
80001b54:	00068793          	mv	a5,a3
80001b58:	0007c503          	lbu	a0,0(a5)
80001b5c:	0005c703          	lbu	a4,0(a1)
80001b60:	00178693          	addi	a3,a5,1
80001b64:	fc051ee3          	bnez	a0,80001b40 <strncmp+0x1c>
80001b68:	40e50533          	sub	a0,a0,a4
80001b6c:	00008067          	ret
80001b70:	00000513          	li	a0,0
80001b74:	00008067          	ret
80001b78:	0017c503          	lbu	a0,1(a5)
80001b7c:	0015c703          	lbu	a4,1(a1)
80001b80:	40e50533          	sub	a0,a0,a4
80001b84:	00008067          	ret
80001b88:	00054503          	lbu	a0,0(a0)
80001b8c:	0005c703          	lbu	a4,0(a1)
80001b90:	fd9ff06f          	j	80001b68 <strncmp+0x44>

80001b94 <memcpy>:
80001b94:	02060063          	beqz	a2,80001bb4 <memcpy+0x20>
80001b98:	00c50633          	add	a2,a0,a2
80001b9c:	00050793          	mv	a5,a0
80001ba0:	0005c703          	lbu	a4,0(a1)
80001ba4:	00178793          	addi	a5,a5,1
80001ba8:	00158593          	addi	a1,a1,1
80001bac:	fee78fa3          	sb	a4,-1(a5)
80001bb0:	fef618e3          	bne	a2,a5,80001ba0 <memcpy+0xc>
80001bb4:	00008067          	ret

80001bb8 <rand>:
80001bb8:	0000f697          	auipc	a3,0xf
80001bbc:	74068693          	addi	a3,a3,1856 # 800112f8 <next>
80001bc0:	0006a783          	lw	a5,0(a3)
80001bc4:	41c65737          	lui	a4,0x41c65
80001bc8:	e6d70713          	addi	a4,a4,-403 # 41c64e6d <_entry_offset+0x41c64e6d>
80001bcc:	02e787b3          	mul	a5,a5,a4
80001bd0:	00003737          	lui	a4,0x3
80001bd4:	03970713          	addi	a4,a4,57 # 3039 <_entry_offset+0x3039>
80001bd8:	00e787b3          	add	a5,a5,a4
80001bdc:	00179513          	slli	a0,a5,0x1
80001be0:	00f6a023          	sw	a5,0(a3)
80001be4:	01155513          	srli	a0,a0,0x11
80001be8:	00008067          	ret

80001bec <number>:
80001bec:	fa010113          	addi	sp,sp,-96
80001bf0:	04812e23          	sw	s0,92(sp)
80001bf4:	04912c23          	sw	s1,88(sp)
80001bf8:	0107f293          	andi	t0,a5,16
80001bfc:	00001f17          	auipc	t5,0x1
80001c00:	ee0f0f13          	addi	t5,t5,-288 # 80002adc <_etext+0x768>
80001c04:	00029663          	bnez	t0,80001c10 <number+0x24>
80001c08:	00001f17          	auipc	t5,0x1
80001c0c:	efcf0f13          	addi	t5,t5,-260 # 80002b04 <_etext+0x790>
80001c10:	0017f493          	andi	s1,a5,1
80001c14:	fff48393          	addi	t2,s1,-1
80001c18:	ff03f393          	andi	t2,t2,-16
80001c1c:	0027f813          	andi	a6,a5,2
80001c20:	03038393          	addi	t2,t2,48
80001c24:	0e080463          	beqz	a6,80001d0c <number+0x120>
80001c28:	1c05c063          	bltz	a1,80001de8 <number+0x1fc>
80001c2c:	0047f813          	andi	a6,a5,4
80001c30:	02b00413          	li	s0,43
80001c34:	18080a63          	beqz	a6,80001dc8 <number+0x1dc>
80001c38:	0c059e63          	bnez	a1,80001d14 <number+0x128>
80001c3c:	03000613          	li	a2,48
80001c40:	00c10623          	sb	a2,12(sp)
80001c44:	00000813          	li	a6,0
80001c48:	00100893          	li	a7,1
80001c4c:	00c10f93          	addi	t6,sp,12
80001c50:	00088613          	mv	a2,a7
80001c54:	00e8d463          	bge	a7,a4,80001c5c <number+0x70>
80001c58:	00070613          	mv	a2,a4
80001c5c:	0037f713          	andi	a4,a5,3
80001c60:	40c686b3          	sub	a3,a3,a2
80001c64:	0117f793          	andi	a5,a5,17
80001c68:	0e071063          	bnez	a4,80001d48 <number+0x15c>
80001c6c:	12040a63          	beqz	s0,80001da0 <number+0x1b4>
80001c70:	fff68713          	addi	a4,a3,-1
80001c74:	16079063          	bnez	a5,80001dd4 <number+0x1e8>
80001c78:	ffe68593          	addi	a1,a3,-2
80001c7c:	00070693          	mv	a3,a4
80001c80:	0ce05c63          	blez	a4,80001d58 <number+0x16c>
80001c84:	00d507b3          	add	a5,a0,a3
80001c88:	02000713          	li	a4,32
80001c8c:	00150513          	addi	a0,a0,1
80001c90:	fee50fa3          	sb	a4,-1(a0)
80001c94:	fea79ce3          	bne	a5,a0,80001c8c <number+0xa0>
80001c98:	40d586b3          	sub	a3,a1,a3
80001c9c:	10041e63          	bnez	s0,80001db8 <number+0x1cc>
80001ca0:	14c8de63          	bge	a7,a2,80001dfc <number+0x210>
80001ca4:	41160633          	sub	a2,a2,a7
80001ca8:	00c78533          	add	a0,a5,a2
80001cac:	03000713          	li	a4,48
80001cb0:	00178793          	addi	a5,a5,1
80001cb4:	fee78fa3          	sb	a4,-1(a5)
80001cb8:	fea79ce3          	bne	a5,a0,80001cb0 <number+0xc4>
80001cbc:	010f87b3          	add	a5,t6,a6
80001cc0:	00050713          	mv	a4,a0
80001cc4:	0007c583          	lbu	a1,0(a5)
80001cc8:	00078613          	mv	a2,a5
80001ccc:	00170713          	addi	a4,a4,1
80001cd0:	feb70fa3          	sb	a1,-1(a4)
80001cd4:	fff78793          	addi	a5,a5,-1
80001cd8:	fecf96e3          	bne	t6,a2,80001cc4 <number+0xd8>
80001cdc:	00180793          	addi	a5,a6,1
80001ce0:	00f507b3          	add	a5,a0,a5
80001ce4:	10d05863          	blez	a3,80001df4 <number+0x208>
80001ce8:	00d78533          	add	a0,a5,a3
80001cec:	02000713          	li	a4,32
80001cf0:	00178793          	addi	a5,a5,1
80001cf4:	fee78fa3          	sb	a4,-1(a5)
80001cf8:	fef51ce3          	bne	a0,a5,80001cf0 <number+0x104>
80001cfc:	05c12403          	lw	s0,92(sp)
80001d00:	05812483          	lw	s1,88(sp)
80001d04:	06010113          	addi	sp,sp,96
80001d08:	00008067          	ret
80001d0c:	00000413          	li	s0,0
80001d10:	f20586e3          	beqz	a1,80001c3c <number+0x50>
80001d14:	00000893          	li	a7,0
80001d18:	00c10f93          	addi	t6,sp,12
80001d1c:	02c5f333          	remu	t1,a1,a2
80001d20:	00088813          	mv	a6,a7
80001d24:	00188893          	addi	a7,a7,1
80001d28:	011f8eb3          	add	t4,t6,a7
80001d2c:	00058e13          	mv	t3,a1
80001d30:	006f0333          	add	t1,t5,t1
80001d34:	00034303          	lbu	t1,0(t1)
80001d38:	02c5d5b3          	divu	a1,a1,a2
80001d3c:	fe6e8fa3          	sb	t1,-1(t4)
80001d40:	fcce7ee3          	bgeu	t3,a2,80001d1c <number+0x130>
80001d44:	f0dff06f          	j	80001c50 <number+0x64>
80001d48:	02079463          	bnez	a5,80001d70 <number+0x184>
80001d4c:	fff68593          	addi	a1,a3,-1
80001d50:	f2d04ae3          	bgtz	a3,80001c84 <number+0x98>
80001d54:	04040c63          	beqz	s0,80001dac <number+0x1c0>
80001d58:	00850023          	sb	s0,0(a0)
80001d5c:	00058693          	mv	a3,a1
80001d60:	00150513          	addi	a0,a0,1
80001d64:	f4029ce3          	bnez	t0,80001cbc <number+0xd0>
80001d68:	00050793          	mv	a5,a0
80001d6c:	f35ff06f          	j	80001ca0 <number+0xb4>
80001d70:	00040663          	beqz	s0,80001d7c <number+0x190>
80001d74:	00850023          	sb	s0,0(a0)
80001d78:	00150513          	addi	a0,a0,1
80001d7c:	fe0484e3          	beqz	s1,80001d64 <number+0x178>
80001d80:	f2029ee3          	bnez	t0,80001cbc <number+0xd0>
80001d84:	00d507b3          	add	a5,a0,a3
80001d88:	06d05e63          	blez	a3,80001e04 <number+0x218>
80001d8c:	00150513          	addi	a0,a0,1
80001d90:	fe750fa3          	sb	t2,-1(a0)
80001d94:	fef51ce3          	bne	a0,a5,80001d8c <number+0x1a0>
80001d98:	fff00693          	li	a3,-1
80001d9c:	f05ff06f          	j	80001ca0 <number+0xb4>
80001da0:	fc0792e3          	bnez	a5,80001d64 <number+0x178>
80001da4:	fff68593          	addi	a1,a3,-1
80001da8:	ecd04ee3          	bgtz	a3,80001c84 <number+0x98>
80001dac:	00058693          	mv	a3,a1
80001db0:	00050793          	mv	a5,a0
80001db4:	eedff06f          	j	80001ca0 <number+0xb4>
80001db8:	00878023          	sb	s0,0(a5)
80001dbc:	00150513          	addi	a0,a0,1
80001dc0:	ee029ee3          	bnez	t0,80001cbc <number+0xd0>
80001dc4:	fa5ff06f          	j	80001d68 <number+0x17c>
80001dc8:	00279413          	slli	s0,a5,0x2
80001dcc:	02047413          	andi	s0,s0,32
80001dd0:	e69ff06f          	j	80001c38 <number+0x4c>
80001dd4:	00850023          	sb	s0,0(a0)
80001dd8:	00070693          	mv	a3,a4
80001ddc:	00150513          	addi	a0,a0,1
80001de0:	ec029ee3          	bnez	t0,80001cbc <number+0xd0>
80001de4:	f85ff06f          	j	80001d68 <number+0x17c>
80001de8:	40b005b3          	neg	a1,a1
80001dec:	02d00413          	li	s0,45
80001df0:	f25ff06f          	j	80001d14 <number+0x128>
80001df4:	00078513          	mv	a0,a5
80001df8:	f05ff06f          	j	80001cfc <number+0x110>
80001dfc:	00078513          	mv	a0,a5
80001e00:	ebdff06f          	j	80001cbc <number+0xd0>
80001e04:	fff68693          	addi	a3,a3,-1
80001e08:	00050793          	mv	a5,a0
80001e0c:	e95ff06f          	j	80001ca0 <number+0xb4>

80001e10 <vsprintf>:
80001e10:	fb010113          	addi	sp,sp,-80
80001e14:	03612823          	sw	s6,48(sp)
80001e18:	04112623          	sw	ra,76(sp)
80001e1c:	04912223          	sw	s1,68(sp)
80001e20:	0005c783          	lbu	a5,0(a1)
80001e24:	00050b13          	mv	s6,a0
80001e28:	44078a63          	beqz	a5,8000227c <vsprintf+0x46c>
80001e2c:	05212023          	sw	s2,64(sp)
80001e30:	03312e23          	sw	s3,60(sp)
80001e34:	03412c23          	sw	s4,56(sp)
80001e38:	03512a23          	sw	s5,52(sp)
80001e3c:	03712623          	sw	s7,44(sp)
80001e40:	03812423          	sw	s8,40(sp)
80001e44:	03912223          	sw	s9,36(sp)
80001e48:	03a12023          	sw	s10,32(sp)
80001e4c:	04812423          	sw	s0,72(sp)
80001e50:	00060a13          	mv	s4,a2
80001e54:	00050493          	mv	s1,a0
80001e58:	02500a93          	li	s5,37
80001e5c:	01000993          	li	s3,16
80001e60:	00001917          	auipc	s2,0x1
80001e64:	2d890913          	addi	s2,s2,728 # 80003138 <mainargs+0x40>
80001e68:	00900d13          	li	s10,9
80001e6c:	02e00c93          	li	s9,46
80001e70:	06800c13          	li	s8,104
80001e74:	00001b97          	auipc	s7,0x1
80001e78:	308b8b93          	addi	s7,s7,776 # 8000317c <mainargs+0x84>
80001e7c:	05578c63          	beq	a5,s5,80001ed4 <vsprintf+0xc4>
80001e80:	00f48023          	sb	a5,0(s1)
80001e84:	0015c783          	lbu	a5,1(a1)
80001e88:	00148493          	addi	s1,s1,1
80001e8c:	00158593          	addi	a1,a1,1
80001e90:	fe0796e3          	bnez	a5,80001e7c <vsprintf+0x6c>
80001e94:	04812403          	lw	s0,72(sp)
80001e98:	04012903          	lw	s2,64(sp)
80001e9c:	03c12983          	lw	s3,60(sp)
80001ea0:	03812a03          	lw	s4,56(sp)
80001ea4:	03412a83          	lw	s5,52(sp)
80001ea8:	02c12b83          	lw	s7,44(sp)
80001eac:	02812c03          	lw	s8,40(sp)
80001eb0:	02412c83          	lw	s9,36(sp)
80001eb4:	02012d03          	lw	s10,32(sp)
80001eb8:	00048023          	sb	zero,0(s1)
80001ebc:	04c12083          	lw	ra,76(sp)
80001ec0:	41648533          	sub	a0,s1,s6
80001ec4:	04412483          	lw	s1,68(sp)
80001ec8:	03012b03          	lw	s6,48(sp)
80001ecc:	05010113          	addi	sp,sp,80
80001ed0:	00008067          	ret
80001ed4:	00000793          	li	a5,0
80001ed8:	0015c803          	lbu	a6,1(a1)
80001edc:	00158413          	addi	s0,a1,1
80001ee0:	fe080713          	addi	a4,a6,-32
80001ee4:	0ff77713          	zext.b	a4,a4
80001ee8:	00e9ec63          	bltu	s3,a4,80001f00 <vsprintf+0xf0>
80001eec:	00271713          	slli	a4,a4,0x2
80001ef0:	01270733          	add	a4,a4,s2
80001ef4:	00072703          	lw	a4,0(a4)
80001ef8:	01270733          	add	a4,a4,s2
80001efc:	00070067          	jr	a4
80001f00:	fd080713          	addi	a4,a6,-48
80001f04:	0ff77713          	zext.b	a4,a4
80001f08:	0ced7263          	bgeu	s10,a4,80001fcc <vsprintf+0x1bc>
80001f0c:	02a00713          	li	a4,42
80001f10:	fff00693          	li	a3,-1
80001f14:	00e81a63          	bne	a6,a4,80001f28 <vsprintf+0x118>
80001f18:	0025c803          	lbu	a6,2(a1)
80001f1c:	000a2683          	lw	a3,0(s4)
80001f20:	00258413          	addi	s0,a1,2
80001f24:	004a0a13          	addi	s4,s4,4
80001f28:	fff00713          	li	a4,-1
80001f2c:	07980a63          	beq	a6,s9,80001fa0 <vsprintf+0x190>
80001f30:	0fb87613          	andi	a2,a6,251
80001f34:	01861663          	bne	a2,s8,80001f40 <vsprintf+0x130>
80001f38:	00144803          	lbu	a6,1(s0)
80001f3c:	00140413          	addi	s0,s0,1
80001f40:	fdb80813          	addi	a6,a6,-37
80001f44:	0ff87813          	zext.b	a6,a6
80001f48:	05300613          	li	a2,83
80001f4c:	0b066c63          	bltu	a2,a6,80002004 <vsprintf+0x1f4>
80001f50:	00281813          	slli	a6,a6,0x2
80001f54:	01780833          	add	a6,a6,s7
80001f58:	00082603          	lw	a2,0(a6)
80001f5c:	01760633          	add	a2,a2,s7
80001f60:	00060067          	jr	a2
80001f64:	0207e793          	ori	a5,a5,32
80001f68:	00040593          	mv	a1,s0
80001f6c:	f6dff06f          	j	80001ed8 <vsprintf+0xc8>
80001f70:	0017e793          	ori	a5,a5,1
80001f74:	00040593          	mv	a1,s0
80001f78:	f61ff06f          	j	80001ed8 <vsprintf+0xc8>
80001f7c:	0047e793          	ori	a5,a5,4
80001f80:	00040593          	mv	a1,s0
80001f84:	f55ff06f          	j	80001ed8 <vsprintf+0xc8>
80001f88:	0107e793          	ori	a5,a5,16
80001f8c:	00040593          	mv	a1,s0
80001f90:	f49ff06f          	j	80001ed8 <vsprintf+0xc8>
80001f94:	0087e793          	ori	a5,a5,8
80001f98:	00040593          	mv	a1,s0
80001f9c:	f3dff06f          	j	80001ed8 <vsprintf+0xc8>
80001fa0:	00144803          	lbu	a6,1(s0)
80001fa4:	00900593          	li	a1,9
80001fa8:	00140613          	addi	a2,s0,1
80001fac:	fd080713          	addi	a4,a6,-48
80001fb0:	0ff77713          	zext.b	a4,a4
80001fb4:	1ee5f663          	bgeu	a1,a4,800021a0 <vsprintf+0x390>
80001fb8:	02a00713          	li	a4,42
80001fbc:	22e80463          	beq	a6,a4,800021e4 <vsprintf+0x3d4>
80001fc0:	00060413          	mv	s0,a2
80001fc4:	00000713          	li	a4,0
80001fc8:	f69ff06f          	j	80001f30 <vsprintf+0x120>
80001fcc:	00044803          	lbu	a6,0(s0)
80001fd0:	00000693          	li	a3,0
80001fd4:	00900613          	li	a2,9
80001fd8:	00269713          	slli	a4,a3,0x2
80001fdc:	00d70733          	add	a4,a4,a3
80001fe0:	00171713          	slli	a4,a4,0x1
80001fe4:	00140413          	addi	s0,s0,1
80001fe8:	01070733          	add	a4,a4,a6
80001fec:	00044803          	lbu	a6,0(s0)
80001ff0:	fd070693          	addi	a3,a4,-48
80001ff4:	fd080713          	addi	a4,a6,-48
80001ff8:	0ff77713          	zext.b	a4,a4
80001ffc:	fce67ee3          	bgeu	a2,a4,80001fd8 <vsprintf+0x1c8>
80002000:	f29ff06f          	j	80001f28 <vsprintf+0x118>
80002004:	02500793          	li	a5,37
80002008:	00f48023          	sb	a5,0(s1)
8000200c:	00044783          	lbu	a5,0(s0)
80002010:	1e078c63          	beqz	a5,80002208 <vsprintf+0x3f8>
80002014:	00f480a3          	sb	a5,1(s1)
80002018:	00144783          	lbu	a5,1(s0)
8000201c:	00140593          	addi	a1,s0,1
80002020:	00248493          	addi	s1,s1,2
80002024:	e4079ce3          	bnez	a5,80001e7c <vsprintf+0x6c>
80002028:	e6dff06f          	j	80001e94 <vsprintf+0x84>
8000202c:	000a2583          	lw	a1,0(s4)
80002030:	0027e793          	ori	a5,a5,2
80002034:	004a0a13          	addi	s4,s4,4
80002038:	00a00613          	li	a2,10
8000203c:	00048513          	mv	a0,s1
80002040:	badff0ef          	jal	80001bec <number>
80002044:	00144783          	lbu	a5,1(s0)
80002048:	00050493          	mv	s1,a0
8000204c:	00140593          	addi	a1,s0,1
80002050:	e20796e3          	bnez	a5,80001e7c <vsprintf+0x6c>
80002054:	e41ff06f          	j	80001e94 <vsprintf+0x84>
80002058:	01000613          	li	a2,16
8000205c:	000a2583          	lw	a1,0(s4)
80002060:	004a0a13          	addi	s4,s4,4
80002064:	fd9ff06f          	j	8000203c <vsprintf+0x22c>
80002068:	02500793          	li	a5,37
8000206c:	00f48023          	sb	a5,0(s1)
80002070:	00144783          	lbu	a5,1(s0)
80002074:	00140593          	addi	a1,s0,1
80002078:	00148493          	addi	s1,s1,1
8000207c:	e00790e3          	bnez	a5,80001e7c <vsprintf+0x6c>
80002080:	e15ff06f          	j	80001e94 <vsprintf+0x84>
80002084:	0017f793          	andi	a5,a5,1
80002088:	004a0613          	addi	a2,s4,4
8000208c:	00140593          	addi	a1,s0,1
80002090:	18078c63          	beqz	a5,80002228 <vsprintf+0x418>
80002094:	000a2783          	lw	a5,0(s4)
80002098:	00100513          	li	a0,1
8000209c:	00148713          	addi	a4,s1,1
800020a0:	00f48023          	sb	a5,0(s1)
800020a4:	02000793          	li	a5,32
800020a8:	00d484b3          	add	s1,s1,a3
800020ac:	20d55e63          	bge	a0,a3,800022c8 <vsprintf+0x4b8>
800020b0:	00170713          	addi	a4,a4,1
800020b4:	fef70fa3          	sb	a5,-1(a4)
800020b8:	fe971ce3          	bne	a4,s1,800020b0 <vsprintf+0x2a0>
800020bc:	00144783          	lbu	a5,1(s0)
800020c0:	00060a13          	mv	s4,a2
800020c4:	da079ce3          	bnez	a5,80001e7c <vsprintf+0x6c>
800020c8:	dcdff06f          	j	80001e94 <vsprintf+0x84>
800020cc:	01b12e23          	sw	s11,28(sp)
800020d0:	000a2d83          	lw	s11,0(s4)
800020d4:	004a0a13          	addi	s4,s4,4
800020d8:	140d8263          	beqz	s11,8000221c <vsprintf+0x40c>
800020dc:	000d8513          	mv	a0,s11
800020e0:	00d12623          	sw	a3,12(sp)
800020e4:	00f12423          	sw	a5,8(sp)
800020e8:	00e12223          	sw	a4,4(sp)
800020ec:	9c9ff0ef          	jal	80001ab4 <strlen>
800020f0:	00412703          	lw	a4,4(sp)
800020f4:	fff00613          	li	a2,-1
800020f8:	00812783          	lw	a5,8(sp)
800020fc:	00c12683          	lw	a3,12(sp)
80002100:	00c70663          	beq	a4,a2,8000210c <vsprintf+0x2fc>
80002104:	00a75463          	bge	a4,a0,8000210c <vsprintf+0x2fc>
80002108:	00070513          	mv	a0,a4
8000210c:	0017f793          	andi	a5,a5,1
80002110:	14078063          	beqz	a5,80002250 <vsprintf+0x440>
80002114:	1aa05663          	blez	a0,800022c0 <vsprintf+0x4b0>
80002118:	00a48733          	add	a4,s1,a0
8000211c:	000dc783          	lbu	a5,0(s11)
80002120:	00148493          	addi	s1,s1,1
80002124:	001d8d93          	addi	s11,s11,1
80002128:	fef48fa3          	sb	a5,-1(s1)
8000212c:	fe9718e3          	bne	a4,s1,8000211c <vsprintf+0x30c>
80002130:	40a684b3          	sub	s1,a3,a0
80002134:	00140593          	addi	a1,s0,1
80002138:	009704b3          	add	s1,a4,s1
8000213c:	02000793          	li	a5,32
80002140:	16d55663          	bge	a0,a3,800022ac <vsprintf+0x49c>
80002144:	00170713          	addi	a4,a4,1
80002148:	fef70fa3          	sb	a5,-1(a4)
8000214c:	fe971ce3          	bne	a4,s1,80002144 <vsprintf+0x334>
80002150:	00144783          	lbu	a5,1(s0)
80002154:	01c12d83          	lw	s11,28(sp)
80002158:	d20792e3          	bnez	a5,80001e7c <vsprintf+0x6c>
8000215c:	d39ff06f          	j	80001e94 <vsprintf+0x84>
80002160:	fff00613          	li	a2,-1
80002164:	0ac68663          	beq	a3,a2,80002210 <vsprintf+0x400>
80002168:	000a2583          	lw	a1,0(s4)
8000216c:	00048513          	mv	a0,s1
80002170:	01000613          	li	a2,16
80002174:	a79ff0ef          	jal	80001bec <number>
80002178:	00144783          	lbu	a5,1(s0)
8000217c:	004a0a13          	addi	s4,s4,4
80002180:	00050493          	mv	s1,a0
80002184:	00140593          	addi	a1,s0,1
80002188:	ce079ae3          	bnez	a5,80001e7c <vsprintf+0x6c>
8000218c:	d09ff06f          	j	80001e94 <vsprintf+0x84>
80002190:	00144783          	lbu	a5,1(s0)
80002194:	00140593          	addi	a1,s0,1
80002198:	ce0792e3          	bnez	a5,80001e7c <vsprintf+0x6c>
8000219c:	cf9ff06f          	j	80001e94 <vsprintf+0x84>
800021a0:	00000593          	li	a1,0
800021a4:	00900513          	li	a0,9
800021a8:	00259713          	slli	a4,a1,0x2
800021ac:	00b70733          	add	a4,a4,a1
800021b0:	00171713          	slli	a4,a4,0x1
800021b4:	00160613          	addi	a2,a2,1
800021b8:	01070733          	add	a4,a4,a6
800021bc:	00064803          	lbu	a6,0(a2)
800021c0:	fd070593          	addi	a1,a4,-48
800021c4:	fd080713          	addi	a4,a6,-48
800021c8:	0ff77713          	zext.b	a4,a4
800021cc:	fce57ee3          	bgeu	a0,a4,800021a8 <vsprintf+0x398>
800021d0:	fff5c713          	not	a4,a1
800021d4:	41f75713          	srai	a4,a4,0x1f
800021d8:	00e5f733          	and	a4,a1,a4
800021dc:	00060413          	mv	s0,a2
800021e0:	d51ff06f          	j	80001f30 <vsprintf+0x120>
800021e4:	000a2583          	lw	a1,0(s4)
800021e8:	00240613          	addi	a2,s0,2
800021ec:	00244803          	lbu	a6,2(s0)
800021f0:	fff5c713          	not	a4,a1
800021f4:	41f75713          	srai	a4,a4,0x1f
800021f8:	004a0a13          	addi	s4,s4,4
800021fc:	00e5f733          	and	a4,a1,a4
80002200:	00060413          	mv	s0,a2
80002204:	d2dff06f          	j	80001f30 <vsprintf+0x120>
80002208:	00148493          	addi	s1,s1,1
8000220c:	c89ff06f          	j	80001e94 <vsprintf+0x84>
80002210:	0207e793          	ori	a5,a5,32
80002214:	00800693          	li	a3,8
80002218:	f51ff06f          	j	80002168 <vsprintf+0x358>
8000221c:	00001d97          	auipc	s11,0x1
80002220:	910d8d93          	addi	s11,s11,-1776 # 80002b2c <_etext+0x7b8>
80002224:	eb9ff06f          	j	800020dc <vsprintf+0x2cc>
80002228:	00100793          	li	a5,1
8000222c:	0ad7dc63          	bge	a5,a3,800022e4 <vsprintf+0x4d4>
80002230:	fff68793          	addi	a5,a3,-1
80002234:	00f487b3          	add	a5,s1,a5
80002238:	02000713          	li	a4,32
8000223c:	00148493          	addi	s1,s1,1
80002240:	fee48fa3          	sb	a4,-1(s1)
80002244:	fe979ce3          	bne	a5,s1,8000223c <vsprintf+0x42c>
80002248:	00000693          	li	a3,0
8000224c:	e49ff06f          	j	80002094 <vsprintf+0x284>
80002250:	fff68613          	addi	a2,a3,-1
80002254:	08d55463          	bge	a0,a3,800022dc <vsprintf+0x4cc>
80002258:	40a687b3          	sub	a5,a3,a0
8000225c:	00f487b3          	add	a5,s1,a5
80002260:	02000713          	li	a4,32
80002264:	00148493          	addi	s1,s1,1
80002268:	fee48fa3          	sb	a4,-1(s1)
8000226c:	fef49ce3          	bne	s1,a5,80002264 <vsprintf+0x454>
80002270:	40d506b3          	sub	a3,a0,a3
80002274:	00c686b3          	add	a3,a3,a2
80002278:	e9dff06f          	j	80002114 <vsprintf+0x304>
8000227c:	00050493          	mv	s1,a0
80002280:	00048023          	sb	zero,0(s1)
80002284:	04c12083          	lw	ra,76(sp)
80002288:	04412483          	lw	s1,68(sp)
8000228c:	03012b03          	lw	s6,48(sp)
80002290:	00000513          	li	a0,0
80002294:	05010113          	addi	sp,sp,80
80002298:	00008067          	ret
8000229c:	00a00613          	li	a2,10
800022a0:	dbdff06f          	j	8000205c <vsprintf+0x24c>
800022a4:	00800613          	li	a2,8
800022a8:	db5ff06f          	j	8000205c <vsprintf+0x24c>
800022ac:	00144783          	lbu	a5,1(s0)
800022b0:	01c12d83          	lw	s11,28(sp)
800022b4:	00070493          	mv	s1,a4
800022b8:	bc0792e3          	bnez	a5,80001e7c <vsprintf+0x6c>
800022bc:	bd9ff06f          	j	80001e94 <vsprintf+0x84>
800022c0:	00048713          	mv	a4,s1
800022c4:	e6dff06f          	j	80002130 <vsprintf+0x320>
800022c8:	00144783          	lbu	a5,1(s0)
800022cc:	00060a13          	mv	s4,a2
800022d0:	00070493          	mv	s1,a4
800022d4:	ba0794e3          	bnez	a5,80001e7c <vsprintf+0x6c>
800022d8:	bbdff06f          	j	80001e94 <vsprintf+0x84>
800022dc:	00060693          	mv	a3,a2
800022e0:	e35ff06f          	j	80002114 <vsprintf+0x304>
800022e4:	000a2783          	lw	a5,0(s4)
800022e8:	00148493          	addi	s1,s1,1
800022ec:	00060a13          	mv	s4,a2
800022f0:	fef48fa3          	sb	a5,-1(s1)
800022f4:	00144783          	lbu	a5,1(s0)
800022f8:	b80792e3          	bnez	a5,80001e7c <vsprintf+0x6c>
800022fc:	b99ff06f          	j	80001e94 <vsprintf+0x84>

80002300 <printf>:
80002300:	fc010113          	addi	sp,sp,-64
80002304:	02410313          	addi	t1,sp,36
80002308:	02b12223          	sw	a1,36(sp)
8000230c:	02c12423          	sw	a2,40(sp)
80002310:	00050593          	mv	a1,a0
80002314:	00030613          	mv	a2,t1
80002318:	00093517          	auipc	a0,0x93
8000231c:	20450513          	addi	a0,a0,516 # 8009551c <sprint_buf>
80002320:	02e12823          	sw	a4,48(sp)
80002324:	02f12a23          	sw	a5,52(sp)
80002328:	00112e23          	sw	ra,28(sp)
8000232c:	02d12623          	sw	a3,44(sp)
80002330:	03012c23          	sw	a6,56(sp)
80002334:	03112e23          	sw	a7,60(sp)
80002338:	00612623          	sw	t1,12(sp)
8000233c:	ad5ff0ef          	jal	80001e10 <vsprintf>
80002340:	00093797          	auipc	a5,0x93
80002344:	1dc78793          	addi	a5,a5,476 # 8009551c <sprint_buf>
80002348:	0007c703          	lbu	a4,0(a5)
8000234c:	00070e63          	beqz	a4,80002368 <printf+0x68>
80002350:	a00006b7          	lui	a3,0xa0000
80002354:	3f868693          	addi	a3,a3,1016 # a00003f8 <_end+0x1ff623f8>
80002358:	00178793          	addi	a5,a5,1
8000235c:	00e68023          	sb	a4,0(a3)
80002360:	0007c703          	lbu	a4,0(a5)
80002364:	fe071ae3          	bnez	a4,80002358 <printf+0x58>
80002368:	01c12083          	lw	ra,28(sp)
8000236c:	04010113          	addi	sp,sp,64
80002370:	00008067          	ret
