[1;34m[src/utils/log.c:30 init_log] Log is written to /home/hook/ics2025/am-kernels/tests/am-tests/build/nemu-log.txt[0m
[1;34m[src/memory/paddr.c:109 init_mem] physical memory area [0x80000000, 0x87ffffff][0m
[1;34m[src/memory/paddr.c:113 init_mem] IO map: VGA/Display [0xa0000000, 0xa0000fff][0m
[1;34m[src/memory/paddr.c:113 init_mem] IO map: RTC [0xa0000000, 0xa0000007][0m
[1;34m[src/memory/paddr.c:113 init_mem] IO map: Serial [0xa0000048, 0xa000004b][0m
[1;34m[src/memory/paddr.c:113 init_mem] IO map: i8042 [0xa0000060, 0xa0000063][0m
[1;34m[src/memory/paddr.c:113 init_mem] IO map: i8042 [0xa0000068, 0xa000006b][0m
[1;34m[src/memory/paddr.c:113 init_mem] IO map: IDE [0xa0000100, 0xa0000107][0m
[1;34m[src/memory/paddr.c:113 init_mem] IO map: Audio [0xa0000200, 0xa0000203][0m
[1;34m[src/device/io/mmio.c:50 add_mmio_map] Add mmio map 'serial' at [0xa00003f8, 0xa00003ff][0m
[1;34m[src/device/io/mmio.c:50 add_mmio_map] Add mmio map 'rtc' at [0xa0000048, 0xa000004f][0m
[1;34m[src/device/io/mmio.c:50 add_mmio_map] Add mmio map 'vgactl' at [0xa0000100, 0xa0000107][0m
[1;34m[src/device/io/mmio.c:50 add_mmio_map] Add mmio map 'vmem' at [0xa1000000, 0xa10752ff][0m
[1;34m[src/device/io/mmio.c:50 add_mmio_map] Add mmio map 'keyboard' at [0xa0000060, 0xa0000063][0m
[1;34m[src/device/io/mmio.c:50 add_mmio_map] Add mmio map 'audio' at [0xa0000200, 0xa0000217][0m
[1;34m[src/device/io/mmio.c:50 add_mmio_map] Add mmio map 'audio-sbuf' at [0xa1200000, 0xa120ffff][0m
[1;34m[src/monitor/monitor.c:60 load_img] The image is /home/hook/ics2025/am-kernels/tests/am-tests/build/amtest-riscv32-nemu.bin, size = 612668[0m
[1;34m[src/monitor/monitor.c:28 welcome] Trace: [1;32mON[0m[0m
[1;34m[src/monitor/monitor.c:29 welcome] If trace is enabled, a log file will be generated to record the trace. This may lead to a large log file. If it is not necessary, you can disable it in menuconfig[0m
[1;34m[src/monitor/monitor.c:32 welcome] Build time: 19:20:05, Nov 27 2025[0m
[1;34m[src/memory/paddr.c:97 mtrace_log] R: 0x80000000 (len=4) data=0x00000413[0m
0x80000000: 00 00 04 13 mv	s0, zero
[1;34m[src/memory/paddr.c:97 mtrace_log] R: 0x80000004 (len=4) data=0x0009e117[0m
0x80000004: 00 09 e1 17 auipc	sp, 0x9e
[1;34m[src/memory/paddr.c:97 mtrace_log] R: 0x80000008 (len=4) data=0xffc10113[0m
0x80000008: ff c1 01 13 addi	sp, sp, -4
[1;34m[src/memory/paddr.c:97 mtrace_log] R: 0x8000000c (len=4) data=0x000010ef[0m
0x8000000c: 00 00 10 ef jal	0x1000
[1;34m[src/memory/paddr.c:97 mtrace_log] R: 0x8000100c (len=4) data=0xff010113[0m
0x8000100c: ff 01 01 13 addi	sp, sp, -0x10
[1;34m[src/memory/paddr.c:97 mtrace_log] R: 0x80001010 (len=4) data=0x00002517[0m
0x80001010: 00 00 25 17 auipc	a0, 2
[1;34m[src/memory/paddr.c:97 mtrace_log] R: 0x80001014 (len=4) data=0x0e850513[0m
0x80001014: 0e 85 05 13 addi	a0, a0, 0xe8
[1;34m[src/memory/paddr.c:97 mtrace_log] R: 0x80001018 (len=4) data=0x00112623[0m
[1;34m[src/memory/paddr.c:97 mtrace_log] W: 0x8009dffc (len=4) data=0x80000010[0m
0x80001018: 00 11 26 23 sw	ra, 0xc(sp)
[1;34m[src/memory/paddr.c:97 mtrace_log] R: 0x8000101c (len=4) data=0xdf5ff0ef[0m
0x8000101c: df 5f f0 ef jal	-0x20c
[1;34m[src/memory/paddr.c:97 mtrace_log] R: 0x80000e10 (len=4) data=0xfe010113[0m
0x80000e10: fe 01 01 13 addi	sp, sp, -0x20
[1;34m[src/memory/paddr.c:97 mtrace_log] R: 0x80000e14 (len=4) data=0x00112e23[0m
[1;34m[src/memory/paddr.c:97 mtrace_log] W: 0x8009dfec (len=4) data=0x80001020[0m
0x80000e14: 00 11 2e 23 sw	ra, 0x1c(sp)
[1;34m[src/memory/paddr.c:97 mtrace_log] R: 0x80000e18 (len=4) data=0x00054783[0m
[1;34m[src/memory/paddr.c:97 mtrace_log] R: 0x800030f8 (len=1) data=0x00000000[0m
0x80000e18: 00 05 47 83 lbu	a5, 0(a0)
[1;34m[src/memory/paddr.c:97 mtrace_log] R: 0x80000e1c (len=4) data=0x01500713[0m
0x80000e1c: 01 50 07 13 addi	a4, zero, 0x15
[1;34m[src/memory/paddr.c:97 mtrace_log] R: 0x80000e20 (len=4) data=0xf9f78793[0m
0x80000e20: f9 f7 87 93 addi	a5, a5, -0x61
[1;34m[src/memory/paddr.c:97 mtrace_log] R: 0x80000e24 (len=4) data=0x0ff7f793[0m
0x80000e24: 0f f7 f7 93 andi	a5, a5, 0xff
[1;34m[src/memory/paddr.c:97 mtrace_log] R: 0x80000e28 (len=4) data=0x02f76063[0m
0x80000e28: 02 f7 60 63 bltu	a4, a5, 0x20
[1;34m[src/memory/paddr.c:97 mtrace_log] R: 0x80000e48 (len=4) data=0x00002517[0m
0x80000e48: 00 00 25 17 auipc	a0, 2
[1;34m[src/memory/paddr.c:97 mtrace_log] R: 0x80000e4c (len=4) data=0xab050513[0m
0x80000e4c: ab 05 05 13 addi	a0, a0, -0x550
[1;34m[src/memory/paddr.c:97 mtrace_log] R: 0x80000e50 (len=4) data=0x00812c23[0m
[1;34m[src/memory/paddr.c:97 mtrace_log] W: 0x8009dfe8 (len=4) data=0x00000000[0m
0x80000e50: 00 81 2c 23 sw	s0, 0x18(sp)
[1;34m[src/memory/paddr.c:97 mtrace_log] R: 0x80000e54 (len=4) data=0x00912a23[0m
[1;34m[src/memory/paddr.c:97 mtrace_log] W: 0x8009dfe4 (len=4) data=0x00000000[0m
0x80000e54: 00 91 2a 23 sw	s1, 0x14(sp)
[1;34m[src/memory/paddr.c:97 mtrace_log] R: 0x80000e58 (len=4) data=0x01212823[0m
[1;34m[src/memory/paddr.c:97 mtrace_log] W: 0x8009dfe0 (len=4) data=0x00000000[0m
0x80000e58: 01 21 28 23 sw	s2, 0x10(sp)
[1;34m[src/memory/paddr.c:97 mtrace_log] R: 0x80000e5c (len=4) data=0x01312623[0m
[1;34m[src/memory/paddr.c:97 mtrace_log] W: 0x8009dfdc (len=4) data=0x00000000[0m
0x80000e5c: 01 31 26 23 sw	s3, 0xc(sp)
[1;34m[src/memory/paddr.c:97 mtrace_log] R: 0x80000e60 (len=4) data=0x00002497[0m
0x80000e60: 00 00 24 97 auipc	s1, 2
[1;34m[src/memory/paddr.c:97 mtrace_log] R: 0x80000e64 (len=4) data=0xe9848493[0m
0x80000e64: e9 84 84 93 addi	s1, s1, -0x168
[1;34m[src/memory/paddr.c:97 mtrace_log] R: 0x80000e68 (len=4) data=0x498010ef[0m
0x80000e68: 49 80 10 ef jal	0x1498
[1;34m[src/memory/paddr.c:97 mtrace_log] R: 0x80002300 (len=4) data=0xfc010113[0m
0x80002300: fc 01 01 13 addi	sp, sp, -0x40
[1;34m[src/memory/paddr.c:97 mtrace_log] R: 0x80002304 (len=4) data=0x02410313[0m
0x80002304: 02 41 03 13 addi	t1, sp, 0x24
[1;34m[src/memory/paddr.c:97 mtrace_log] R: 0x80002308 (len=4) data=0x02b12223[0m
[1;34m[src/memory/paddr.c:97 mtrace_log] W: 0x8009dfb4 (len=4) data=0x00000000[0m
0x80002308: 02 b1 22 23 sw	a1, 0x24(sp)
[1;34m[src/memory/paddr.c:97 mtrace_log] R: 0x8000230c (len=4) data=0x02c12423[0m
[1;34m[src/memory/paddr.c:97 mtrace_log] W: 0x8009dfb8 (len=4) data=0x00000000[0m
0x8000230c: 02 c1 24 23 sw	a2, 0x28(sp)
[1;34m[src/memory/paddr.c:97 mtrace_log] R: 0x80002310 (len=4) data=0x00050593[0m
0x80002310: 00 05 05 93 mv	a1, a0
[1;34m[src/memory/paddr.c:97 mtrace_log] R: 0x80002314 (len=4) data=0x00030613[0m
0x80002314: 00 03 06 13 mv	a2, t1
[1;34m[src/memory/paddr.c:97 mtrace_log] R: 0x80002318 (len=4) data=0x00093517[0m
0x80002318: 00 09 35 17 auipc	a0, 0x93
[1;34m[src/memory/paddr.c:97 mtrace_log] R: 0x8000231c (len=4) data=0x20450513[0m
0x8000231c: 20 45 05 13 addi	a0, a0, 0x204
[1;34m[src/memory/paddr.c:97 mtrace_log] R: 0x80002320 (len=4) data=0x02e12823[0m
[1;34m[src/memory/paddr.c:97 mtrace_log] W: 0x8009dfc0 (len=4) data=0x00000015[0m
0x80002320: 02 e1 28 23 sw	a4, 0x30(sp)
[1;34m[src/memory/paddr.c:97 mtrace_log] R: 0x80002324 (len=4) data=0x02f12a23[0m
[1;34m[src/memory/paddr.c:97 mtrace_log] W: 0x8009dfc4 (len=4) data=0x0000009f[0m
0x80002324: 02 f1 2a 23 sw	a5, 0x34(sp)
[1;34m[src/memory/paddr.c:97 mtrace_log] R: 0x80002328 (len=4) data=0x00112e23[0m
[1;34m[src/memory/paddr.c:97 mtrace_log] W: 0x8009dfac (len=4) data=0x80000e6c[0m
0x80002328: 00 11 2e 23 sw	ra, 0x1c(sp)
[1;34m[src/memory/paddr.c:97 mtrace_log] R: 0x8000232c (len=4) data=0x02d12623[0m
[1;34m[src/memory/paddr.c:97 mtrace_log] W: 0x8009dfbc (len=4) data=0x00000000[0m
0x8000232c: 02 d1 26 23 sw	a3, 0x2c(sp)
[1;34m[src/memory/paddr.c:97 mtrace_log] R: 0x80002330 (len=4) data=0x03012c23[0m
[1;34m[src/memory/paddr.c:97 mtrace_log] W: 0x8009dfc8 (len=4) data=0x00000000[0m
0x80002330: 03 01 2c 23 sw	a6, 0x38(sp)
[1;34m[src/memory/paddr.c:97 mtrace_log] R: 0x80002334 (len=4) data=0x03112e23[0m
[1;34m[src/memory/paddr.c:97 mtrace_log] W: 0x8009dfcc (len=4) data=0x00000000[0m
0x80002334: 03 11 2e 23 sw	a7, 0x3c(sp)
[1;34m[src/memory/paddr.c:97 mtrace_log] R: 0x80002338 (len=4) data=0x00612623[0m
[1;34m[src/memory/paddr.c:97 mtrace_log] W: 0x8009df9c (len=4) data=0x8009dfb4[0m
0x80002338: 00 61 26 23 sw	t1, 0xc(sp)
[1;34m[src/memory/paddr.c:97 mtrace_log] R: 0x8000233c (len=4) data=0xad5ff0ef[0m
0x8000233c: ad 5f f0 ef jal	-0x52c
[1;34m[src/memory/paddr.c:97 mtrace_log] R: 0x80001e10 (len=4) data=0xfb010113[0m
0x80001e10: fb 01 01 13 addi	sp, sp, -0x50
[1;34m[src/memory/paddr.c:97 mtrace_log] R: 0x80001e14 (len=4) data=0x03612823[0m
[1;34m[src/memory/paddr.c:97 mtrace_log] W: 0x8009df70 (len=4) data=0x00000000[0m
0x80001e14: 03 61 28 23 sw	s6, 0x30(sp)
[1;34m[src/memory/paddr.c:97 mtrace_log] R: 0x80001e18 (len=4) data=0x04112623[0m
[1;34m[src/memory/paddr.c:97 mtrace_log] W: 0x8009df8c (len=4) data=0x80002340[0m
0x80001e18: 04 11 26 23 sw	ra, 0x4c(sp)
[1;34m[src/memory/paddr.c:97 mtrace_log] R: 0x80001e1c (len=4) data=0x04912223[0m
[1;34m[src/memory/paddr.c:97 mtrace_log] W: 0x8009df84 (len=4) data=0x80002cf8[0m
0x80001e1c: 04 91 22 23 sw	s1, 0x44(sp)
[1;34m[src/memory/paddr.c:97 mtrace_log] R: 0x80001e20 (len=4) data=0x0005c783[0m
[1;34m[src/memory/paddr.c:97 mtrace_log] R: 0x800028f8 (len=1) data=0x00000055[0m
0x80001e20: 00 05 c7 83 lbu	a5, 0(a1)
[1;34m[src/memory/paddr.c:97 mtrace_log] R: 0x80001e24 (len=4) data=0x00050b13[0m
0x80001e24: 00 05 0b 13 mv	s6, a0
[1;34m[src/memory/paddr.c:97 mtrace_log] R: 0x80001e28 (len=4) data=0x44078a63[0m
0x80001e28: 44 07 8a 63 beqz	a5, 0x454
[1;34m[src/memory/paddr.c:97 mtrace_log] R: 0x80001e2c (len=4) data=0x05212023[0m
[1;34m[src/memory/paddr.c:97 mtrace_log] W: 0x8009df80 (len=4) data=0x00000000[0m
0x80001e2c: 05 21 20 23 sw	s2, 0x40(sp)
[1;34m[src/memory/paddr.c:97 mtrace_log] R: 0x80001e30 (len=4) data=0x03312e23[0m
[1;34m[src/memory/paddr.c:97 mtrace_log] W: 0x8009df7c (len=4) data=0x00000000[0m
0x80001e30: 03 31 2e 23 sw	s3, 0x3c(sp)
[1;34m[src/memory/paddr.c:97 mtrace_log] R: 0x80001e34 (len=4) data=0x03412c23[0m
[1;34m[src/memory/paddr.c:97 mtrace_log] W: 0x8009df78 (len=4) data=0x00000000[0m
0x80001e34: 03 41 2c 23 sw	s4, 0x38(sp)
[1;34m[src/memory/paddr.c:97 mtrace_log] R: 0x80001e38 (len=4) data=0x03512a23[0m
[1;34m[src/memory/paddr.c:97 mtrace_log] W: 0x8009df74 (len=4) data=0x00000000[0m
0x80001e38: 03 51 2a 23 sw	s5, 0x34(sp)
[1;34m[src/memory/paddr.c:97 mtrace_log] R: 0x80001e3c (len=4) data=0x03712623[0m
[1;34m[src/memory/paddr.c:97 mtrace_log] W: 0x8009df6c (len=4) data=0x00000000[0m
0x80001e3c: 03 71 26 23 sw	s7, 0x2c(sp)
[1;34m[src/memory/paddr.c:97 mtrace_log] R: 0x80001e40 (len=4) data=0x03812423[0m
[1;34m[src/memory/paddr.c:97 mtrace_log] W: 0x8009df68 (len=4) data=0x00000000[0m
0x80001e40: 03 81 24 23 sw	s8, 0x28(sp)
[1;34m[src/memory/paddr.c:97 mtrace_log] R: 0x80001e44 (len=4) data=0x03912223[0m
[1;34m[src/memory/paddr.c:97 mtrace_log] W: 0x8009df64 (len=4) data=0x00000000[0m
0x80001e44: 03 91 22 23 sw	s9, 0x24(sp)
[1;34m[src/memory/paddr.c:97 mtrace_log] R: 0x80001e48 (len=4) data=0x03a12023[0m
[1;34m[src/memory/paddr.c:97 mtrace_log] W: 0x8009df60 (len=4) data=0x00000000[0m
0x80001e48: 03 a1 20 23 sw	s10, 0x20(sp)
[1;34m[src/memory/paddr.c:97 mtrace_log] R: 0x80001e4c (len=4) data=0x04812423[0m
[1;34m[src/memory/paddr.c:97 mtrace_log] W: 0x8009df88 (len=4) data=0x00000000[0m
0x80001e4c: 04 81 24 23 sw	s0, 0x48(sp)
[1;34m[src/memory/paddr.c:97 mtrace_log] R: 0x80001e50 (len=4) data=0x00060a13[0m
0x80001e50: 00 06 0a 13 mv	s4, a2
[1;34m[src/memory/paddr.c:97 mtrace_log] R: 0x80001e54 (len=4) data=0x00050493[0m
0x80001e54: 00 05 04 93 mv	s1, a0
[1;34m[src/memory/paddr.c:97 mtrace_log] R: 0x80001e58 (len=4) data=0x02500a93[0m
0x80001e58: 02 50 0a 93 addi	s5, zero, 0x25
[1;34m[src/memory/paddr.c:97 mtrace_log] R: 0x80001e5c (len=4) data=0x01000993[0m
0x80001e5c: 01 00 09 93 addi	s3, zero, 0x10
[1;34m[src/memory/paddr.c:97 mtrace_log] R: 0x80001e60 (len=4) data=0x00001917[0m
0x80001e60: 00 00 19 17 auipc	s2, 1
[1;34m[src/memory/paddr.c:97 mtrace_log] R: 0x80001e64 (len=4) data=0x2d890913[0m
0x80001e64: 2d 89 09 13 addi	s2, s2, 0x2d8
[1;34m[src/memory/paddr.c:97 mtrace_log] R: 0x80001e68 (len=4) data=0x00900d13[0m
0x80001e68: 00 90 0d 13 addi	s10, zero, 9
[1;34m[src/memory/paddr.c:97 mtrace_log] R: 0x80001e6c (len=4) data=0x02e00c93[0m
0x80001e6c: 02 e0 0c 93 addi	s9, zero, 0x2e
[1;34m[src/memory/paddr.c:97 mtrace_log] R: 0x80001e70 (len=4) data=0x06800c13[0m
0x80001e70: 06 80 0c 13 addi	s8, zero, 0x68
[1;34m[src/memory/paddr.c:97 mtrace_log] R: 0x80001e74 (len=4) data=0x00001b97[0m
0x80001e74: 00 00 1b 97 auipc	s7, 1
[1;34m[src/memory/paddr.c:97 mtrace_log] R: 0x80001e78 (len=4) data=0x308b8b93[0m
0x80001e78: 30 8b 8b 93 addi	s7, s7, 0x308
[1;34m[src/memory/paddr.c:97 mtrace_log] R: 0x80001e7c (len=4) data=0x05578c63[0m
0x80001e7c: 05 57 8c 63 beq	a5, s5, 0x58
[1;34m[src/memory/paddr.c:97 mtrace_log] R: 0x80001e80 (len=4) data=0x00f48023[0m
[1;34m[src/memory/paddr.c:97 mtrace_log] W: 0x8009551c (len=1) data=0x00000055[0m
0x80001e80: 00 f4 80 23 sb	a5, 0(s1)
[1;34m[src/memory/paddr.c:97 mtrace_log] R: 0x80001e84 (len=4) data=0x0015c783[0m
[1;34m[src/memory/paddr.c:97 mtrace_log] R: 0x800028f9 (len=1) data=0x00000073[0m
0x80001e84: 00 15 c7 83 lbu	a5, 1(a1)
[1;34m[src/memory/paddr.c:97 mtrace_log] R: 0x80001e88 (len=4) data=0x00148493[0m
0x80001e88: 00 14 84 93 addi	s1, s1, 1
[1;34m[src/memory/paddr.c:97 mtrace_log] R: 0x80001e8c (len=4) data=0x00158593[0m
0x80001e8c: 00 15 85 93 addi	a1, a1, 1
[1;34m[src/memory/paddr.c:97 mtrace_log] R: 0x80001e90 (len=4) data=0xfe0796e3[0m
0x80001e90: fe 07 96 e3 bnez	a5, -0x14
[1;34m[src/memory/paddr.c:97 mtrace_log] R: 0x80001e7c (len=4) data=0x05578c63[0m
0x80001e7c: 05 57 8c 63 beq	a5, s5, 0x58
[1;34m[src/memory/paddr.c:97 mtrace_log] R: 0x80001e80 (len=4) data=0x00f48023[0m
[1;34m[src/memory/paddr.c:97 mtrace_log] W: 0x8009551d (len=1) data=0x00000073[0m
0x80001e80: 00 f4 80 23 sb	a5, 0(s1)
[1;34m[src/memory/paddr.c:97 mtrace_log] R: 0x80001e84 (len=4) data=0x0015c783[0m
[1;34m[src/memory/paddr.c:97 mtrace_log] R: 0x800028fa (len=1) data=0x00000061[0m
0x80001e84: 00 15 c7 83 lbu	a5, 1(a1)
[1;34m[src/memory/paddr.c:97 mtrace_log] R: 0x80001e88 (len=4) data=0x00148493[0m
0x80001e88: 00 14 84 93 addi	s1, s1, 1
[1;34m[src/memory/paddr.c:97 mtrace_log] R: 0x80001e8c (len=4) data=0x00158593[0m
0x80001e8c: 00 15 85 93 addi	a1, a1, 1
[1;34m[src/memory/paddr.c:97 mtrace_log] R: 0x80001e90 (len=4) data=0xfe0796e3[0m
0x80001e90: fe 07 96 e3 bnez	a5, -0x14
[1;34m[src/memory/paddr.c:97 mtrace_log] R: 0x80001e7c (len=4) data=0x05578c63[0m
0x80001e7c: 05 57 8c 63 beq	a5, s5, 0x58
[1;34m[src/memory/paddr.c:97 mtrace_log] R: 0x80001e80 (len=4) data=0x00f48023[0m
[1;34m[src/memory/paddr.c:97 mtrace_log] W: 0x8009551e (len=1) data=0x00000061[0m
0x80001e80: 00 f4 80 23 sb	a5, 0(s1)
[1;34m[src/memory/paddr.c:97 mtrace_log] R: 0x80001e84 (len=4) data=0x0015c783[0m
[1;34m[src/memory/paddr.c:97 mtrace_log] R: 0x800028fb (len=1) data=0x00000067[0m
0x80001e84: 00 15 c7 83 lbu	a5, 1(a1)
[1;34m[src/memory/paddr.c:97 mtrace_log] R: 0x80001e88 (len=4) data=0x00148493[0m
0x80001e88: 00 14 84 93 addi	s1, s1, 1
[1;34m[src/memory/paddr.c:97 mtrace_log] R: 0x80001e8c (len=4) data=0x00158593[0m
0x80001e8c: 00 15 85 93 addi	a1, a1, 1
[1;34m[src/memory/paddr.c:97 mtrace_log] R: 0x80001e90 (len=4) data=0xfe0796e3[0m
0x80001e90: fe 07 96 e3 bnez	a5, -0x14
[1;34m[src/memory/paddr.c:97 mtrace_log] R: 0x80001e7c (len=4) data=0x05578c63[0m
0x80001e7c: 05 57 8c 63 beq	a5, s5, 0x58
[1;34m[src/memory/paddr.c:97 mtrace_log] R: 0x80001e80 (len=4) data=0x00f48023[0m
[1;34m[src/memory/paddr.c:97 mtrace_log] W: 0x8009551f (len=1) data=0x00000067[0m
0x80001e80: 00 f4 80 23 sb	a5, 0(s1)
[1;34m[src/memory/paddr.c:97 mtrace_log] R: 0x80001e84 (len=4) data=0x0015c783[0m
[1;34m[src/memory/paddr.c:97 mtrace_log] R: 0x800028fc (len=1) data=0x00000065[0m
0x80001e84: 00 15 c7 83 lbu	a5, 1(a1)
[1;34m[src/memory/paddr.c:97 mtrace_log] R: 0x80001e88 (len=4) data=0x00148493[0m
0x80001e88: 00 14 84 93 addi	s1, s1, 1
[1;34m[src/memory/paddr.c:97 mtrace_log] R: 0x80001e8c (len=4) data=0x00158593[0m
0x80001e8c: 00 15 85 93 addi	a1, a1, 1
[1;34m[src/memory/paddr.c:97 mtrace_log] R: 0x80001e90 (len=4) data=0xfe0796e3[0m
0x80001e90: fe 07 96 e3 bnez	a5, -0x14
[1;34m[src/memory/paddr.c:97 mtrace_log] R: 0x80001e7c (len=4) data=0x05578c63[0m
0x80001e7c: 05 57 8c 63 beq	a5, s5, 0x58
[1;34m[src/memory/paddr.c:97 mtrace_log] R: 0x80001e80 (len=4) data=0x00f48023[0m
[1;34m[src/memory/paddr.c:97 mtrace_log] W: 0x80095520 (len=1) data=0x00000065[0m
0x80001e80: 00 f4 80 23 sb	a5, 0(s1)
[1;34m[src/memory/paddr.c:97 mtrace_log] R: 0x80001e84 (len=4) data=0x0015c783[0m
[1;34m[src/memory/paddr.c:97 mtrace_log] R: 0x800028fd (len=1) data=0x0000003a[0m
0x80001e84: 00 15 c7 83 lbu	a5, 1(a1)
[1;34m[src/memory/paddr.c:97 mtrace_log] R: 0x80001e88 (len=4) data=0x00148493[0m
0x80001e88: 00 14 84 93 addi	s1, s1, 1
[1;34m[src/memory/paddr.c:97 mtrace_log] R: 0x80001e8c (len=4) data=0x00158593[0m
0x80001e8c: 00 15 85 93 addi	a1, a1, 1
[1;34m[src/memory/paddr.c:97 mtrace_log] R: 0x80001e90 (len=4) data=0xfe0796e3[0m
0x80001e90: fe 07 96 e3 bnez	a5, -0x14
[1;34m[src/memory/paddr.c:97 mtrace_log] R: 0x80001e7c (len=4) data=0x05578c63[0m
0x80001e7c: 05 57 8c 63 beq	a5, s5, 0x58
[1;34m[src/memory/paddr.c:97 mtrace_log] R: 0x80001e80 (len=4) data=0x00f48023[0m
[1;34m[src/memory/paddr.c:97 mtrace_log] W: 0x80095521 (len=1) data=0x0000003a[0m
0x80001e80: 00 f4 80 23 sb	a5, 0(s1)
[1;34m[src/memory/paddr.c:97 mtrace_log] R: 0x80001e84 (len=4) data=0x0015c783[0m
[1;34m[src/memory/paddr.c:97 mtrace_log] R: 0x800028fe (len=1) data=0x00000020[0m
0x80001e84: 00 15 c7 83 lbu	a5, 1(a1)
[1;34m[src/memory/paddr.c:97 mtrace_log] R: 0x80001e88 (len=4) data=0x00148493[0m
0x80001e88: 00 14 84 93 addi	s1, s1, 1
[1;34m[src/memory/paddr.c:97 mtrace_log] R: 0x80001e8c (len=4) data=0x00158593[0m
0x80001e8c: 00 15 85 93 addi	a1, a1, 1
[1;34m[src/memory/paddr.c:97 mtrace_log] R: 0x80001e90 (len=4) data=0xfe0796e3[0m
0x80001e90: fe 07 96 e3 bnez	a5, -0x14
[1;34m[src/memory/paddr.c:97 mtrace_log] R: 0x80001e7c (len=4) data=0x05578c63[0m
0x80001e7c: 05 57 8c 63 beq	a5, s5, 0x58
[1;34m[src/memory/paddr.c:97 mtrace_log] R: 0x80001e80 (len=4) data=0x00f48023[0m
[1;34m[src/memory/paddr.c:97 mtrace_log] W: 0x80095522 (len=1) data=0x00000020[0m
0x80001e80: 00 f4 80 23 sb	a5, 0(s1)
[1;34m[src/memory/paddr.c:97 mtrace_log] R: 0x80001e84 (len=4) data=0x0015c783[0m
[1;34m[src/memory/paddr.c:97 mtrace_log] R: 0x800028ff (len=1) data=0x0000006d[0m
0x80001e84: 00 15 c7 83 lbu	a5, 1(a1)
[1;34m[src/memory/paddr.c:97 mtrace_log] R: 0x80001e88 (len=4) data=0x00148493[0m
0x80001e88: 00 14 84 93 addi	s1, s1, 1
[1;34m[src/memory/paddr.c:97 mtrace_log] R: 0x80001e8c (len=4) data=0x00158593[0m
0x80001e8c: 00 15 85 93 addi	a1, a1, 1
[1;34m[src/memory/paddr.c:97 mtrace_log] R: 0x80001e90 (len=4) data=0xfe0796e3[0m
0x80001e90: fe 07 96 e3 bnez	a5, -0x14
[1;34m[src/memory/paddr.c:97 mtrace_log] R: 0x80001e7c (len=4) data=0x05578c63[0m
0x80001e7c: 05 57 8c 63 beq	a5, s5, 0x58
[1;34m[src/memory/paddr.c:97 mtrace_log] R: 0x80001e80 (len=4) data=0x00f48023[0m
[1;34m[src/memory/paddr.c:97 mtrace_log] W: 0x80095523 (len=1) data=0x0000006d[0m
0x80001e80: 00 f4 80 23 sb	a5, 0(s1)
[1;34m[src/memory/paddr.c:97 mtrace_log] R: 0x80001e84 (len=4) data=0x0015c783[0m
[1;34m[src/memory/paddr.c:97 mtrace_log] R: 0x80002900 (len=1) data=0x00000061[0m
0x80001e84: 00 15 c7 83 lbu	a5, 1(a1)
[1;34m[src/memory/paddr.c:97 mtrace_log] R: 0x80001e88 (len=4) data=0x00148493[0m
0x80001e88: 00 14 84 93 addi	s1, s1, 1
[1;34m[src/memory/paddr.c:97 mtrace_log] R: 0x80001e8c (len=4) data=0x00158593[0m
0x80001e8c: 00 15 85 93 addi	a1, a1, 1
[1;34m[src/memory/paddr.c:97 mtrace_log] R: 0x80001e90 (len=4) data=0xfe0796e3[0m
0x80001e90: fe 07 96 e3 bnez	a5, -0x14
[1;34m[src/memory/paddr.c:97 mtrace_log] R: 0x80001e7c (len=4) data=0x05578c63[0m
0x80001e7c: 05 57 8c 63 beq	a5, s5, 0x58
[1;34m[src/memory/paddr.c:97 mtrace_log] R: 0x80001e80 (len=4) data=0x00f48023[0m
[1;34m[src/memory/paddr.c:97 mtrace_log] W: 0x80095524 (len=1) data=0x00000061[0m
0x80001e80: 00 f4 80 23 sb	a5, 0(s1)
[1;34m[src/memory/paddr.c:97 mtrace_log] R: 0x80001e84 (len=4) data=0x0015c783[0m
[1;34m[src/memory/paddr.c:97 mtrace_log] R: 0x80002901 (len=1) data=0x0000006b[0m
0x80001e84: 00 15 c7 83 lbu	a5, 1(a1)
[1;34m[src/memory/paddr.c:97 mtrace_log] R: 0x80001e88 (len=4) data=0x00148493[0m
0x80001e88: 00 14 84 93 addi	s1, s1, 1
[1;34m[src/memory/paddr.c:97 mtrace_log] R: 0x80001e8c (len=4) data=0x00158593[0m
0x80001e8c: 00 15 85 93 addi	a1, a1, 1
[1;34m[src/memory/paddr.c:97 mtrace_log] R: 0x80001e90 (len=4) data=0xfe0796e3[0m
0x80001e90: fe 07 96 e3 bnez	a5, -0x14
[1;34m[src/memory/paddr.c:97 mtrace_log] R: 0x80001e7c (len=4) data=0x05578c63[0m
0x80001e7c: 05 57 8c 63 beq	a5, s5, 0x58
[1;34m[src/memory/paddr.c:97 mtrace_log] R: 0x80001e80 (len=4) data=0x00f48023[0m
[1;34m[src/memory/paddr.c:97 mtrace_log] W: 0x80095525 (len=1) data=0x0000006b[0m
0x80001e80: 00 f4 80 23 sb	a5, 0(s1)
[1;34m[src/memory/paddr.c:97 mtrace_log] R: 0x80001e84 (len=4) data=0x0015c783[0m
[1;34m[src/memory/paddr.c:97 mtrace_log] R: 0x80002902 (len=1) data=0x00000065[0m
0x80001e84: 00 15 c7 83 lbu	a5, 1(a1)
[1;34m[src/memory/paddr.c:97 mtrace_log] R: 0x80001e88 (len=4) data=0x00148493[0m
0x80001e88: 00 14 84 93 addi	s1, s1, 1
[1;34m[src/memory/paddr.c:97 mtrace_log] R: 0x80001e8c (len=4) data=0x00158593[0m
0x80001e8c: 00 15 85 93 addi	a1, a1, 1
[1;34m[src/memory/paddr.c:97 mtrace_log] R: 0x80001e90 (len=4) data=0xfe0796e3[0m
0x80001e90: fe 07 96 e3 bnez	a5, -0x14
[1;34m[src/memory/paddr.c:97 mtrace_log] R: 0x80001e7c (len=4) data=0x05578c63[0m
0x80001e7c: 05 57 8c 63 beq	a5, s5, 0x58
[1;34m[src/memory/paddr.c:97 mtrace_log] R: 0x80001e80 (len=4) data=0x00f48023[0m
[1;34m[src/memory/paddr.c:97 mtrace_log] W: 0x80095526 (len=1) data=0x00000065[0m
0x80001e80: 00 f4 80 23 sb	a5, 0(s1)
[1;34m[src/memory/paddr.c:97 mtrace_log] R: 0x80001e84 (len=4) data=0x0015c783[0m
[1;34m[src/memory/paddr.c:97 mtrace_log] R: 0x80002903 (len=1) data=0x00000020[0m
0x80001e84: 00 15 c7 83 lbu	a5, 1(a1)
[1;34m[src/memory/paddr.c:97 mtrace_log] R: 0x80001e88 (len=4) data=0x00148493[0m
0x80001e88: 00 14 84 93 addi	s1, s1, 1
[1;34m[src/memory/paddr.c:97 mtrace_log] R: 0x80001e8c (len=4) data=0x00158593[0m
0x80001e8c: 00 15 85 93 addi	a1, a1, 1
[1;34m[src/memory/paddr.c:97 mtrace_log] R: 0x80001e90 (len=4) data=0xfe0796e3[0m
0x80001e90: fe 07 96 e3 bnez	a5, -0x14
[1;34m[src/memory/paddr.c:97 mtrace_log] R: 0x80001e7c (len=4) data=0x05578c63[0m
0x80001e7c: 05 57 8c 63 beq	a5, s5, 0x58
[1;34m[src/memory/paddr.c:97 mtrace_log] R: 0x80001e80 (len=4) data=0x00f48023[0m
[1;34m[src/memory/paddr.c:97 mtrace_log] W: 0x80095527 (len=1) data=0x00000020[0m
0x80001e80: 00 f4 80 23 sb	a5, 0(s1)
[1;34m[src/memory/paddr.c:97 mtrace_log] R: 0x80001e84 (len=4) data=0x0015c783[0m
[1;34m[src/memory/paddr.c:97 mtrace_log] R: 0x80002904 (len=1) data=0x00000072[0m
0x80001e84: 00 15 c7 83 lbu	a5, 1(a1)
[1;34m[src/memory/paddr.c:97 mtrace_log] R: 0x80001e88 (len=4) data=0x00148493[0m
0x80001e88: 00 14 84 93 addi	s1, s1, 1
[1;34m[src/memory/paddr.c:97 mtrace_log] R: 0x80001e8c (len=4) data=0x00158593[0m
0x80001e8c: 00 15 85 93 addi	a1, a1, 1
[1;34m[src/memory/paddr.c:97 mtrace_log] R: 0x80001e90 (len=4) data=0xfe0796e3[0m
0x80001e90: fe 07 96 e3 bnez	a5, -0x14
[1;34m[src/memory/paddr.c:97 mtrace_log] R: 0x80001e7c (len=4) data=0x05578c63[0m
0x80001e7c: 05 57 8c 63 beq	a5, s5, 0x58
[1;34m[src/memory/paddr.c:97 mtrace_log] R: 0x80001e80 (len=4) data=0x00f48023[0m
[1;34m[src/memory/paddr.c:97 mtrace_log] W: 0x80095528 (len=1) data=0x00000072[0m
0x80001e80: 00 f4 80 23 sb	a5, 0(s1)
[1;34m[src/memory/paddr.c:97 mtrace_log] R: 0x80001e84 (len=4) data=0x0015c783[0m
[1;34m[src/memory/paddr.c:97 mtrace_log] R: 0x80002905 (len=1) data=0x00000075[0m
0x80001e84: 00 15 c7 83 lbu	a5, 1(a1)
[1;34m[src/memory/paddr.c:97 mtrace_log] R: 0x80001e88 (len=4) data=0x00148493[0m
0x80001e88: 00 14 84 93 addi	s1, s1, 1
[1;34m[src/memory/paddr.c:97 mtrace_log] R: 0x80001e8c (len=4) data=0x00158593[0m
0x80001e8c: 00 15 85 93 addi	a1, a1, 1
[1;34m[src/memory/paddr.c:97 mtrace_log] R: 0x80001e90 (len=4) data=0xfe0796e3[0m
0x80001e90: fe 07 96 e3 bnez	a5, -0x14
[1;34m[src/memory/paddr.c:97 mtrace_log] R: 0x80001e7c (len=4) data=0x05578c63[0m
0x80001e7c: 05 57 8c 63 beq	a5, s5, 0x58
[1;34m[src/memory/paddr.c:97 mtrace_log] R: 0x80001e80 (len=4) data=0x00f48023[0m
[1;34m[src/memory/paddr.c:97 mtrace_log] W: 0x80095529 (len=1) data=0x00000075[0m
0x80001e80: 00 f4 80 23 sb	a5, 0(s1)
[1;34m[src/memory/paddr.c:97 mtrace_log] R: 0x80001e84 (len=4) data=0x0015c783[0m
[1;34m[src/memory/paddr.c:97 mtrace_log] R: 0x80002906 (len=1) data=0x0000006e[0m
0x80001e84: 00 15 c7 83 lbu	a5, 1(a1)
[1;34m[src/memory/paddr.c:97 mtrace_log] R: 0x80001e88 (len=4) data=0x00148493[0m
0x80001e88: 00 14 84 93 addi	s1, s1, 1
[1;34m[src/memory/paddr.c:97 mtrace_log] R: 0x80001e8c (len=4) data=0x00158593[0m
0x80001e8c: 00 15 85 93 addi	a1, a1, 1
[1;34m[src/memory/paddr.c:97 mtrace_log] R: 0x80001e90 (len=4) data=0xfe0796e3[0m
0x80001e90: fe 07 96 e3 bnez	a5, -0x14
[1;34m[src/memory/paddr.c:97 mtrace_log] R: 0x80001e7c (len=4) data=0x05578c63[0m
0x80001e7c: 05 57 8c 63 beq	a5, s5, 0x58
[1;34m[src/memory/paddr.c:97 mtrace_log] R: 0x80001e80 (len=4) data=0x00f48023[0m
[1;34m[src/memory/paddr.c:97 mtrace_log] W: 0x8009552a (len=1) data=0x0000006e[0m
0x80001e80: 00 f4 80 23 sb	a5, 0(s1)
[1;34m[src/memory/paddr.c:97 mtrace_log] R: 0x80001e84 (len=4) data=0x0015c783[0m
[1;34m[src/memory/paddr.c:97 mtrace_log] R: 0x80002907 (len=1) data=0x00000020[0m
0x80001e84: 00 15 c7 83 lbu	a5, 1(a1)
[1;34m[src/memory/paddr.c:97 mtrace_log] R: 0x80001e88 (len=4) data=0x00148493[0m
0x80001e88: 00 14 84 93 addi	s1, s1, 1
[1;34m[src/memory/paddr.c:97 mtrace_log] R: 0x80001e8c (len=4) data=0x00158593[0m
0x80001e8c: 00 15 85 93 addi	a1, a1, 1
[1;34m[src/memory/paddr.c:97 mtrace_log] R: 0x80001e90 (len=4) data=0xfe0796e3[0m
0x80001e90: fe 07 96 e3 bnez	a5, -0x14
[1;34m[src/memory/paddr.c:97 mtrace_log] R: 0x80001e7c (len=4) data=0x05578c63[0m
0x80001e7c: 05 57 8c 63 beq	a5, s5, 0x58
[1;34m[src/memory/paddr.c:97 mtrace_log] R: 0x80001e80 (len=4) data=0x00f48023[0m
[1;34m[src/memory/paddr.c:97 mtrace_log] W: 0x8009552b (len=1) data=0x00000020[0m
0x80001e80: 00 f4 80 23 sb	a5, 0(s1)
[1;34m[src/memory/paddr.c:97 mtrace_log] R: 0x80001e84 (len=4) data=0x0015c783[0m
[1;34m[src/memory/paddr.c:97 mtrace_log] R: 0x80002908 (len=1) data=0x0000006d[0m
0x80001e84: 00 15 c7 83 lbu	a5, 1(a1)
[1;34m[src/memory/paddr.c:97 mtrace_log] R: 0x80001e88 (len=4) data=0x00148493[0m
0x80001e88: 00 14 84 93 addi	s1, s1, 1
[1;34m[src/memory/paddr.c:97 mtrace_log] R: 0x80001e8c (len=4) data=0x00158593[0m
0x80001e8c: 00 15 85 93 addi	a1, a1, 1
[1;34m[src/memory/paddr.c:97 mtrace_log] R: 0x80001e90 (len=4) data=0xfe0796e3[0m
0x80001e90: fe 07 96 e3 bnez	a5, -0x14
[1;34m[src/memory/paddr.c:97 mtrace_log] R: 0x80001e7c (len=4) data=0x05578c63[0m
0x80001e7c: 05 57 8c 63 beq	a5, s5, 0x58
[1;34m[src/memory/paddr.c:97 mtrace_log] R: 0x80001e80 (len=4) data=0x00f48023[0m
[1;34m[src/memory/paddr.c:97 mtrace_log] W: 0x8009552c (len=1) data=0x0000006d[0m
0x80001e80: 00 f4 80 23 sb	a5, 0(s1)
[1;34m[src/memory/paddr.c:97 mtrace_log] R: 0x80001e84 (len=4) data=0x0015c783[0m
[1;34m[src/memory/paddr.c:97 mtrace_log] R: 0x80002909 (len=1) data=0x00000061[0m
0x80001e84: 00 15 c7 83 lbu	a5, 1(a1)
[1;34m[src/memory/paddr.c:97 mtrace_log] R: 0x80001e88 (len=4) data=0x00148493[0m
0x80001e88: 00 14 84 93 addi	s1, s1, 1
[1;34m[src/memory/paddr.c:97 mtrace_log] R: 0x80001e8c (len=4) data=0x00158593[0m
0x80001e8c: 00 15 85 93 addi	a1, a1, 1
[1;34m[src/memory/paddr.c:97 mtrace_log] R: 0x80001e90 (len=4) data=0xfe0796e3[0m
0x80001e90: fe 07 96 e3 bnez	a5, -0x14
[1;34m[src/memory/paddr.c:97 mtrace_log] R: 0x80001e7c (len=4) data=0x05578c63[0m
0x80001e7c: 05 57 8c 63 beq	a5, s5, 0x58
[1;34m[src/memory/paddr.c:97 mtrace_log] R: 0x80001e80 (len=4) data=0x00f48023[0m
[1;34m[src/memory/paddr.c:97 mtrace_log] W: 0x8009552d (len=1) data=0x00000061[0m
0x80001e80: 00 f4 80 23 sb	a5, 0(s1)
[1;34m[src/memory/paddr.c:97 mtrace_log] R: 0x80001e84 (len=4) data=0x0015c783[0m
[1;34m[src/memory/paddr.c:97 mtrace_log] R: 0x8000290a (len=1) data=0x00000069[0m
0x80001e84: 00 15 c7 83 lbu	a5, 1(a1)
[1;34m[src/memory/paddr.c:97 mtrace_log] R: 0x80001e88 (len=4) data=0x00148493[0m
0x80001e88: 00 14 84 93 addi	s1, s1, 1
[1;34m[src/memory/paddr.c:97 mtrace_log] R: 0x80001e8c (len=4) data=0x00158593[0m
0x80001e8c: 00 15 85 93 addi	a1, a1, 1
[1;34m[src/memory/paddr.c:97 mtrace_log] R: 0x80001e90 (len=4) data=0xfe0796e3[0m
0x80001e90: fe 07 96 e3 bnez	a5, -0x14
[1;34m[src/memory/paddr.c:97 mtrace_log] R: 0x80001e7c (len=4) data=0x05578c63[0m
0x80001e7c: 05 57 8c 63 beq	a5, s5, 0x58
[1;34m[src/memory/paddr.c:97 mtrace_log] R: 0x80001e80 (len=4) data=0x00f48023[0m
[1;34m[src/memory/paddr.c:97 mtrace_log] W: 0x8009552e (len=1) data=0x00000069[0m
0x80001e80: 00 f4 80 23 sb	a5, 0(s1)
[1;34m[src/memory/paddr.c:97 mtrace_log] R: 0x80001e84 (len=4) data=0x0015c783[0m
[1;34m[src/memory/paddr.c:97 mtrace_log] R: 0x8000290b (len=1) data=0x0000006e[0m
0x80001e84: 00 15 c7 83 lbu	a5, 1(a1)
[1;34m[src/memory/paddr.c:97 mtrace_log] R: 0x80001e88 (len=4) data=0x00148493[0m
0x80001e88: 00 14 84 93 addi	s1, s1, 1
[1;34m[src/memory/paddr.c:97 mtrace_log] R: 0x80001e8c (len=4) data=0x00158593[0m
0x80001e8c: 00 15 85 93 addi	a1, a1, 1
[1;34m[src/memory/paddr.c:97 mtrace_log] R: 0x80001e90 (len=4) data=0xfe0796e3[0m
0x80001e90: fe 07 96 e3 bnez	a5, -0x14
[1;34m[src/memory/paddr.c:97 mtrace_log] R: 0x80001e7c (len=4) data=0x05578c63[0m
0x80001e7c: 05 57 8c 63 beq	a5, s5, 0x58
[1;34m[src/memory/paddr.c:97 mtrace_log] R: 0x80001e80 (len=4) data=0x00f48023[0m
[1;34m[src/memory/paddr.c:97 mtrace_log] W: 0x8009552f (len=1) data=0x0000006e[0m
0x80001e80: 00 f4 80 23 sb	a5, 0(s1)
[1;34m[src/memory/paddr.c:97 mtrace_log] R: 0x80001e84 (len=4) data=0x0015c783[0m
[1;34m[src/memory/paddr.c:97 mtrace_log] R: 0x8000290c (len=1) data=0x00000061[0m
0x80001e84: 00 15 c7 83 lbu	a5, 1(a1)
[1;34m[src/memory/paddr.c:97 mtrace_log] R: 0x80001e88 (len=4) data=0x00148493[0m
0x80001e88: 00 14 84 93 addi	s1, s1, 1
[1;34m[src/memory/paddr.c:97 mtrace_log] R: 0x80001e8c (len=4) data=0x00158593[0m
0x80001e8c: 00 15 85 93 addi	a1, a1, 1
[1;34m[src/memory/paddr.c:97 mtrace_log] R: 0x80001e90 (len=4) data=0xfe0796e3[0m
0x80001e90: fe 07 96 e3 bnez	a5, -0x14
[1;34m[src/memory/paddr.c:97 mtrace_log] R: 0x80001e7c (len=4) data=0x05578c63[0m
0x80001e7c: 05 57 8c 63 beq	a5, s5, 0x58
[1;34m[src/memory/paddr.c:97 mtrace_log] R: 0x80001e80 (len=4) data=0x00f48023[0m
[1;34m[src/memory/paddr.c:97 mtrace_log] W: 0x80095530 (len=1) data=0x00000061[0m
0x80001e80: 00 f4 80 23 sb	a5, 0(s1)
[1;34m[src/memory/paddr.c:97 mtrace_log] R: 0x80001e84 (len=4) data=0x0015c783[0m
[1;34m[src/memory/paddr.c:97 mtrace_log] R: 0x8000290d (len=1) data=0x00000072[0m
0x80001e84: 00 15 c7 83 lbu	a5, 1(a1)
[1;34m[src/memory/paddr.c:97 mtrace_log] R: 0x80001e88 (len=4) data=0x00148493[0m
0x80001e88: 00 14 84 93 addi	s1, s1, 1
[1;34m[src/memory/paddr.c:97 mtrace_log] R: 0x80001e8c (len=4) data=0x00158593[0m
0x80001e8c: 00 15 85 93 addi	a1, a1, 1
[1;34m[src/memory/paddr.c:97 mtrace_log] R: 0x80001e90 (len=4) data=0xfe0796e3[0m
0x80001e90: fe 07 96 e3 bnez	a5, -0x14
[1;34m[src/memory/paddr.c:97 mtrace_log] R: 0x80001e7c (len=4) data=0x05578c63[0m
0x80001e7c: 05 57 8c 63 beq	a5, s5, 0x58
[1;34m[src/memory/paddr.c:97 mtrace_log] R: 0x80001e80 (len=4) data=0x00f48023[0m
[1;34m[src/memory/paddr.c:97 mtrace_log] W: 0x80095531 (len=1) data=0x00000072[0m
0x80001e80: 00 f4 80 23 sb	a5, 0(s1)
[1;34m[src/memory/paddr.c:97 mtrace_log] R: 0x80001e84 (len=4) data=0x0015c783[0m
[1;34m[src/memory/paddr.c:97 mtrace_log] R: 0x8000290e (len=1) data=0x00000067[0m
0x80001e84: 00 15 c7 83 lbu	a5, 1(a1)
[1;34m[src/memory/paddr.c:97 mtrace_log] R: 0x80001e88 (len=4) data=0x00148493[0m
0x80001e88: 00 14 84 93 addi	s1, s1, 1
[1;34m[src/memory/paddr.c:97 mtrace_log] R: 0x80001e8c (len=4) data=0x00158593[0m
0x80001e8c: 00 15 85 93 addi	a1, a1, 1
[1;34m[src/memory/paddr.c:97 mtrace_log] R: 0x80001e90 (len=4) data=0xfe0796e3[0m
0x80001e90: fe 07 96 e3 bnez	a5, -0x14
[1;34m[src/memory/paddr.c:97 mtrace_log] R: 0x80001e7c (len=4) data=0x05578c63[0m
0x80001e7c: 05 57 8c 63 beq	a5, s5, 0x58
[1;34m[src/memory/paddr.c:97 mtrace_log] R: 0x80001e80 (len=4) data=0x00f48023[0m
[1;34m[src/memory/paddr.c:97 mtrace_log] W: 0x80095532 (len=1) data=0x00000067[0m
0x80001e80: 00 f4 80 23 sb	a5, 0(s1)
[1;34m[src/memory/paddr.c:97 mtrace_log] R: 0x80001e84 (len=4) data=0x0015c783[0m
[1;34m[src/memory/paddr.c:97 mtrace_log] R: 0x8000290f (len=1) data=0x00000073[0m
0x80001e84: 00 15 c7 83 lbu	a5, 1(a1)
[1;34m[src/memory/paddr.c:97 mtrace_log] R: 0x80001e88 (len=4) data=0x00148493[0m
0x80001e88: 00 14 84 93 addi	s1, s1, 1
[1;34m[src/memory/paddr.c:97 mtrace_log] R: 0x80001e8c (len=4) data=0x00158593[0m
0x80001e8c: 00 15 85 93 addi	a1, a1, 1
[1;34m[src/memory/paddr.c:97 mtrace_log] R: 0x80001e90 (len=4) data=0xfe0796e3[0m
0x80001e90: fe 07 96 e3 bnez	a5, -0x14
[1;34m[src/memory/paddr.c:97 mtrace_log] R: 0x80001e7c (len=4) data=0x05578c63[0m
0x80001e7c: 05 57 8c 63 beq	a5, s5, 0x58
[1;34m[src/memory/paddr.c:97 mtrace_log] R: 0x80001e80 (len=4) data=0x00f48023[0m
[1;34m[src/memory/paddr.c:97 mtrace_log] W: 0x80095533 (len=1) data=0x00000073[0m
0x80001e80: 00 f4 80 23 sb	a5, 0(s1)
[1;34m[src/memory/paddr.c:97 mtrace_log] R: 0x80001e84 (len=4) data=0x0015c783[0m
[1;34m[src/memory/paddr.c:97 mtrace_log] R: 0x80002910 (len=1) data=0x0000003d[0m
0x80001e84: 00 15 c7 83 lbu	a5, 1(a1)
[1;34m[src/memory/paddr.c:97 mtrace_log] R: 0x80001e88 (len=4) data=0x00148493[0m
0x80001e88: 00 14 84 93 addi	s1, s1, 1
[1;34m[src/memory/paddr.c:97 mtrace_log] R: 0x80001e8c (len=4) data=0x00158593[0m
0x80001e8c: 00 15 85 93 addi	a1, a1, 1
[1;34m[src/memory/paddr.c:97 mtrace_log] R: 0x80001e90 (len=4) data=0xfe0796e3[0m
0x80001e90: fe 07 96 e3 bnez	a5, -0x14
[1;34m[src/memory/paddr.c:97 mtrace_log] R: 0x80001e7c (len=4) data=0x05578c63[0m
0x80001e7c: 05 57 8c 63 beq	a5, s5, 0x58
[1;34m[src/memory/paddr.c:97 mtrace_log] R: 0x80001e80 (len=4) data=0x00f48023[0m
[1;34m[src/memory/paddr.c:97 mtrace_log] W: 0x80095534 (len=1) data=0x0000003d[0m
0x80001e80: 00 f4 80 23 sb	a5, 0(s1)
[1;34m[src/memory/paddr.c:97 mtrace_log] R: 0x80001e84 (len=4) data=0x0015c783[0m
[1;34m[src/memory/paddr.c:97 mtrace_log] R: 0x80002911 (len=1) data=0x0000002a[0m
0x80001e84: 00 15 c7 83 lbu	a5, 1(a1)
[1;34m[src/memory/paddr.c:97 mtrace_log] R: 0x80001e88 (len=4) data=0x00148493[0m
0x80001e88: 00 14 84 93 addi	s1, s1, 1
[1;34m[src/memory/paddr.c:97 mtrace_log] R: 0x80001e8c (len=4) data=0x00158593[0m
0x80001e8c: 00 15 85 93 addi	a1, a1, 1
[1;34m[src/memory/paddr.c:97 mtrace_log] R: 0x80001e90 (len=4) data=0xfe0796e3[0m
0x80001e90: fe 07 96 e3 bnez	a5, -0x14
[1;34m[src/memory/paddr.c:97 mtrace_log] R: 0x80001e7c (len=4) data=0x05578c63[0m
0x80001e7c: 05 57 8c 63 beq	a5, s5, 0x58
[1;34m[src/memory/paddr.c:97 mtrace_log] R: 0x80001e80 (len=4) data=0x00f48023[0m
[1;34m[src/memory/paddr.c:97 mtrace_log] W: 0x80095535 (len=1) data=0x0000002a[0m
0x80001e80: 00 f4 80 23 sb	a5, 0(s1)
[1;34m[src/memory/paddr.c:97 mtrace_log] R: 0x80001e84 (len=4) data=0x0015c783[0m
[1;34m[src/memory/paddr.c:97 mtrace_log] R: 0x80002912 (len=1) data=0x0000000a[0m
0x80001e84: 00 15 c7 83 lbu	a5, 1(a1)
[1;34m[src/memory/paddr.c:97 mtrace_log] R: 0x80001e88 (len=4) data=0x00148493[0m
0x80001e88: 00 14 84 93 addi	s1, s1, 1
[1;34m[src/memory/paddr.c:97 mtrace_log] R: 0x80001e8c (len=4) data=0x00158593[0m
0x80001e8c: 00 15 85 93 addi	a1, a1, 1
[1;34m[src/memory/paddr.c:97 mtrace_log] R: 0x80001e90 (len=4) data=0xfe0796e3[0m
0x80001e90: fe 07 96 e3 bnez	a5, -0x14
[1;34m[src/memory/paddr.c:97 mtrace_log] R: 0x80001e7c (len=4) data=0x05578c63[0m
0x80001e7c: 05 57 8c 63 beq	a5, s5, 0x58
[1;34m[src/memory/paddr.c:97 mtrace_log] R: 0x80001e80 (len=4) data=0x00f48023[0m
[1;34m[src/memory/paddr.c:97 mtrace_log] W: 0x80095536 (len=1) data=0x0000000a[0m
0x80001e80: 00 f4 80 23 sb	a5, 0(s1)
[1;34m[src/memory/paddr.c:97 mtrace_log] R: 0x80001e84 (len=4) data=0x0015c783[0m
[1;34m[src/memory/paddr.c:97 mtrace_log] R: 0x80002913 (len=1) data=0x00000000[0m
0x80001e84: 00 15 c7 83 lbu	a5, 1(a1)
[1;34m[src/memory/paddr.c:97 mtrace_log] R: 0x80001e88 (len=4) data=0x00148493[0m
0x80001e88: 00 14 84 93 addi	s1, s1, 1
[1;34m[src/memory/paddr.c:97 mtrace_log] R: 0x80001e8c (len=4) data=0x00158593[0m
0x80001e8c: 00 15 85 93 addi	a1, a1, 1
[1;34m[src/memory/paddr.c:97 mtrace_log] R: 0x80001e90 (len=4) data=0xfe0796e3[0m
0x80001e90: fe 07 96 e3 bnez	a5, -0x14
[1;34m[src/memory/paddr.c:97 mtrace_log] R: 0x80001e94 (len=4) data=0x04812403[0m
[1;34m[src/memory/paddr.c:97 mtrace_log] R: 0x8009df88 (len=4) data=0x00000000[0m
0x80001e94: 04 81 24 03 lw	s0, 0x48(sp)
[1;34m[src/memory/paddr.c:97 mtrace_log] R: 0x80001e98 (len=4) data=0x04012903[0m
[1;34m[src/memory/paddr.c:97 mtrace_log] R: 0x8009df80 (len=4) data=0x00000000[0m
0x80001e98: 04 01 29 03 lw	s2, 0x40(sp)
[1;34m[src/memory/paddr.c:97 mtrace_log] R: 0x80001e9c (len=4) data=0x03c12983[0m
[1;34m[src/memory/paddr.c:97 mtrace_log] R: 0x8009df7c (len=4) data=0x00000000[0m
0x80001e9c: 03 c1 29 83 lw	s3, 0x3c(sp)
[1;34m[src/memory/paddr.c:97 mtrace_log] R: 0x80001ea0 (len=4) data=0x03812a03[0m
[1;34m[src/memory/paddr.c:97 mtrace_log] R: 0x8009df78 (len=4) data=0x00000000[0m
0x80001ea0: 03 81 2a 03 lw	s4, 0x38(sp)
[1;34m[src/memory/paddr.c:97 mtrace_log] R: 0x80001ea4 (len=4) data=0x03412a83[0m
[1;34m[src/memory/paddr.c:97 mtrace_log] R: 0x8009df74 (len=4) data=0x00000000[0m
0x80001ea4: 03 41 2a 83 lw	s5, 0x34(sp)
[1;34m[src/memory/paddr.c:97 mtrace_log] R: 0x80001ea8 (len=4) data=0x02c12b83[0m
[1;34m[src/memory/paddr.c:97 mtrace_log] R: 0x8009df6c (len=4) data=0x00000000[0m
0x80001ea8: 02 c1 2b 83 lw	s7, 0x2c(sp)
[1;34m[src/memory/paddr.c:97 mtrace_log] R: 0x80001eac (len=4) data=0x02812c03[0m
[1;34m[src/memory/paddr.c:97 mtrace_log] R: 0x8009df68 (len=4) data=0x00000000[0m
0x80001eac: 02 81 2c 03 lw	s8, 0x28(sp)
[1;34m[src/memory/paddr.c:97 mtrace_log] R: 0x80001eb0 (len=4) data=0x02412c83[0m
[1;34m[src/memory/paddr.c:97 mtrace_log] R: 0x8009df64 (len=4) data=0x00000000[0m
0x80001eb0: 02 41 2c 83 lw	s9, 0x24(sp)
[1;34m[src/memory/paddr.c:97 mtrace_log] R: 0x80001eb4 (len=4) data=0x02012d03[0m
[1;34m[src/memory/paddr.c:97 mtrace_log] R: 0x8009df60 (len=4) data=0x00000000[0m
0x80001eb4: 02 01 2d 03 lw	s10, 0x20(sp)
[1;34m[src/memory/paddr.c:97 mtrace_log] R: 0x80001eb8 (len=4) data=0x00048023[0m
[1;34m[src/memory/paddr.c:97 mtrace_log] W: 0x80095537 (len=1) data=0x00000000[0m
0x80001eb8: 00 04 80 23 sb	zero, 0(s1)
[1;34m[src/memory/paddr.c:97 mtrace_log] R: 0x80001ebc (len=4) data=0x04c12083[0m
[1;34m[src/memory/paddr.c:97 mtrace_log] R: 0x8009df8c (len=4) data=0x80002340[0m
0x80001ebc: 04 c1 20 83 lw	ra, 0x4c(sp)
[1;34m[src/memory/paddr.c:97 mtrace_log] R: 0x80001ec0 (len=4) data=0x41648533[0m
0x80001ec0: 41 64 85 33 sub	a0, s1, s6
[1;34m[src/memory/paddr.c:97 mtrace_log] R: 0x80001ec4 (len=4) data=0x04412483[0m
[1;34m[src/memory/paddr.c:97 mtrace_log] R: 0x8009df84 (len=4) data=0x80002cf8[0m
0x80001ec4: 04 41 24 83 lw	s1, 0x44(sp)
[1;34m[src/memory/paddr.c:97 mtrace_log] R: 0x80001ec8 (len=4) data=0x03012b03[0m
[1;34m[src/memory/paddr.c:97 mtrace_log] R: 0x8009df70 (len=4) data=0x00000000[0m
0x80001ec8: 03 01 2b 03 lw	s6, 0x30(sp)
[1;34m[src/memory/paddr.c:97 mtrace_log] R: 0x80001ecc (len=4) data=0x05010113[0m
0x80001ecc: 05 01 01 13 addi	sp, sp, 0x50
[1;34m[src/memory/paddr.c:97 mtrace_log] R: 0x80001ed0 (len=4) data=0x00008067[0m
0x80001ed0: 00 00 80 67 ret
[1;34m[src/memory/paddr.c:97 mtrace_log] R: 0x80002340 (len=4) data=0x00093797[0m
0x80002340: 00 09 37 97 auipc	a5, 0x93
[1;34m[src/memory/paddr.c:97 mtrace_log] R: 0x80002344 (len=4) data=0x1dc78793[0m
0x80002344: 1d c7 87 93 addi	a5, a5, 0x1dc
[1;34m[src/memory/paddr.c:97 mtrace_log] R: 0x80002348 (len=4) data=0x0007c703[0m
[1;34m[src/memory/paddr.c:97 mtrace_log] R: 0x8009551c (len=1) data=0x00000055[0m
0x80002348: 00 07 c7 03 lbu	a4, 0(a5)
[1;34m[src/memory/paddr.c:97 mtrace_log] R: 0x8000234c (len=4) data=0x00070e63[0m
0x8000234c: 00 07 0e 63 beqz	a4, 0x1c
[1;34m[src/memory/paddr.c:97 mtrace_log] R: 0x80002350 (len=4) data=0xa00006b7[0m
0x80002350: a0 00 06 b7 lui	a3, 0xa0000
[1;34m[src/memory/paddr.c:97 mtrace_log] R: 0x80002354 (len=4) data=0x3f868693[0m
0x80002354: 3f 86 86 93 addi	a3, a3, 0x3f8
[1;34m[src/memory/paddr.c:97 mtrace_log] R: 0x80002358 (len=4) data=0x00178793[0m
0x80002358: 00 17 87 93 addi	a5, a5, 1
[1;34m[src/memory/paddr.c:97 mtrace_log] R: 0x8000235c (len=4) data=0x00e68023[0m
[1;34m[src/memory/paddr.c:97 mtrace_log] W: 0xa00003f8 (len=1) data=0x00000055[0m
0x8000235c: 00 e6 80 23 sb	a4, 0(a3)
[1;34m[src/memory/paddr.c:97 mtrace_log] R: 0x80002360 (len=4) data=0x0007c703[0m
[1;34m[src/memory/paddr.c:97 mtrace_log] R: 0x8009551d (len=1) data=0x00000073[0m
0x80002360: 00 07 c7 03 lbu	a4, 0(a5)
[1;34m[src/memory/paddr.c:97 mtrace_log] R: 0x80002364 (len=4) data=0xfe071ae3[0m
0x80002364: fe 07 1a e3 bnez	a4, -0xc
[1;34m[src/memory/paddr.c:97 mtrace_log] R: 0x80002358 (len=4) data=0x00178793[0m
0x80002358: 00 17 87 93 addi	a5, a5, 1
[1;34m[src/memory/paddr.c:97 mtrace_log] R: 0x8000235c (len=4) data=0x00e68023[0m
[1;34m[src/memory/paddr.c:97 mtrace_log] W: 0xa00003f8 (len=1) data=0x00000073[0m
0x8000235c: 00 e6 80 23 sb	a4, 0(a3)
[1;34m[src/memory/paddr.c:97 mtrace_log] R: 0x80002360 (len=4) data=0x0007c703[0m
[1;34m[src/memory/paddr.c:97 mtrace_log] R: 0x8009551e (len=1) data=0x00000061[0m
0x80002360: 00 07 c7 03 lbu	a4, 0(a5)
[1;34m[src/memory/paddr.c:97 mtrace_log] R: 0x80002364 (len=4) data=0xfe071ae3[0m
0x80002364: fe 07 1a e3 bnez	a4, -0xc
[1;34m[src/memory/paddr.c:97 mtrace_log] R: 0x80002358 (len=4) data=0x00178793[0m
0x80002358: 00 17 87 93 addi	a5, a5, 1
[1;34m[src/memory/paddr.c:97 mtrace_log] R: 0x8000235c (len=4) data=0x00e68023[0m
[1;34m[src/memory/paddr.c:97 mtrace_log] W: 0xa00003f8 (len=1) data=0x00000061[0m
0x8000235c: 00 e6 80 23 sb	a4, 0(a3)
[1;34m[src/memory/paddr.c:97 mtrace_log] R: 0x80002360 (len=4) data=0x0007c703[0m
[1;34m[src/memory/paddr.c:97 mtrace_log] R: 0x8009551f (len=1) data=0x00000067[0m
0x80002360: 00 07 c7 03 lbu	a4, 0(a5)
[1;34m[src/memory/paddr.c:97 mtrace_log] R: 0x80002364 (len=4) data=0xfe071ae3[0m
0x80002364: fe 07 1a e3 bnez	a4, -0xc
[1;34m[src/memory/paddr.c:97 mtrace_log] R: 0x80002358 (len=4) data=0x00178793[0m
0x80002358: 00 17 87 93 addi	a5, a5, 1
[1;34m[src/memory/paddr.c:97 mtrace_log] R: 0x8000235c (len=4) data=0x00e68023[0m
[1;34m[src/memory/paddr.c:97 mtrace_log] W: 0xa00003f8 (len=1) data=0x00000067[0m
0x8000235c: 00 e6 80 23 sb	a4, 0(a3)
[1;34m[src/memory/paddr.c:97 mtrace_log] R: 0x80002360 (len=4) data=0x0007c703[0m
[1;34m[src/memory/paddr.c:97 mtrace_log] R: 0x80095520 (len=1) data=0x00000065[0m
0x80002360: 00 07 c7 03 lbu	a4, 0(a5)
[1;34m[src/memory/paddr.c:97 mtrace_log] R: 0x80002364 (len=4) data=0xfe071ae3[0m
0x80002364: fe 07 1a e3 bnez	a4, -0xc
[1;34m[src/memory/paddr.c:97 mtrace_log] R: 0x80002358 (len=4) data=0x00178793[0m
0x80002358: 00 17 87 93 addi	a5, a5, 1
[1;34m[src/memory/paddr.c:97 mtrace_log] R: 0x8000235c (len=4) data=0x00e68023[0m
[1;34m[src/memory/paddr.c:97 mtrace_log] W: 0xa00003f8 (len=1) data=0x00000065[0m
0x8000235c: 00 e6 80 23 sb	a4, 0(a3)
[1;34m[src/memory/paddr.c:97 mtrace_log] R: 0x80002360 (len=4) data=0x0007c703[0m
[1;34m[src/memory/paddr.c:97 mtrace_log] R: 0x80095521 (len=1) data=0x0000003a[0m
0x80002360: 00 07 c7 03 lbu	a4, 0(a5)
[1;34m[src/memory/paddr.c:97 mtrace_log] R: 0x80002364 (len=4) data=0xfe071ae3[0m
0x80002364: fe 07 1a e3 bnez	a4, -0xc
[1;34m[src/memory/paddr.c:97 mtrace_log] R: 0x80002358 (len=4) data=0x00178793[0m
0x80002358: 00 17 87 93 addi	a5, a5, 1
[1;34m[src/memory/paddr.c:97 mtrace_log] R: 0x8000235c (len=4) data=0x00e68023[0m
[1;34m[src/memory/paddr.c:97 mtrace_log] W: 0xa00003f8 (len=1) data=0x0000003a[0m
0x8000235c: 00 e6 80 23 sb	a4, 0(a3)
[1;34m[src/memory/paddr.c:97 mtrace_log] R: 0x80002360 (len=4) data=0x0007c703[0m
[1;34m[src/memory/paddr.c:97 mtrace_log] R: 0x80095522 (len=1) data=0x00000020[0m
0x80002360: 00 07 c7 03 lbu	a4, 0(a5)
[1;34m[src/memory/paddr.c:97 mtrace_log] R: 0x80002364 (len=4) data=0xfe071ae3[0m
0x80002364: fe 07 1a e3 bnez	a4, -0xc
[1;34m[src/memory/paddr.c:97 mtrace_log] R: 0x80002358 (len=4) data=0x00178793[0m
0x80002358: 00 17 87 93 addi	a5, a5, 1
[1;34m[src/memory/paddr.c:97 mtrace_log] R: 0x8000235c (len=4) data=0x00e68023[0m
[1;34m[src/memory/paddr.c:97 mtrace_log] W: 0xa00003f8 (len=1) data=0x00000020[0m
0x8000235c: 00 e6 80 23 sb	a4, 0(a3)
[1;34m[src/memory/paddr.c:97 mtrace_log] R: 0x80002360 (len=4) data=0x0007c703[0m
[1;34m[src/memory/paddr.c:97 mtrace_log] R: 0x80095523 (len=1) data=0x0000006d[0m
0x80002360: 00 07 c7 03 lbu	a4, 0(a5)
[1;34m[src/memory/paddr.c:97 mtrace_log] R: 0x80002364 (len=4) data=0xfe071ae3[0m
0x80002364: fe 07 1a e3 bnez	a4, -0xc
[1;34m[src/memory/paddr.c:97 mtrace_log] R: 0x80002358 (len=4) data=0x00178793[0m
0x80002358: 00 17 87 93 addi	a5, a5, 1
[1;34m[src/memory/paddr.c:97 mtrace_log] R: 0x8000235c (len=4) data=0x00e68023[0m
[1;34m[src/memory/paddr.c:97 mtrace_log] W: 0xa00003f8 (len=1) data=0x0000006d[0m
0x8000235c: 00 e6 80 23 sb	a4, 0(a3)
[1;34m[src/memory/paddr.c:97 mtrace_log] R: 0x80002360 (len=4) data=0x0007c703[0m
[1;34m[src/memory/paddr.c:97 mtrace_log] R: 0x80095524 (len=1) data=0x00000061[0m
0x80002360: 00 07 c7 03 lbu	a4, 0(a5)
[1;34m[src/memory/paddr.c:97 mtrace_log] R: 0x80002364 (len=4) data=0xfe071ae3[0m
0x80002364: fe 07 1a e3 bnez	a4, -0xc
[1;34m[src/memory/paddr.c:97 mtrace_log] R: 0x80002358 (len=4) data=0x00178793[0m
0x80002358: 00 17 87 93 addi	a5, a5, 1
[1;34m[src/memory/paddr.c:97 mtrace_log] R: 0x8000235c (len=4) data=0x00e68023[0m
[1;34m[src/memory/paddr.c:97 mtrace_log] W: 0xa00003f8 (len=1) data=0x00000061[0m
0x8000235c: 00 e6 80 23 sb	a4, 0(a3)
[1;34m[src/memory/paddr.c:97 mtrace_log] R: 0x80002360 (len=4) data=0x0007c703[0m
[1;34m[src/memory/paddr.c:97 mtrace_log] R: 0x80095525 (len=1) data=0x0000006b[0m
0x80002360: 00 07 c7 03 lbu	a4, 0(a5)
[1;34m[src/memory/paddr.c:97 mtrace_log] R: 0x80002364 (len=4) data=0xfe071ae3[0m
0x80002364: fe 07 1a e3 bnez	a4, -0xc
[1;34m[src/memory/paddr.c:97 mtrace_log] R: 0x80002358 (len=4) data=0x00178793[0m
0x80002358: 00 17 87 93 addi	a5, a5, 1
[1;34m[src/memory/paddr.c:97 mtrace_log] R: 0x8000235c (len=4) data=0x00e68023[0m
[1;34m[src/memory/paddr.c:97 mtrace_log] W: 0xa00003f8 (len=1) data=0x0000006b[0m
0x8000235c: 00 e6 80 23 sb	a4, 0(a3)
[1;34m[src/memory/paddr.c:97 mtrace_log] R: 0x80002360 (len=4) data=0x0007c703[0m
[1;34m[src/memory/paddr.c:97 mtrace_log] R: 0x80095526 (len=1) data=0x00000065[0m
0x80002360: 00 07 c7 03 lbu	a4, 0(a5)
[1;34m[src/memory/paddr.c:97 mtrace_log] R: 0x80002364 (len=4) data=0xfe071ae3[0m
0x80002364: fe 07 1a e3 bnez	a4, -0xc
[1;34m[src/memory/paddr.c:97 mtrace_log] R: 0x80002358 (len=4) data=0x00178793[0m
0x80002358: 00 17 87 93 addi	a5, a5, 1
[1;34m[src/memory/paddr.c:97 mtrace_log] R: 0x8000235c (len=4) data=0x00e68023[0m
[1;34m[src/memory/paddr.c:97 mtrace_log] W: 0xa00003f8 (len=1) data=0x00000065[0m
0x8000235c: 00 e6 80 23 sb	a4, 0(a3)
[1;34m[src/memory/paddr.c:97 mtrace_log] R: 0x80002360 (len=4) data=0x0007c703[0m
[1;34m[src/memory/paddr.c:97 mtrace_log] R: 0x80095527 (len=1) data=0x00000020[0m
0x80002360: 00 07 c7 03 lbu	a4, 0(a5)
[1;34m[src/memory/paddr.c:97 mtrace_log] R: 0x80002364 (len=4) data=0xfe071ae3[0m
0x80002364: fe 07 1a e3 bnez	a4, -0xc
[1;34m[src/memory/paddr.c:97 mtrace_log] R: 0x80002358 (len=4) data=0x00178793[0m
0x80002358: 00 17 87 93 addi	a5, a5, 1
[1;34m[src/memory/paddr.c:97 mtrace_log] R: 0x8000235c (len=4) data=0x00e68023[0m
[1;34m[src/memory/paddr.c:97 mtrace_log] W: 0xa00003f8 (len=1) data=0x00000020[0m
0x8000235c: 00 e6 80 23 sb	a4, 0(a3)
[1;34m[src/memory/paddr.c:97 mtrace_log] R: 0x80002360 (len=4) data=0x0007c703[0m
[1;34m[src/memory/paddr.c:97 mtrace_log] R: 0x80095528 (len=1) data=0x00000072[0m
0x80002360: 00 07 c7 03 lbu	a4, 0(a5)
[1;34m[src/memory/paddr.c:97 mtrace_log] R: 0x80002364 (len=4) data=0xfe071ae3[0m
0x80002364: fe 07 1a e3 bnez	a4, -0xc
[1;34m[src/memory/paddr.c:97 mtrace_log] R: 0x80002358 (len=4) data=0x00178793[0m
0x80002358: 00 17 87 93 addi	a5, a5, 1
[1;34m[src/memory/paddr.c:97 mtrace_log] R: 0x8000235c (len=4) data=0x00e68023[0m
[1;34m[src/memory/paddr.c:97 mtrace_log] W: 0xa00003f8 (len=1) data=0x00000072[0m
0x8000235c: 00 e6 80 23 sb	a4, 0(a3)
[1;34m[src/memory/paddr.c:97 mtrace_log] R: 0x80002360 (len=4) data=0x0007c703[0m
[1;34m[src/memory/paddr.c:97 mtrace_log] R: 0x80095529 (len=1) data=0x00000075[0m
0x80002360: 00 07 c7 03 lbu	a4, 0(a5)
[1;34m[src/memory/paddr.c:97 mtrace_log] R: 0x80002364 (len=4) data=0xfe071ae3[0m
0x80002364: fe 07 1a e3 bnez	a4, -0xc
[1;34m[src/memory/paddr.c:97 mtrace_log] R: 0x80002358 (len=4) data=0x00178793[0m
0x80002358: 00 17 87 93 addi	a5, a5, 1
[1;34m[src/memory/paddr.c:97 mtrace_log] R: 0x8000235c (len=4) data=0x00e68023[0m
[1;34m[src/memory/paddr.c:97 mtrace_log] W: 0xa00003f8 (len=1) data=0x00000075[0m
0x8000235c: 00 e6 80 23 sb	a4, 0(a3)
[1;34m[src/memory/paddr.c:97 mtrace_log] R: 0x80002360 (len=4) data=0x0007c703[0m
[1;34m[src/memory/paddr.c:97 mtrace_log] R: 0x8009552a (len=1) data=0x0000006e[0m
0x80002360: 00 07 c7 03 lbu	a4, 0(a5)
[1;34m[src/memory/paddr.c:97 mtrace_log] R: 0x80002364 (len=4) data=0xfe071ae3[0m
0x80002364: fe 07 1a e3 bnez	a4, -0xc
[1;34m[src/memory/paddr.c:97 mtrace_log] R: 0x80002358 (len=4) data=0x00178793[0m
0x80002358: 00 17 87 93 addi	a5, a5, 1
[1;34m[src/memory/paddr.c:97 mtrace_log] R: 0x8000235c (len=4) data=0x00e68023[0m
[1;34m[src/memory/paddr.c:97 mtrace_log] W: 0xa00003f8 (len=1) data=0x0000006e[0m
0x8000235c: 00 e6 80 23 sb	a4, 0(a3)
[1;34m[src/memory/paddr.c:97 mtrace_log] R: 0x80002360 (len=4) data=0x0007c703[0m
[1;34m[src/memory/paddr.c:97 mtrace_log] R: 0x8009552b (len=1) data=0x00000020[0m
0x80002360: 00 07 c7 03 lbu	a4, 0(a5)
[1;34m[src/memory/paddr.c:97 mtrace_log] R: 0x80002364 (len=4) data=0xfe071ae3[0m
0x80002364: fe 07 1a e3 bnez	a4, -0xc
[1;34m[src/memory/paddr.c:97 mtrace_log] R: 0x80002358 (len=4) data=0x00178793[0m
0x80002358: 00 17 87 93 addi	a5, a5, 1
[1;34m[src/memory/paddr.c:97 mtrace_log] R: 0x8000235c (len=4) data=0x00e68023[0m
[1;34m[src/memory/paddr.c:97 mtrace_log] W: 0xa00003f8 (len=1) data=0x00000020[0m
0x8000235c: 00 e6 80 23 sb	a4, 0(a3)
[1;34m[src/memory/paddr.c:97 mtrace_log] R: 0x80002360 (len=4) data=0x0007c703[0m
[1;34m[src/memory/paddr.c:97 mtrace_log] R: 0x8009552c (len=1) data=0x0000006d[0m
0x80002360: 00 07 c7 03 lbu	a4, 0(a5)
[1;34m[src/memory/paddr.c:97 mtrace_log] R: 0x80002364 (len=4) data=0xfe071ae3[0m
0x80002364: fe 07 1a e3 bnez	a4, -0xc
[1;34m[src/memory/paddr.c:97 mtrace_log] R: 0x80002358 (len=4) data=0x00178793[0m
0x80002358: 00 17 87 93 addi	a5, a5, 1
[1;34m[src/memory/paddr.c:97 mtrace_log] R: 0x8000235c (len=4) data=0x00e68023[0m
[1;34m[src/memory/paddr.c:97 mtrace_log] W: 0xa00003f8 (len=1) data=0x0000006d[0m
0x8000235c: 00 e6 80 23 sb	a4, 0(a3)
[1;34m[src/memory/paddr.c:97 mtrace_log] R: 0x80002360 (len=4) data=0x0007c703[0m
[1;34m[src/memory/paddr.c:97 mtrace_log] R: 0x8009552d (len=1) data=0x00000061[0m
0x80002360: 00 07 c7 03 lbu	a4, 0(a5)
[1;34m[src/memory/paddr.c:97 mtrace_log] R: 0x80002364 (len=4) data=0xfe071ae3[0m
0x80002364: fe 07 1a e3 bnez	a4, -0xc
[1;34m[src/memory/paddr.c:97 mtrace_log] R: 0x80002358 (len=4) data=0x00178793[0m
0x80002358: 00 17 87 93 addi	a5, a5, 1
[1;34m[src/memory/paddr.c:97 mtrace_log] R: 0x8000235c (len=4) data=0x00e68023[0m
[1;34m[src/memory/paddr.c:97 mtrace_log] W: 0xa00003f8 (len=1) data=0x00000061[0m
0x8000235c: 00 e6 80 23 sb	a4, 0(a3)
[1;34m[src/memory/paddr.c:97 mtrace_log] R: 0x80002360 (len=4) data=0x0007c703[0m
[1;34m[src/memory/paddr.c:97 mtrace_log] R: 0x8009552e (len=1) data=0x00000069[0m
0x80002360: 00 07 c7 03 lbu	a4, 0(a5)
[1;34m[src/memory/paddr.c:97 mtrace_log] R: 0x80002364 (len=4) data=0xfe071ae3[0m
0x80002364: fe 07 1a e3 bnez	a4, -0xc
[1;34m[src/memory/paddr.c:97 mtrace_log] R: 0x80002358 (len=4) data=0x00178793[0m
0x80002358: 00 17 87 93 addi	a5, a5, 1
[1;34m[src/memory/paddr.c:97 mtrace_log] R: 0x8000235c (len=4) data=0x00e68023[0m
[1;34m[src/memory/paddr.c:97 mtrace_log] W: 0xa00003f8 (len=1) data=0x00000069[0m
0x8000235c: 00 e6 80 23 sb	a4, 0(a3)
[1;34m[src/memory/paddr.c:97 mtrace_log] R: 0x80002360 (len=4) data=0x0007c703[0m
[1;34m[src/memory/paddr.c:97 mtrace_log] R: 0x8009552f (len=1) data=0x0000006e[0m
0x80002360: 00 07 c7 03 lbu	a4, 0(a5)
[1;34m[src/memory/paddr.c:97 mtrace_log] R: 0x80002364 (len=4) data=0xfe071ae3[0m
0x80002364: fe 07 1a e3 bnez	a4, -0xc
[1;34m[src/memory/paddr.c:97 mtrace_log] R: 0x80002358 (len=4) data=0x00178793[0m
0x80002358: 00 17 87 93 addi	a5, a5, 1
[1;34m[src/memory/paddr.c:97 mtrace_log] R: 0x8000235c (len=4) data=0x00e68023[0m
[1;34m[src/memory/paddr.c:97 mtrace_log] W: 0xa00003f8 (len=1) data=0x0000006e[0m
0x8000235c: 00 e6 80 23 sb	a4, 0(a3)
[1;34m[src/memory/paddr.c:97 mtrace_log] R: 0x80002360 (len=4) data=0x0007c703[0m
[1;34m[src/memory/paddr.c:97 mtrace_log] R: 0x80095530 (len=1) data=0x00000061[0m
0x80002360: 00 07 c7 03 lbu	a4, 0(a5)
[1;34m[src/memory/paddr.c:97 mtrace_log] R: 0x80002364 (len=4) data=0xfe071ae3[0m
0x80002364: fe 07 1a e3 bnez	a4, -0xc
[1;34m[src/memory/paddr.c:97 mtrace_log] R: 0x80002358 (len=4) data=0x00178793[0m
0x80002358: 00 17 87 93 addi	a5, a5, 1
[1;34m[src/memory/paddr.c:97 mtrace_log] R: 0x8000235c (len=4) data=0x00e68023[0m
[1;34m[src/memory/paddr.c:97 mtrace_log] W: 0xa00003f8 (len=1) data=0x00000061[0m
0x8000235c: 00 e6 80 23 sb	a4, 0(a3)
[1;34m[src/memory/paddr.c:97 mtrace_log] R: 0x80002360 (len=4) data=0x0007c703[0m
[1;34m[src/memory/paddr.c:97 mtrace_log] R: 0x80095531 (len=1) data=0x00000072[0m
0x80002360: 00 07 c7 03 lbu	a4, 0(a5)
[1;34m[src/memory/paddr.c:97 mtrace_log] R: 0x80002364 (len=4) data=0xfe071ae3[0m
0x80002364: fe 07 1a e3 bnez	a4, -0xc
[1;34m[src/memory/paddr.c:97 mtrace_log] R: 0x80002358 (len=4) data=0x00178793[0m
0x80002358: 00 17 87 93 addi	a5, a5, 1
[1;34m[src/memory/paddr.c:97 mtrace_log] R: 0x8000235c (len=4) data=0x00e68023[0m
[1;34m[src/memory/paddr.c:97 mtrace_log] W: 0xa00003f8 (len=1) data=0x00000072[0m
0x8000235c: 00 e6 80 23 sb	a4, 0(a3)
[1;34m[src/memory/paddr.c:97 mtrace_log] R: 0x80002360 (len=4) data=0x0007c703[0m
[1;34m[src/memory/paddr.c:97 mtrace_log] R: 0x80095532 (len=1) data=0x00000067[0m
0x80002360: 00 07 c7 03 lbu	a4, 0(a5)
[1;34m[src/memory/paddr.c:97 mtrace_log] R: 0x80002364 (len=4) data=0xfe071ae3[0m
0x80002364: fe 07 1a e3 bnez	a4, -0xc
[1;34m[src/memory/paddr.c:97 mtrace_log] R: 0x80002358 (len=4) data=0x00178793[0m
0x80002358: 00 17 87 93 addi	a5, a5, 1
[1;34m[src/memory/paddr.c:97 mtrace_log] R: 0x8000235c (len=4) data=0x00e68023[0m
[1;34m[src/memory/paddr.c:97 mtrace_log] W: 0xa00003f8 (len=1) data=0x00000067[0m
0x8000235c: 00 e6 80 23 sb	a4, 0(a3)
[1;34m[src/memory/paddr.c:97 mtrace_log] R: 0x80002360 (len=4) data=0x0007c703[0m
[1;34m[src/memory/paddr.c:97 mtrace_log] R: 0x80095533 (len=1) data=0x00000073[0m
0x80002360: 00 07 c7 03 lbu	a4, 0(a5)
[1;34m[src/memory/paddr.c:97 mtrace_log] R: 0x80002364 (len=4) data=0xfe071ae3[0m
0x80002364: fe 07 1a e3 bnez	a4, -0xc
[1;34m[src/memory/paddr.c:97 mtrace_log] R: 0x80002358 (len=4) data=0x00178793[0m
0x80002358: 00 17 87 93 addi	a5, a5, 1
[1;34m[src/memory/paddr.c:97 mtrace_log] R: 0x8000235c (len=4) data=0x00e68023[0m
[1;34m[src/memory/paddr.c:97 mtrace_log] W: 0xa00003f8 (len=1) data=0x00000073[0m
0x8000235c: 00 e6 80 23 sb	a4, 0(a3)
[1;34m[src/memory/paddr.c:97 mtrace_log] R: 0x80002360 (len=4) data=0x0007c703[0m
[1;34m[src/memory/paddr.c:97 mtrace_log] R: 0x80095534 (len=1) data=0x0000003d[0m
0x80002360: 00 07 c7 03 lbu	a4, 0(a5)
[1;34m[src/memory/paddr.c:97 mtrace_log] R: 0x80002364 (len=4) data=0xfe071ae3[0m
0x80002364: fe 07 1a e3 bnez	a4, -0xc
[1;34m[src/memory/paddr.c:97 mtrace_log] R: 0x80002358 (len=4) data=0x00178793[0m
0x80002358: 00 17 87 93 addi	a5, a5, 1
[1;34m[src/memory/paddr.c:97 mtrace_log] R: 0x8000235c (len=4) data=0x00e68023[0m
[1;34m[src/memory/paddr.c:97 mtrace_log] W: 0xa00003f8 (len=1) data=0x0000003d[0m
0x8000235c: 00 e6 80 23 sb	a4, 0(a3)
[1;34m[src/memory/paddr.c:97 mtrace_log] R: 0x80002360 (len=4) data=0x0007c703[0m
[1;34m[src/memory/paddr.c:97 mtrace_log] R: 0x80095535 (len=1) data=0x0000002a[0m
0x80002360: 00 07 c7 03 lbu	a4, 0(a5)
[1;34m[src/memory/paddr.c:97 mtrace_log] R: 0x80002364 (len=4) data=0xfe071ae3[0m
0x80002364: fe 07 1a e3 bnez	a4, -0xc
[1;34m[src/memory/paddr.c:97 mtrace_log] R: 0x80002358 (len=4) data=0x00178793[0m
0x80002358: 00 17 87 93 addi	a5, a5, 1
[1;34m[src/memory/paddr.c:97 mtrace_log] R: 0x8000235c (len=4) data=0x00e68023[0m
[1;34m[src/memory/paddr.c:97 mtrace_log] W: 0xa00003f8 (len=1) data=0x0000002a[0m
0x8000235c: 00 e6 80 23 sb	a4, 0(a3)
[1;34m[src/memory/paddr.c:97 mtrace_log] R: 0x80002360 (len=4) data=0x0007c703[0m
[1;34m[src/memory/paddr.c:97 mtrace_log] R: 0x80095536 (len=1) data=0x0000000a[0m
0x80002360: 00 07 c7 03 lbu	a4, 0(a5)
[1;34m[src/memory/paddr.c:97 mtrace_log] R: 0x80002364 (len=4) data=0xfe071ae3[0m
0x80002364: fe 07 1a e3 bnez	a4, -0xc
[1;34m[src/memory/paddr.c:97 mtrace_log] R: 0x80002358 (len=4) data=0x00178793[0m
0x80002358: 00 17 87 93 addi	a5, a5, 1
[1;34m[src/memory/paddr.c:97 mtrace_log] R: 0x8000235c (len=4) data=0x00e68023[0m
[1;34m[src/memory/paddr.c:97 mtrace_log] W: 0xa00003f8 (len=1) data=0x0000000a[0m
0x8000235c: 00 e6 80 23 sb	a4, 0(a3)
[1;34m[src/memory/paddr.c:97 mtrace_log] R: 0x80002360 (len=4) data=0x0007c703[0m
[1;34m[src/memory/paddr.c:97 mtrace_log] R: 0x80095537 (len=1) data=0x00000000[0m
0x80002360: 00 07 c7 03 lbu	a4, 0(a5)
[1;34m[src/memory/paddr.c:97 mtrace_log] R: 0x80002364 (len=4) data=0xfe071ae3[0m
0x80002364: fe 07 1a e3 bnez	a4, -0xc
[1;34m[src/memory/paddr.c:97 mtrace_log] R: 0x80002368 (len=4) data=0x01c12083[0m
[1;34m[src/memory/paddr.c:97 mtrace_log] R: 0x8009dfac (len=4) data=0x80000e6c[0m
0x80002368: 01 c1 20 83 lw	ra, 0x1c(sp)
[1;34m[src/memory/paddr.c:97 mtrace_log] R: 0x8000236c (len=4) data=0x04010113[0m
0x8000236c: 04 01 01 13 addi	sp, sp, 0x40
[1;34m[src/memory/paddr.c:97 mtrace_log] R: 0x80002370 (len=4) data=0x00008067[0m
0x80002370: 00 00 80 67 ret
[1;34m[src/memory/paddr.c:97 mtrace_log] R: 0x80000e6c (len=4) data=0x00000413[0m
0x80000e6c: 00 00 04 13 mv	s0, zero
[1;34m[src/memory/paddr.c:97 mtrace_log] R: 0x80000e70 (len=4) data=0x00002997[0m
0x80000e70: 00 00 29 97 auipc	s3, 2
[1;34m[src/memory/paddr.c:97 mtrace_log] R: 0x80000e74 (len=4) data=0xaa498993[0m
0x80000e74: aa 49 89 93 addi	s3, s3, -0x55c
[1;34m[src/memory/paddr.c:97 mtrace_log] R: 0x80000e78 (len=4) data=0x10000913[0m
0x80000e78: 10 00 09 13 addi	s2, zero, 0x100
[1;34m[src/memory/paddr.c:97 mtrace_log] R: 0x80000e7c (len=4) data=0x0004a603[0m
[1;34m[src/memory/paddr.c:97 mtrace_log] R: 0x80002cf8 (len=4) data=0x00000000[0m
0x80000e7c: 00 04 a6 03 lw	a2, 0(s1)
[1;34m[src/memory/paddr.c:97 mtrace_log] R: 0x80000e80 (len=4) data=0x00060863[0m
0x80000e80: 00 06 08 63 beqz	a2, 0x10
[1;34m[src/memory/paddr.c:97 mtrace_log] R: 0x80000e90 (len=4) data=0x00140413[0m
0x80000e90: 00 14 04 13 addi	s0, s0, 1
[1;34m[src/memory/paddr.c:97 mtrace_log] R: 0x80000e94 (len=4) data=0x00448493[0m
0x80000e94: 00 44 84 93 addi	s1, s1, 4
[1;34m[src/memory/paddr.c:97 mtrace_log] R: 0x80000e98 (len=4) data=0xff2412e3[0m
0x80000e98: ff 24 12 e3 bne	s0, s2, -0x1c
[1;34m[src/memory/paddr.c:97 mtrace_log] R: 0x80000e7c (len=4) data=0x0004a603[0m
[1;34m[src/memory/paddr.c:97 mtrace_log] R: 0x80002cfc (len=4) data=0x00000000[0m
0x80000e7c: 00 04 a6 03 lw	a2, 0(s1)
[1;34m[src/memory/paddr.c:97 mtrace_log] R: 0x80000e80 (len=4) data=0x00060863[0m
0x80000e80: 00 06 08 63 beqz	a2, 0x10
[1;34m[src/memory/paddr.c:97 mtrace_log] R: 0x80000e90 (len=4) data=0x00140413[0m
0x80000e90: 00 14 04 13 addi	s0, s0, 1
[1;34m[src/memory/paddr.c:97 mtrace_log] R: 0x80000e94 (len=4) data=0x00448493[0m
0x80000e94: 00 44 84 93 addi	s1, s1, 4
[1;34m[src/memory/paddr.c:97 mtrace_log] R: 0x80000e98 (len=4) data=0xff2412e3[0m
0x80000e98: ff 24 12 e3 bne	s0, s2, -0x1c
[1;34m[src/memory/paddr.c:97 mtrace_log] R: 0x80000e7c (len=4) data=0x0004a603[0m
[1;34m[src/memory/paddr.c:97 mtrace_log] R: 0x80002d00 (len=4) data=0x00000000[0m
0x80000e7c: 00 04 a6 03 lw	a2, 0(s1)
[1;34m[src/memory/paddr.c:97 mtrace_log] R: 0x80000e80 (len=4) data=0x00060863[0m
0x80000e80: 00 06 08 63 beqz	a2, 0x10
[1;34m[src/memory/paddr.c:97 mtrace_log] R: 0x80000e90 (len=4) data=0x00140413[0m
0x80000e90: 00 14 04 13 addi	s0, s0, 1
[1;34m[src/memory/paddr.c:97 mtrace_log] R: 0x80000e94 (len=4) data=0x00448493[0m
0x80000e94: 00 44 84 93 addi	s1, s1, 4
[1;34m[src/memory/paddr.c:97 mtrace_log] R: 0x80000e98 (len=4) data=0xff2412e3[0m
0x80000e98: ff 24 12 e3 bne	s0, s2, -0x1c
[1;34m[src/memory/paddr.c:97 mtrace_log] R: 0x80000e7c (len=4) data=0x0004a603[0m
[1;34m[src/memory/paddr.c:97 mtrace_log] R: 0x80002d04 (len=4) data=0x00000000[0m
0x80000e7c: 00 04 a6 03 lw	a2, 0(s1)
[1;34m[src/memory/paddr.c:97 mtrace_log] R: 0x80000e80 (len=4) data=0x00060863[0m
0x80000e80: 00 06 08 63 beqz	a2, 0x10
[1;34m[src/memory/paddr.c:97 mtrace_log] R: 0x80000e90 (len=4) data=0x00140413[0m
0x80000e90: 00 14 04 13 addi	s0, s0, 1
[1;34m[src/memory/paddr.c:97 mtrace_log] R: 0x80000e94 (len=4) data=0x00448493[0m
0x80000e94: 00 44 84 93 addi	s1, s1, 4
[1;34m[src/memory/paddr.c:97 mtrace_log] R: 0x80000e98 (len=4) data=0xff2412e3[0m
0x80000e98: ff 24 12 e3 bne	s0, s2, -0x1c
[1;34m[src/memory/paddr.c:97 mtrace_log] R: 0x80000e7c (len=4) data=0x0004a603[0m
[1;34m[src/memory/paddr.c:97 mtrace_log] R: 0x80002d08 (len=4) data=0x00000000[0m
0x80000e7c: 00 04 a6 03 lw	a2, 0(s1)
[1;34m[src/memory/paddr.c:97 mtrace_log] R: 0x80000e80 (len=4) data=0x00060863[0m
0x80000e80: 00 06 08 63 beqz	a2, 0x10
[1;34m[src/memory/paddr.c:97 mtrace_log] R: 0x80000e90 (len=4) data=0x00140413[0m
0x80000e90: 00 14 04 13 addi	s0, s0, 1
[1;34m[src/memory/paddr.c:97 mtrace_log] R: 0x80000e94 (len=4) data=0x00448493[0m
0x80000e94: 00 44 84 93 addi	s1, s1, 4
[1;34m[src/memory/paddr.c:97 mtrace_log] R: 0x80000e98 (len=4) data=0xff2412e3[0m
0x80000e98: ff 24 12 e3 bne	s0, s2, -0x1c
[1;34m[src/memory/paddr.c:97 mtrace_log] R: 0x80000e7c (len=4) data=0x0004a603[0m
[1;34m[src/memory/paddr.c:97 mtrace_log] R: 0x80002d0c (len=4) data=0x00000000[0m
0x80000e7c: 00 04 a6 03 lw	a2, 0(s1)
[1;34m[src/memory/paddr.c:97 mtrace_log] R: 0x80000e80 (len=4) data=0x00060863[0m
0x80000e80: 00 06 08 63 beqz	a2, 0x10
[1;34m[src/memory/paddr.c:97 mtrace_log] R: 0x80000e90 (len=4) data=0x00140413[0m
0x80000e90: 00 14 04 13 addi	s0, s0, 1
[1;34m[src/memory/paddr.c:97 mtrace_log] R: 0x80000e94 (len=4) data=0x00448493[0m
0x80000e94: 00 44 84 93 addi	s1, s1, 4
[1;34m[src/memory/paddr.c:97 mtrace_log] R: 0x80000e98 (len=4) data=0xff2412e3[0m
0x80000e98: ff 24 12 e3 bne	s0, s2, -0x1c
[1;34m[src/memory/paddr.c:97 mtrace_log] R: 0x80000e7c (len=4) data=0x0004a603[0m
[1;34m[src/memory/paddr.c:97 mtrace_log] R: 0x80002d10 (len=4) data=0x00000000[0m
0x80000e7c: 00 04 a6 03 lw	a2, 0(s1)
[1;34m[src/memory/paddr.c:97 mtrace_log] R: 0x80000e80 (len=4) data=0x00060863[0m
0x80000e80: 00 06 08 63 beqz	a2, 0x10
[1;34m[src/memory/paddr.c:97 mtrace_log] R: 0x80000e90 (len=4) data=0x00140413[0m
0x80000e90: 00 14 04 13 addi	s0, s0, 1
[1;34m[src/memory/paddr.c:97 mtrace_log] R: 0x80000e94 (len=4) data=0x00448493[0m
0x80000e94: 00 44 84 93 addi	s1, s1, 4
[1;34m[src/memory/paddr.c:97 mtrace_log] R: 0x80000e98 (len=4) data=0xff2412e3[0m
0x80000e98: ff 24 12 e3 bne	s0, s2, -0x1c
[1;34m[src/memory/paddr.c:97 mtrace_log] R: 0x80000e7c (len=4) data=0x0004a603[0m
[1;34m[src/memory/paddr.c:97 mtrace_log] R: 0x80002d14 (len=4) data=0x00000000[0m
0x80000e7c: 00 04 a6 03 lw	a2, 0(s1)
[1;34m[src/memory/paddr.c:97 mtrace_log] R: 0x80000e80 (len=4) data=0x00060863[0m
0x80000e80: 00 06 08 63 beqz	a2, 0x10
[1;34m[src/memory/paddr.c:97 mtrace_log] R: 0x80000e90 (len=4) data=0x00140413[0m
0x80000e90: 00 14 04 13 addi	s0, s0, 1
[1;34m[src/memory/paddr.c:97 mtrace_log] R: 0x80000e94 (len=4) data=0x00448493[0m
0x80000e94: 00 44 84 93 addi	s1, s1, 4
[1;34m[src/memory/paddr.c:97 mtrace_log] R: 0x80000e98 (len=4) data=0xff2412e3[0m
0x80000e98: ff 24 12 e3 bne	s0, s2, -0x1c
[1;34m[src/memory/paddr.c:97 mtrace_log] R: 0x80000e7c (len=4) data=0x0004a603[0m
[1;34m[src/memory/paddr.c:97 mtrace_log] R: 0x80002d18 (len=4) data=0x00000000[0m
0x80000e7c: 00 04 a6 03 lw	a2, 0(s1)
[1;34m[src/memory/paddr.c:97 mtrace_log] R: 0x80000e80 (len=4) data=0x00060863[0m
0x80000e80: 00 06 08 63 beqz	a2, 0x10
[1;34m[src/memory/paddr.c:97 mtrace_log] R: 0x80000e90 (len=4) data=0x00140413[0m
0x80000e90: 00 14 04 13 addi	s0, s0, 1
[1;34m[src/memory/paddr.c:97 mtrace_log] R: 0x80000e94 (len=4) data=0x00448493[0m
0x80000e94: 00 44 84 93 addi	s1, s1, 4
[1;34m[src/memory/paddr.c:97 mtrace_log] R: 0x80000e98 (len=4) data=0xff2412e3[0m
0x80000e98: ff 24 12 e3 bne	s0, s2, -0x1c
[1;34m[src/memory/paddr.c:97 mtrace_log] R: 0x80000e7c (len=4) data=0x0004a603[0m
[1;34m[src/memory/paddr.c:97 mtrace_log] R: 0x80002d1c (len=4) data=0x00000000[0m
0x80000e7c: 00 04 a6 03 lw	a2, 0(s1)
[1;34m[src/memory/paddr.c:97 mtrace_log] R: 0x80000e80 (len=4) data=0x00060863[0m
0x80000e80: 00 06 08 63 beqz	a2, 0x10
[1;34m[src/memory/paddr.c:97 mtrace_log] R: 0x80000e90 (len=4) data=0x00140413[0m
0x80000e90: 00 14 04 13 addi	s0, s0, 1
[1;34m[src/memory/paddr.c:97 mtrace_log] R: 0x80000e94 (len=4) data=0x00448493[0m
0x80000e94: 00 44 84 93 addi	s1, s1, 4
[1;34m[src/memory/paddr.c:97 mtrace_log] R: 0x80000e98 (len=4) data=0xff2412e3[0m
0x80000e98: ff 24 12 e3 bne	s0, s2, -0x1c
[1;34m[src/memory/paddr.c:97 mtrace_log] R: 0x80000e7c (len=4) data=0x0004a603[0m
[1;34m[src/memory/paddr.c:97 mtrace_log] R: 0x80002d20 (len=4) data=0x00000000[0m
0x80000e7c: 00 04 a6 03 lw	a2, 0(s1)
[1;34m[src/memory/paddr.c:97 mtrace_log] R: 0x80000e80 (len=4) data=0x00060863[0m
0x80000e80: 00 06 08 63 beqz	a2, 0x10
[1;34m[src/memory/paddr.c:97 mtrace_log] R: 0x80000e90 (len=4) data=0x00140413[0m
0x80000e90: 00 14 04 13 addi	s0, s0, 1
[1;34m[src/memory/paddr.c:97 mtrace_log] R: 0x80000e94 (len=4) data=0x00448493[0m
0x80000e94: 00 44 84 93 addi	s1, s1, 4
[1;34m[src/memory/paddr.c:97 mtrace_log] R: 0x80000e98 (len=4) data=0xff2412e3[0m
0x80000e98: ff 24 12 e3 bne	s0, s2, -0x1c
[1;34m[src/memory/paddr.c:97 mtrace_log] R: 0x80000e7c (len=4) data=0x0004a603[0m
[1;34m[src/memory/paddr.c:97 mtrace_log] R: 0x80002d24 (len=4) data=0x00000000[0m
0x80000e7c: 00 04 a6 03 lw	a2, 0(s1)
[1;34m[src/memory/paddr.c:97 mtrace_log] R: 0x80000e80 (len=4) data=0x00060863[0m
0x80000e80: 00 06 08 63 beqz	a2, 0x10
[1;34m[src/memory/paddr.c:97 mtrace_log] R: 0x80000e90 (len=4) data=0x00140413[0m
0x80000e90: 00 14 04 13 addi	s0, s0, 1
[1;34m[src/memory/paddr.c:97 mtrace_log] R: 0x80000e94 (len=4) data=0x00448493[0m
0x80000e94: 00 44 84 93 addi	s1, s1, 4
[1;34m[src/memory/paddr.c:97 mtrace_log] R: 0x80000e98 (len=4) data=0xff2412e3[0m
0x80000e98: ff 24 12 e3 bne	s0, s2, -0x1c
[1;34m[src/memory/paddr.c:97 mtrace_log] R: 0x80000e7c (len=4) data=0x0004a603[0m
[1;34m[src/memory/paddr.c:97 mtrace_log] R: 0x80002d28 (len=4) data=0x00000000[0m
0x80000e7c: 00 04 a6 03 lw	a2, 0(s1)
[1;34m[src/memory/paddr.c:97 mtrace_log] R: 0x80000e80 (len=4) data=0x00060863[0m
0x80000e80: 00 06 08 63 beqz	a2, 0x10
[1;34m[src/memory/paddr.c:97 mtrace_log] R: 0x80000e90 (len=4) data=0x00140413[0m
0x80000e90: 00 14 04 13 addi	s0, s0, 1
[1;34m[src/memory/paddr.c:97 mtrace_log] R: 0x80000e94 (len=4) data=0x00448493[0m
0x80000e94: 00 44 84 93 addi	s1, s1, 4
[1;34m[src/memory/paddr.c:97 mtrace_log] R: 0x80000e98 (len=4) data=0xff2412e3[0m
0x80000e98: ff 24 12 e3 bne	s0, s2, -0x1c
[1;34m[src/memory/paddr.c:97 mtrace_log] R: 0x80000e7c (len=4) data=0x0004a603[0m
[1;34m[src/memory/paddr.c:97 mtrace_log] R: 0x80002d2c (len=4) data=0x00000000[0m
0x80000e7c: 00 04 a6 03 lw	a2, 0(s1)
[1;34m[src/memory/paddr.c:97 mtrace_log] R: 0x80000e80 (len=4) data=0x00060863[0m
0x80000e80: 00 06 08 63 beqz	a2, 0x10
[1;34m[src/memory/paddr.c:97 mtrace_log] R: 0x80000e90 (len=4) data=0x00140413[0m
0x80000e90: 00 14 04 13 addi	s0, s0, 1
[1;34m[src/memory/paddr.c:97 mtrace_log] R: 0x80000e94 (len=4) data=0x00448493[0m
0x80000e94: 00 44 84 93 addi	s1, s1, 4
[1;34m[src/memory/paddr.c:97 mtrace_log] R: 0x80000e98 (len=4) data=0xff2412e3[0m
0x80000e98: ff 24 12 e3 bne	s0, s2, -0x1c
[1;34m[src/memory/paddr.c:97 mtrace_log] R: 0x80000e7c (len=4) data=0x0004a603[0m
[1;34m[src/memory/paddr.c:97 mtrace_log] R: 0x80002d30 (len=4) data=0x00000000[0m
0x80000e7c: 00 04 a6 03 lw	a2, 0(s1)
[1;34m[src/memory/paddr.c:97 mtrace_log] R: 0x80000e80 (len=4) data=0x00060863[0m
0x80000e80: 00 06 08 63 beqz	a2, 0x10
[1;34m[src/memory/paddr.c:97 mtrace_log] R: 0x80000e90 (len=4) data=0x00140413[0m
0x80000e90: 00 14 04 13 addi	s0, s0, 1
[1;34m[src/memory/paddr.c:97 mtrace_log] R: 0x80000e94 (len=4) data=0x00448493[0m
0x80000e94: 00 44 84 93 addi	s1, s1, 4
[1;34m[src/memory/paddr.c:97 mtrace_log] R: 0x80000e98 (len=4) data=0xff2412e3[0m
0x80000e98: ff 24 12 e3 bne	s0, s2, -0x1c
[1;34m[src/memory/paddr.c:97 mtrace_log] R: 0x80000e7c (len=4) data=0x0004a603[0m
[1;34m[src/memory/paddr.c:97 mtrace_log] R: 0x80002d34 (len=4) data=0x00000000[0m
0x80000e7c: 00 04 a6 03 lw	a2, 0(s1)
[1;34m[src/memory/paddr.c:97 mtrace_log] R: 0x80000e80 (len=4) data=0x00060863[0m
0x80000e80: 00 06 08 63 beqz	a2, 0x10
[1;34m[src/memory/paddr.c:97 mtrace_log] R: 0x80000e90 (len=4) data=0x00140413[0m
0x80000e90: 00 14 04 13 addi	s0, s0, 1
[1;34m[src/memory/paddr.c:97 mtrace_log] R: 0x80000e94 (len=4) data=0x00448493[0m
0x80000e94: 00 44 84 93 addi	s1, s1, 4
[1;34m[src/memory/paddr.c:97 mtrace_log] R: 0x80000e98 (len=4) data=0xff2412e3[0m
0x80000e98: ff 24 12 e3 bne	s0, s2, -0x1c
[1;34m[src/memory/paddr.c:97 mtrace_log] R: 0x80000e7c (len=4) data=0x0004a603[0m
[1;34m[src/memory/paddr.c:97 mtrace_log] R: 0x80002d38 (len=4) data=0x00000000[0m
0x80000e7c: 00 04 a6 03 lw	a2, 0(s1)
[1;34m[src/memory/paddr.c:97 mtrace_log] R: 0x80000e80 (len=4) data=0x00060863[0m
0x80000e80: 00 06 08 63 beqz	a2, 0x10
[1;34m[src/memory/paddr.c:97 mtrace_log] R: 0x80000e90 (len=4) data=0x00140413[0m
0x80000e90: 00 14 04 13 addi	s0, s0, 1
[1;34m[src/memory/paddr.c:97 mtrace_log] R: 0x80000e94 (len=4) data=0x00448493[0m
0x80000e94: 00 44 84 93 addi	s1, s1, 4
[1;34m[src/memory/paddr.c:97 mtrace_log] R: 0x80000e98 (len=4) data=0xff2412e3[0m
0x80000e98: ff 24 12 e3 bne	s0, s2, -0x1c
[1;34m[src/memory/paddr.c:97 mtrace_log] R: 0x80000e7c (len=4) data=0x0004a603[0m
[1;34m[src/memory/paddr.c:97 mtrace_log] R: 0x80002d3c (len=4) data=0x00000000[0m
0x80000e7c: 00 04 a6 03 lw	a2, 0(s1)
[1;34m[src/memory/paddr.c:97 mtrace_log] R: 0x80000e80 (len=4) data=0x00060863[0m
0x80000e80: 00 06 08 63 beqz	a2, 0x10
[1;34m[src/memory/paddr.c:97 mtrace_log] R: 0x80000e90 (len=4) data=0x00140413[0m
0x80000e90: 00 14 04 13 addi	s0, s0, 1
[1;34m[src/memory/paddr.c:97 mtrace_log] R: 0x80000e94 (len=4) data=0x00448493[0m
0x80000e94: 00 44 84 93 addi	s1, s1, 4
[1;34m[src/memory/paddr.c:97 mtrace_log] R: 0x80000e98 (len=4) data=0xff2412e3[0m
0x80000e98: ff 24 12 e3 bne	s0, s2, -0x1c
[1;34m[src/memory/paddr.c:97 mtrace_log] R: 0x80000e7c (len=4) data=0x0004a603[0m
[1;34m[src/memory/paddr.c:97 mtrace_log] R: 0x80002d40 (len=4) data=0x00000000[0m
0x80000e7c: 00 04 a6 03 lw	a2, 0(s1)
[1;34m[src/memory/paddr.c:97 mtrace_log] R: 0x80000e80 (len=4) data=0x00060863[0m
0x80000e80: 00 06 08 63 beqz	a2, 0x10
[1;34m[src/memory/paddr.c:97 mtrace_log] R: 0x80000e90 (len=4) data=0x00140413[0m
0x80000e90: 00 14 04 13 addi	s0, s0, 1
[1;34m[src/memory/paddr.c:97 mtrace_log] R: 0x80000e94 (len=4) data=0x00448493[0m
0x80000e94: 00 44 84 93 addi	s1, s1, 4
[1;34m[src/memory/paddr.c:97 mtrace_log] R: 0x80000e98 (len=4) data=0xff2412e3[0m
0x80000e98: ff 24 12 e3 bne	s0, s2, -0x1c
[1;34m[src/memory/paddr.c:97 mtrace_log] R: 0x80000e7c (len=4) data=0x0004a603[0m
[1;34m[src/memory/paddr.c:97 mtrace_log] R: 0x80002d44 (len=4) data=0x00000000[0m
0x80000e7c: 00 04 a6 03 lw	a2, 0(s1)
[1;34m[src/memory/paddr.c:97 mtrace_log] R: 0x80000e80 (len=4) data=0x00060863[0m
0x80000e80: 00 06 08 63 beqz	a2, 0x10
[1;34m[src/memory/paddr.c:97 mtrace_log] R: 0x80000e90 (len=4) data=0x00140413[0m
0x80000e90: 00 14 04 13 addi	s0, s0, 1
[1;34m[src/memory/paddr.c:97 mtrace_log] R: 0x80000e94 (len=4) data=0x00448493[0m
0x80000e94: 00 44 84 93 addi	s1, s1, 4
[1;34m[src/memory/paddr.c:97 mtrace_log] R: 0x80000e98 (len=4) data=0xff2412e3[0m
0x80000e98: ff 24 12 e3 bne	s0, s2, -0x1c
[1;34m[src/memory/paddr.c:97 mtrace_log] R: 0x80000e7c (len=4) data=0x0004a603[0m
[1;34m[src/memory/paddr.c:97 mtrace_log] R: 0x80002d48 (len=4) data=0x00000000[0m
0x80000e7c: 00 04 a6 03 lw	a2, 0(s1)
[1;34m[src/memory/paddr.c:97 mtrace_log] R: 0x80000e80 (len=4) data=0x00060863[0m
0x80000e80: 00 06 08 63 beqz	a2, 0x10
[1;34m[src/memory/paddr.c:97 mtrace_log] R: 0x80000e90 (len=4) data=0x00140413[0m
0x80000e90: 00 14 04 13 addi	s0, s0, 1
[1;34m[src/memory/paddr.c:97 mtrace_log] R: 0x80000e94 (len=4) data=0x00448493[0m
0x80000e94: 00 44 84 93 addi	s1, s1, 4
[1;34m[src/memory/paddr.c:97 mtrace_log] R: 0x80000e98 (len=4) data=0xff2412e3[0m
0x80000e98: ff 24 12 e3 bne	s0, s2, -0x1c
[1;34m[src/memory/paddr.c:97 mtrace_log] R: 0x80000e7c (len=4) data=0x0004a603[0m
[1;34m[src/memory/paddr.c:97 mtrace_log] R: 0x80002d4c (len=4) data=0x00000000[0m
0x80000e7c: 00 04 a6 03 lw	a2, 0(s1)
[1;34m[src/memory/paddr.c:97 mtrace_log] R: 0x80000e80 (len=4) data=0x00060863[0m
0x80000e80: 00 06 08 63 beqz	a2, 0x10
[1;34m[src/memory/paddr.c:97 mtrace_log] R: 0x80000e90 (len=4) data=0x00140413[0m
0x80000e90: 00 14 04 13 addi	s0, s0, 1
[1;34m[src/memory/paddr.c:97 mtrace_log] R: 0x80000e94 (len=4) data=0x00448493[0m
0x80000e94: 00 44 84 93 addi	s1, s1, 4
[1;34m[src/memory/paddr.c:97 mtrace_log] R: 0x80000e98 (len=4) data=0xff2412e3[0m
0x80000e98: ff 24 12 e3 bne	s0, s2, -0x1c
[1;34m[src/memory/paddr.c:97 mtrace_log] R: 0x80000e7c (len=4) data=0x0004a603[0m
[1;34m[src/memory/paddr.c:97 mtrace_log] R: 0x80002d50 (len=4) data=0x00000000[0m
0x80000e7c: 00 04 a6 03 lw	a2, 0(s1)
[1;34m[src/memory/paddr.c:97 mtrace_log] R: 0x80000e80 (len=4) data=0x00060863[0m
0x80000e80: 00 06 08 63 beqz	a2, 0x10
[1;34m[src/memory/paddr.c:97 mtrace_log] R: 0x80000e90 (len=4) data=0x00140413[0m
0x80000e90: 00 14 04 13 addi	s0, s0, 1
[1;34m[src/memory/paddr.c:97 mtrace_log] R: 0x80000e94 (len=4) data=0x00448493[0m
0x80000e94: 00 44 84 93 addi	s1, s1, 4
[1;34m[src/memory/paddr.c:97 mtrace_log] R: 0x80000e98 (len=4) data=0xff2412e3[0m
0x80000e98: ff 24 12 e3 bne	s0, s2, -0x1c
[1;34m[src/memory/paddr.c:97 mtrace_log] R: 0x80000e7c (len=4) data=0x0004a603[0m
[1;34m[src/memory/paddr.c:97 mtrace_log] R: 0x80002d54 (len=4) data=0x00000000[0m
0x80000e7c: 00 04 a6 03 lw	a2, 0(s1)
[1;34m[src/memory/paddr.c:97 mtrace_log] R: 0x80000e80 (len=4) data=0x00060863[0m
0x80000e80: 00 06 08 63 beqz	a2, 0x10
[1;34m[src/memory/paddr.c:97 mtrace_log] R: 0x80000e90 (len=4) data=0x00140413[0m
0x80000e90: 00 14 04 13 addi	s0, s0, 1
[1;34m[src/memory/paddr.c:97 mtrace_log] R: 0x80000e94 (len=4) data=0x00448493[0m
0x80000e94: 00 44 84 93 addi	s1, s1, 4
[1;34m[src/memory/paddr.c:97 mtrace_log] R: 0x80000e98 (len=4) data=0xff2412e3[0m
0x80000e98: ff 24 12 e3 bne	s0, s2, -0x1c
[1;34m[src/memory/paddr.c:97 mtrace_log] R: 0x80000e7c (len=4) data=0x0004a603[0m
[1;34m[src/memory/paddr.c:97 mtrace_log] R: 0x80002d58 (len=4) data=0x00000000[0m
0x80000e7c: 00 04 a6 03 lw	a2, 0(s1)
[1;34m[src/memory/paddr.c:97 mtrace_log] R: 0x80000e80 (len=4) data=0x00060863[0m
0x80000e80: 00 06 08 63 beqz	a2, 0x10
[1;34m[src/memory/paddr.c:97 mtrace_log] R: 0x80000e90 (len=4) data=0x00140413[0m
0x80000e90: 00 14 04 13 addi	s0, s0, 1
[1;34m[src/memory/paddr.c:97 mtrace_log] R: 0x80000e94 (len=4) data=0x00448493[0m
0x80000e94: 00 44 84 93 addi	s1, s1, 4
[1;34m[src/memory/paddr.c:97 mtrace_log] R: 0x80000e98 (len=4) data=0xff2412e3[0m
0x80000e98: ff 24 12 e3 bne	s0, s2, -0x1c
[1;34m[src/memory/paddr.c:97 mtrace_log] R: 0x80000e7c (len=4) data=0x0004a603[0m
[1;34m[src/memory/paddr.c:97 mtrace_log] R: 0x80002d5c (len=4) data=0x00000000[0m
0x80000e7c: 00 04 a6 03 lw	a2, 0(s1)
[1;34m[src/memory/paddr.c:97 mtrace_log] R: 0x80000e80 (len=4) data=0x00060863[0m
0x80000e80: 00 06 08 63 beqz	a2, 0x10
[1;34m[src/memory/paddr.c:97 mtrace_log] R: 0x80000e90 (len=4) data=0x00140413[0m
0x80000e90: 00 14 04 13 addi	s0, s0, 1
[1;34m[src/memory/paddr.c:97 mtrace_log] R: 0x80000e94 (len=4) data=0x00448493[0m
0x80000e94: 00 44 84 93 addi	s1, s1, 4
[1;34m[src/memory/paddr.c:97 mtrace_log] R: 0x80000e98 (len=4) data=0xff2412e3[0m
0x80000e98: ff 24 12 e3 bne	s0, s2, -0x1c
[1;34m[src/memory/paddr.c:97 mtrace_log] R: 0x80000e7c (len=4) data=0x0004a603[0m
[1;34m[src/memory/paddr.c:97 mtrace_log] R: 0x80002d60 (len=4) data=0x00000000[0m
0x80000e7c: 00 04 a6 03 lw	a2, 0(s1)
[1;34m[src/memory/paddr.c:97 mtrace_log] R: 0x80000e80 (len=4) data=0x00060863[0m
0x80000e80: 00 06 08 63 beqz	a2, 0x10
[1;34m[src/memory/paddr.c:97 mtrace_log] R: 0x80000e90 (len=4) data=0x00140413[0m
0x80000e90: 00 14 04 13 addi	s0, s0, 1
[1;34m[src/memory/paddr.c:97 mtrace_log] R: 0x80000e94 (len=4) data=0x00448493[0m
0x80000e94: 00 44 84 93 addi	s1, s1, 4
[1;34m[src/memory/paddr.c:97 mtrace_log] R: 0x80000e98 (len=4) data=0xff2412e3[0m
0x80000e98: ff 24 12 e3 bne	s0, s2, -0x1c
[1;34m[src/memory/paddr.c:97 mtrace_log] R: 0x80000e7c (len=4) data=0x0004a603[0m
[1;34m[src/memory/paddr.c:97 mtrace_log] R: 0x80002d64 (len=4) data=0x00000000[0m
0x80000e7c: 00 04 a6 03 lw	a2, 0(s1)
[1;34m[src/memory/paddr.c:97 mtrace_log] R: 0x80000e80 (len=4) data=0x00060863[0m
0x80000e80: 00 06 08 63 beqz	a2, 0x10
[1;34m[src/memory/paddr.c:97 mtrace_log] R: 0x80000e90 (len=4) data=0x00140413[0m
0x80000e90: 00 14 04 13 addi	s0, s0, 1
[1;34m[src/memory/paddr.c:97 mtrace_log] R: 0x80000e94 (len=4) data=0x00448493[0m
0x80000e94: 00 44 84 93 addi	s1, s1, 4
[1;34m[src/memory/paddr.c:97 mtrace_log] R: 0x80000e98 (len=4) data=0xff2412e3[0m
0x80000e98: ff 24 12 e3 bne	s0, s2, -0x1c
[1;34m[src/memory/paddr.c:97 mtrace_log] R: 0x80000e7c (len=4) data=0x0004a603[0m
[1;34m[src/memory/paddr.c:97 mtrace_log] R: 0x80002d68 (len=4) data=0x00000000[0m
0x80000e7c: 00 04 a6 03 lw	a2, 0(s1)
[1;34m[src/memory/paddr.c:97 mtrace_log] R: 0x80000e80 (len=4) data=0x00060863[0m
0x80000e80: 00 06 08 63 beqz	a2, 0x10
[1;34m[src/memory/paddr.c:97 mtrace_log] R: 0x80000e90 (len=4) data=0x00140413[0m
0x80000e90: 00 14 04 13 addi	s0, s0, 1
[1;34m[src/memory/paddr.c:97 mtrace_log] R: 0x80000e94 (len=4) data=0x00448493[0m
0x80000e94: 00 44 84 93 addi	s1, s1, 4
[1;34m[src/memory/paddr.c:97 mtrace_log] R: 0x80000e98 (len=4) data=0xff2412e3[0m
0x80000e98: ff 24 12 e3 bne	s0, s2, -0x1c
[1;34m[src/memory/paddr.c:97 mtrace_log] R: 0x80000e7c (len=4) data=0x0004a603[0m
[1;34m[src/memory/paddr.c:97 mtrace_log] R: 0x80002d6c (len=4) data=0x00000000[0m
0x80000e7c: 00 04 a6 03 lw	a2, 0(s1)
[1;34m[src/memory/paddr.c:97 mtrace_log] R: 0x80000e80 (len=4) data=0x00060863[0m
0x80000e80: 00 06 08 63 beqz	a2, 0x10
[1;34m[src/memory/paddr.c:97 mtrace_log] R: 0x80000e90 (len=4) data=0x00140413[0m
0x80000e90: 00 14 04 13 addi	s0, s0, 1
[1;34m[src/memory/paddr.c:97 mtrace_log] R: 0x80000e94 (len=4) data=0x00448493[0m
0x80000e94: 00 44 84 93 addi	s1, s1, 4
[1;34m[src/memory/paddr.c:97 mtrace_log] R: 0x80000e98 (len=4) data=0xff2412e3[0m
0x80000e98: ff 24 12 e3 bne	s0, s2, -0x1c
[1;34m[src/memory/paddr.c:97 mtrace_log] R: 0x80000e7c (len=4) data=0x0004a603[0m
[1;34m[src/memory/paddr.c:97 mtrace_log] R: 0x80002d70 (len=4) data=0x00000000[0m
0x80000e7c: 00 04 a6 03 lw	a2, 0(s1)
[1;34m[src/memory/paddr.c:97 mtrace_log] R: 0x80000e80 (len=4) data=0x00060863[0m
0x80000e80: 00 06 08 63 beqz	a2, 0x10
[1;34m[src/memory/paddr.c:97 mtrace_log] R: 0x80000e90 (len=4) data=0x00140413[0m
0x80000e90: 00 14 04 13 addi	s0, s0, 1
[1;34m[src/memory/paddr.c:97 mtrace_log] R: 0x80000e94 (len=4) data=0x00448493[0m
0x80000e94: 00 44 84 93 addi	s1, s1, 4
[1;34m[src/memory/paddr.c:97 mtrace_log] R: 0x80000e98 (len=4) data=0xff2412e3[0m
0x80000e98: ff 24 12 e3 bne	s0, s2, -0x1c
[1;34m[src/memory/paddr.c:97 mtrace_log] R: 0x80000e7c (len=4) data=0x0004a603[0m
[1;34m[src/memory/paddr.c:97 mtrace_log] R: 0x80002d74 (len=4) data=0x00000000[0m
0x80000e7c: 00 04 a6 03 lw	a2, 0(s1)
[1;34m[src/memory/paddr.c:97 mtrace_log] R: 0x80000e80 (len=4) data=0x00060863[0m
0x80000e80: 00 06 08 63 beqz	a2, 0x10
[1;34m[src/memory/paddr.c:97 mtrace_log] R: 0x80000e90 (len=4) data=0x00140413[0m
0x80000e90: 00 14 04 13 addi	s0, s0, 1
[1;34m[src/memory/paddr.c:97 mtrace_log] R: 0x80000e94 (len=4) data=0x00448493[0m
0x80000e94: 00 44 84 93 addi	s1, s1, 4
[1;34m[src/memory/paddr.c:97 mtrace_log] R: 0x80000e98 (len=4) data=0xff2412e3[0m
0x80000e98: ff 24 12 e3 bne	s0, s2, -0x1c
[1;34m[src/memory/paddr.c:97 mtrace_log] R: 0x80000e7c (len=4) data=0x0004a603[0m
[1;34m[src/memory/paddr.c:97 mtrace_log] R: 0x80002d78 (len=4) data=0x00000000[0m
0x80000e7c: 00 04 a6 03 lw	a2, 0(s1)
[1;34m[src/memory/paddr.c:97 mtrace_log] R: 0x80000e80 (len=4) data=0x00060863[0m
0x80000e80: 00 06 08 63 beqz	a2, 0x10
[1;34m[src/memory/paddr.c:97 mtrace_log] R: 0x80000e90 (len=4) data=0x00140413[0m
0x80000e90: 00 14 04 13 addi	s0, s0, 1
[1;34m[src/memory/paddr.c:97 mtrace_log] R: 0x80000e94 (len=4) data=0x00448493[0m
0x80000e94: 00 44 84 93 addi	s1, s1, 4
[1;34m[src/memory/paddr.c:97 mtrace_log] R: 0x80000e98 (len=4) data=0xff2412e3[0m
0x80000e98: ff 24 12 e3 bne	s0, s2, -0x1c
[1;34m[src/memory/paddr.c:97 mtrace_log] R: 0x80000e7c (len=4) data=0x0004a603[0m
[1;34m[src/memory/paddr.c:97 mtrace_log] R: 0x80002d7c (len=4) data=0x00000000[0m
0x80000e7c: 00 04 a6 03 lw	a2, 0(s1)
[1;34m[src/memory/paddr.c:97 mtrace_log] R: 0x80000e80 (len=4) data=0x00060863[0m
0x80000e80: 00 06 08 63 beqz	a2, 0x10
[1;34m[src/memory/paddr.c:97 mtrace_log] R: 0x80000e90 (len=4) data=0x00140413[0m
0x80000e90: 00 14 04 13 addi	s0, s0, 1
[1;34m[src/memory/paddr.c:97 mtrace_log] R: 0x80000e94 (len=4) data=0x00448493[0m
0x80000e94: 00 44 84 93 addi	s1, s1, 4
[1;34m[src/memory/paddr.c:97 mtrace_log] R: 0x80000e98 (len=4) data=0xff2412e3[0m
0x80000e98: ff 24 12 e3 bne	s0, s2, -0x1c
[1;34m[src/memory/paddr.c:97 mtrace_log] R: 0x80000e7c (len=4) data=0x0004a603[0m
[1;34m[src/memory/paddr.c:97 mtrace_log] R: 0x80002d80 (len=4) data=0x00000000[0m
0x80000e7c: 00 04 a6 03 lw	a2, 0(s1)
[1;34m[src/memory/paddr.c:97 mtrace_log] R: 0x80000e80 (len=4) data=0x00060863[0m
0x80000e80: 00 06 08 63 beqz	a2, 0x10
[1;34m[src/memory/paddr.c:97 mtrace_log] R: 0x80000e90 (len=4) data=0x00140413[0m
0x80000e90: 00 14 04 13 addi	s0, s0, 1
[1;34m[src/memory/paddr.c:97 mtrace_log] R: 0x80000e94 (len=4) data=0x00448493[0m
0x80000e94: 00 44 84 93 addi	s1, s1, 4
[1;34m[src/memory/paddr.c:97 mtrace_log] R: 0x80000e98 (len=4) data=0xff2412e3[0m
0x80000e98: ff 24 12 e3 bne	s0, s2, -0x1c
[1;34m[src/memory/paddr.c:97 mtrace_log] R: 0x80000e7c (len=4) data=0x0004a603[0m
[1;34m[src/memory/paddr.c:97 mtrace_log] R: 0x80002d84 (len=4) data=0x00000000[0m
0x80000e7c: 00 04 a6 03 lw	a2, 0(s1)
[1;34m[src/memory/paddr.c:97 mtrace_log] R: 0x80000e80 (len=4) data=0x00060863[0m
0x80000e80: 00 06 08 63 beqz	a2, 0x10
[1;34m[src/memory/paddr.c:97 mtrace_log] R: 0x80000e90 (len=4) data=0x00140413[0m
0x80000e90: 00 14 04 13 addi	s0, s0, 1
[1;34m[src/memory/paddr.c:97 mtrace_log] R: 0x80000e94 (len=4) data=0x00448493[0m
0x80000e94: 00 44 84 93 addi	s1, s1, 4
[1;34m[src/memory/paddr.c:97 mtrace_log] R: 0x80000e98 (len=4) data=0xff2412e3[0m
0x80000e98: ff 24 12 e3 bne	s0, s2, -0x1c
[1;34m[src/memory/paddr.c:97 mtrace_log] R: 0x80000e7c (len=4) data=0x0004a603[0m
[1;34m[src/memory/paddr.c:97 mtrace_log] R: 0x80002d88 (len=4) data=0x00000000[0m
0x80000e7c: 00 04 a6 03 lw	a2, 0(s1)
[1;34m[src/memory/paddr.c:97 mtrace_log] R: 0x80000e80 (len=4) data=0x00060863[0m
0x80000e80: 00 06 08 63 beqz	a2, 0x10
[1;34m[src/memory/paddr.c:97 mtrace_log] R: 0x80000e90 (len=4) data=0x00140413[0m
0x80000e90: 00 14 04 13 addi	s0, s0, 1
[1;34m[src/memory/paddr.c:97 mtrace_log] R: 0x80000e94 (len=4) data=0x00448493[0m
0x80000e94: 00 44 84 93 addi	s1, s1, 4
[1;34m[src/memory/paddr.c:97 mtrace_log] R: 0x80000e98 (len=4) data=0xff2412e3[0m
0x80000e98: ff 24 12 e3 bne	s0, s2, -0x1c
[1;34m[src/memory/paddr.c:97 mtrace_log] R: 0x80000e7c (len=4) data=0x0004a603[0m
[1;34m[src/memory/paddr.c:97 mtrace_log] R: 0x80002d8c (len=4) data=0x00000000[0m
0x80000e7c: 00 04 a6 03 lw	a2, 0(s1)
[1;34m[src/memory/paddr.c:97 mtrace_log] R: 0x80000e80 (len=4) data=0x00060863[0m
0x80000e80: 00 06 08 63 beqz	a2, 0x10
[1;34m[src/memory/paddr.c:97 mtrace_log] R: 0x80000e90 (len=4) data=0x00140413[0m
0x80000e90: 00 14 04 13 addi	s0, s0, 1
[1;34m[src/memory/paddr.c:97 mtrace_log] R: 0x80000e94 (len=4) data=0x00448493[0m
0x80000e94: 00 44 84 93 addi	s1, s1, 4
[1;34m[src/memory/paddr.c:97 mtrace_log] R: 0x80000e98 (len=4) data=0xff2412e3[0m
0x80000e98: ff 24 12 e3 bne	s0, s2, -0x1c
[1;34m[src/memory/paddr.c:97 mtrace_log] R: 0x80000e7c (len=4) data=0x0004a603[0m
[1;34m[src/memory/paddr.c:97 mtrace_log] R: 0x80002d90 (len=4) data=0x00000000[0m
0x80000e7c: 00 04 a6 03 lw	a2, 0(s1)
[1;34m[src/memory/paddr.c:97 mtrace_log] R: 0x80000e80 (len=4) data=0x00060863[0m
0x80000e80: 00 06 08 63 beqz	a2, 0x10
[1;34m[src/memory/paddr.c:97 mtrace_log] R: 0x80000e90 (len=4) data=0x00140413[0m
0x80000e90: 00 14 04 13 addi	s0, s0, 1
[1;34m[src/memory/paddr.c:97 mtrace_log] R: 0x80000e94 (len=4) data=0x00448493[0m
0x80000e94: 00 44 84 93 addi	s1, s1, 4
[1;34m[src/memory/paddr.c:97 mtrace_log] R: 0x80000e98 (len=4) data=0xff2412e3[0m
0x80000e98: ff 24 12 e3 bne	s0, s2, -0x1c
[1;34m[src/memory/paddr.c:97 mtrace_log] R: 0x80000e7c (len=4) data=0x0004a603[0m
[1;34m[src/memory/paddr.c:97 mtrace_log] R: 0x80002d94 (len=4) data=0x00000000[0m
0x80000e7c: 00 04 a6 03 lw	a2, 0(s1)
[1;34m[src/memory/paddr.c:97 mtrace_log] R: 0x80000e80 (len=4) data=0x00060863[0m
0x80000e80: 00 06 08 63 beqz	a2, 0x10
[1;34m[src/memory/paddr.c:97 mtrace_log] R: 0x80000e90 (len=4) data=0x00140413[0m
0x80000e90: 00 14 04 13 addi	s0, s0, 1
[1;34m[src/memory/paddr.c:97 mtrace_log] R: 0x80000e94 (len=4) data=0x00448493[0m
0x80000e94: 00 44 84 93 addi	s1, s1, 4
[1;34m[src/memory/paddr.c:97 mtrace_log] R: 0x80000e98 (len=4) data=0xff2412e3[0m
0x80000e98: ff 24 12 e3 bne	s0, s2, -0x1c
[1;34m[src/memory/paddr.c:97 mtrace_log] R: 0x80000e7c (len=4) data=0x0004a603[0m
[1;34m[src/memory/paddr.c:97 mtrace_log] R: 0x80002d98 (len=4) data=0x00000000[0m
0x80000e7c: 00 04 a6 03 lw	a2, 0(s1)
[1;34m[src/memory/paddr.c:97 mtrace_log] R: 0x80000e80 (len=4) data=0x00060863[0m
0x80000e80: 00 06 08 63 beqz	a2, 0x10
[1;34m[src/memory/paddr.c:97 mtrace_log] R: 0x80000e90 (len=4) data=0x00140413[0m
0x80000e90: 00 14 04 13 addi	s0, s0, 1
[1;34m[src/memory/paddr.c:97 mtrace_log] R: 0x80000e94 (len=4) data=0x00448493[0m
0x80000e94: 00 44 84 93 addi	s1, s1, 4
[1;34m[src/memory/paddr.c:97 mtrace_log] R: 0x80000e98 (len=4) data=0xff2412e3[0m
0x80000e98: ff 24 12 e3 bne	s0, s2, -0x1c
[1;34m[src/memory/paddr.c:97 mtrace_log] R: 0x80000e7c (len=4) data=0x0004a603[0m
[1;34m[src/memory/paddr.c:97 mtrace_log] R: 0x80002d9c (len=4) data=0x00000000[0m
0x80000e7c: 00 04 a6 03 lw	a2, 0(s1)
[1;34m[src/memory/paddr.c:97 mtrace_log] R: 0x80000e80 (len=4) data=0x00060863[0m
0x80000e80: 00 06 08 63 beqz	a2, 0x10
[1;34m[src/memory/paddr.c:97 mtrace_log] R: 0x80000e90 (len=4) data=0x00140413[0m
0x80000e90: 00 14 04 13 addi	s0, s0, 1
[1;34m[src/memory/paddr.c:97 mtrace_log] R: 0x80000e94 (len=4) data=0x00448493[0m
0x80000e94: 00 44 84 93 addi	s1, s1, 4
[1;34m[src/memory/paddr.c:97 mtrace_log] R: 0x80000e98 (len=4) data=0xff2412e3[0m
0x80000e98: ff 24 12 e3 bne	s0, s2, -0x1c
[1;34m[src/memory/paddr.c:97 mtrace_log] R: 0x80000e7c (len=4) data=0x0004a603[0m
[1;34m[src/memory/paddr.c:97 mtrace_log] R: 0x80002da0 (len=4) data=0x00000000[0m
0x80000e7c: 00 04 a6 03 lw	a2, 0(s1)
[1;34m[src/memory/paddr.c:97 mtrace_log] R: 0x80000e80 (len=4) data=0x00060863[0m
0x80000e80: 00 06 08 63 beqz	a2, 0x10
[1;34m[src/memory/paddr.c:97 mtrace_log] R: 0x80000e90 (len=4) data=0x00140413[0m
0x80000e90: 00 14 04 13 addi	s0, s0, 1
[1;34m[src/memory/paddr.c:97 mtrace_log] R: 0x80000e94 (len=4) data=0x00448493[0m
0x80000e94: 00 44 84 93 addi	s1, s1, 4
[1;34m[src/memory/paddr.c:97 mtrace_log] R: 0x80000e98 (len=4) data=0xff2412e3[0m
0x80000e98: ff 24 12 e3 bne	s0, s2, -0x1c
[1;34m[src/memory/paddr.c:97 mtrace_log] R: 0x80000e7c (len=4) data=0x0004a603[0m
[1;34m[src/memory/paddr.c:97 mtrace_log] R: 0x80002da4 (len=4) data=0x00000000[0m
0x80000e7c: 00 04 a6 03 lw	a2, 0(s1)
[1;34m[src/memory/paddr.c:97 mtrace_log] R: 0x80000e80 (len=4) data=0x00060863[0m
0x80000e80: 00 06 08 63 beqz	a2, 0x10
[1;34m[src/memory/paddr.c:97 mtrace_log] R: 0x80000e90 (len=4) data=0x00140413[0m
0x80000e90: 00 14 04 13 addi	s0, s0, 1
[1;34m[src/memory/paddr.c:97 mtrace_log] R: 0x80000e94 (len=4) data=0x00448493[0m
0x80000e94: 00 44 84 93 addi	s1, s1, 4
[1;34m[src/memory/paddr.c:97 mtrace_log] R: 0x80000e98 (len=4) data=0xff2412e3[0m
0x80000e98: ff 24 12 e3 bne	s0, s2, -0x1c
[1;34m[src/memory/paddr.c:97 mtrace_log] R: 0x80000e7c (len=4) data=0x0004a603[0m
[1;34m[src/memory/paddr.c:97 mtrace_log] R: 0x80002da8 (len=4) data=0x00000000[0m
0x80000e7c: 00 04 a6 03 lw	a2, 0(s1)
[1;34m[src/memory/paddr.c:97 mtrace_log] R: 0x80000e80 (len=4) data=0x00060863[0m
0x80000e80: 00 06 08 63 beqz	a2, 0x10
[1;34m[src/memory/paddr.c:97 mtrace_log] R: 0x80000e90 (len=4) data=0x00140413[0m
0x80000e90: 00 14 04 13 addi	s0, s0, 1
[1;34m[src/memory/paddr.c:97 mtrace_log] R: 0x80000e94 (len=4) data=0x00448493[0m
0x80000e94: 00 44 84 93 addi	s1, s1, 4
[1;34m[src/memory/paddr.c:97 mtrace_log] R: 0x80000e98 (len=4) data=0xff2412e3[0m
0x80000e98: ff 24 12 e3 bne	s0, s2, -0x1c
[1;34m[src/memory/paddr.c:97 mtrace_log] R: 0x80000e7c (len=4) data=0x0004a603[0m
[1;34m[src/memory/paddr.c:97 mtrace_log] R: 0x80002dac (len=4) data=0x00000000[0m
0x80000e7c: 00 04 a6 03 lw	a2, 0(s1)
[1;34m[src/memory/paddr.c:97 mtrace_log] R: 0x80000e80 (len=4) data=0x00060863[0m
0x80000e80: 00 06 08 63 beqz	a2, 0x10
[1;34m[src/memory/paddr.c:97 mtrace_log] R: 0x80000e90 (len=4) data=0x00140413[0m
0x80000e90: 00 14 04 13 addi	s0, s0, 1
[1;34m[src/memory/paddr.c:97 mtrace_log] R: 0x80000e94 (len=4) data=0x00448493[0m
0x80000e94: 00 44 84 93 addi	s1, s1, 4
[1;34m[src/memory/paddr.c:97 mtrace_log] R: 0x80000e98 (len=4) data=0xff2412e3[0m
0x80000e98: ff 24 12 e3 bne	s0, s2, -0x1c
[1;34m[src/memory/paddr.c:97 mtrace_log] R: 0x80000e7c (len=4) data=0x0004a603[0m
[1;34m[src/memory/paddr.c:97 mtrace_log] R: 0x80002db0 (len=4) data=0x00000000[0m
0x80000e7c: 00 04 a6 03 lw	a2, 0(s1)
[1;34m[src/memory/paddr.c:97 mtrace_log] R: 0x80000e80 (len=4) data=0x00060863[0m
0x80000e80: 00 06 08 63 beqz	a2, 0x10
[1;34m[src/memory/paddr.c:97 mtrace_log] R: 0x80000e90 (len=4) data=0x00140413[0m
0x80000e90: 00 14 04 13 addi	s0, s0, 1
[1;34m[src/memory/paddr.c:97 mtrace_log] R: 0x80000e94 (len=4) data=0x00448493[0m
0x80000e94: 00 44 84 93 addi	s1, s1, 4
[1;34m[src/memory/paddr.c:97 mtrace_log] R: 0x80000e98 (len=4) data=0xff2412e3[0m
0x80000e98: ff 24 12 e3 bne	s0, s2, -0x1c
[1;34m[src/memory/paddr.c:97 mtrace_log] R: 0x80000e7c (len=4) data=0x0004a603[0m
[1;34m[src/memory/paddr.c:97 mtrace_log] R: 0x80002db4 (len=4) data=0x00000000[0m
0x80000e7c: 00 04 a6 03 lw	a2, 0(s1)
[1;34m[src/memory/paddr.c:97 mtrace_log] R: 0x80000e80 (len=4) data=0x00060863[0m
0x80000e80: 00 06 08 63 beqz	a2, 0x10
[1;34m[src/memory/paddr.c:97 mtrace_log] R: 0x80000e90 (len=4) data=0x00140413[0m
0x80000e90: 00 14 04 13 addi	s0, s0, 1
[1;34m[src/memory/paddr.c:97 mtrace_log] R: 0x80000e94 (len=4) data=0x00448493[0m
0x80000e94: 00 44 84 93 addi	s1, s1, 4
[1;34m[src/memory/paddr.c:97 mtrace_log] R: 0x80000e98 (len=4) data=0xff2412e3[0m
0x80000e98: ff 24 12 e3 bne	s0, s2, -0x1c
[1;34m[src/memory/paddr.c:97 mtrace_log] R: 0x80000e7c (len=4) data=0x0004a603[0m
[1;34m[src/memory/paddr.c:97 mtrace_log] R: 0x80002db8 (len=4) data=0x00000000[0m
0x80000e7c: 00 04 a6 03 lw	a2, 0(s1)
[1;34m[src/memory/paddr.c:97 mtrace_log] R: 0x80000e80 (len=4) data=0x00060863[0m
0x80000e80: 00 06 08 63 beqz	a2, 0x10
[1;34m[src/memory/paddr.c:97 mtrace_log] R: 0x80000e90 (len=4) data=0x00140413[0m
0x80000e90: 00 14 04 13 addi	s0, s0, 1
[1;34m[src/memory/paddr.c:97 mtrace_log] R: 0x80000e94 (len=4) data=0x00448493[0m
0x80000e94: 00 44 84 93 addi	s1, s1, 4
[1;34m[src/memory/paddr.c:97 mtrace_log] R: 0x80000e98 (len=4) data=0xff2412e3[0m
0x80000e98: ff 24 12 e3 bne	s0, s2, -0x1c
[1;34m[src/memory/paddr.c:97 mtrace_log] R: 0x80000e7c (len=4) data=0x0004a603[0m
[1;34m[src/memory/paddr.c:97 mtrace_log] R: 0x80002dbc (len=4) data=0x00000000[0m
0x80000e7c: 00 04 a6 03 lw	a2, 0(s1)
[1;34m[src/memory/paddr.c:97 mtrace_log] R: 0x80000e80 (len=4) data=0x00060863[0m
0x80000e80: 00 06 08 63 beqz	a2, 0x10
[1;34m[src/memory/paddr.c:97 mtrace_log] R: 0x80000e90 (len=4) data=0x00140413[0m
0x80000e90: 00 14 04 13 addi	s0, s0, 1
[1;34m[src/memory/paddr.c:97 mtrace_log] R: 0x80000e94 (len=4) data=0x00448493[0m
0x80000e94: 00 44 84 93 addi	s1, s1, 4
[1;34m[src/memory/paddr.c:97 mtrace_log] R: 0x80000e98 (len=4) data=0xff2412e3[0m
0x80000e98: ff 24 12 e3 bne	s0, s2, -0x1c
[1;34m[src/memory/paddr.c:97 mtrace_log] R: 0x80000e7c (len=4) data=0x0004a603[0m
[1;34m[src/memory/paddr.c:97 mtrace_log] R: 0x80002dc0 (len=4) data=0x00000000[0m
0x80000e7c: 00 04 a6 03 lw	a2, 0(s1)
[1;34m[src/memory/paddr.c:97 mtrace_log] R: 0x80000e80 (len=4) data=0x00060863[0m
0x80000e80: 00 06 08 63 beqz	a2, 0x10
[1;34m[src/memory/paddr.c:97 mtrace_log] R: 0x80000e90 (len=4) data=0x00140413[0m
0x80000e90: 00 14 04 13 addi	s0, s0, 1
[1;34m[src/memory/paddr.c:97 mtrace_log] R: 0x80000e94 (len=4) data=0x00448493[0m
0x80000e94: 00 44 84 93 addi	s1, s1, 4
[1;34m[src/memory/paddr.c:97 mtrace_log] R: 0x80000e98 (len=4) data=0xff2412e3[0m
0x80000e98: ff 24 12 e3 bne	s0, s2, -0x1c
[1;34m[src/memory/paddr.c:97 mtrace_log] R: 0x80000e7c (len=4) data=0x0004a603[0m
[1;34m[src/memory/paddr.c:97 mtrace_log] R: 0x80002dc4 (len=4) data=0x00000000[0m
0x80000e7c: 00 04 a6 03 lw	a2, 0(s1)
[1;34m[src/memory/paddr.c:97 mtrace_log] R: 0x80000e80 (len=4) data=0x00060863[0m
0x80000e80: 00 06 08 63 beqz	a2, 0x10
[1;34m[src/memory/paddr.c:97 mtrace_log] R: 0x80000e90 (len=4) data=0x00140413[0m
0x80000e90: 00 14 04 13 addi	s0, s0, 1
[1;34m[src/memory/paddr.c:97 mtrace_log] R: 0x80000e94 (len=4) data=0x00448493[0m
0x80000e94: 00 44 84 93 addi	s1, s1, 4
[1;34m[src/memory/paddr.c:97 mtrace_log] R: 0x80000e98 (len=4) data=0xff2412e3[0m
0x80000e98: ff 24 12 e3 bne	s0, s2, -0x1c
[1;34m[src/memory/paddr.c:97 mtrace_log] R: 0x80000e7c (len=4) data=0x0004a603[0m
[1;34m[src/memory/paddr.c:97 mtrace_log] R: 0x80002dc8 (len=4) data=0x00000000[0m
0x80000e7c: 00 04 a6 03 lw	a2, 0(s1)
[1;34m[src/memory/paddr.c:97 mtrace_log] R: 0x80000e80 (len=4) data=0x00060863[0m
0x80000e80: 00 06 08 63 beqz	a2, 0x10
[1;34m[src/memory/paddr.c:97 mtrace_log] R: 0x80000e90 (len=4) data=0x00140413[0m
0x80000e90: 00 14 04 13 addi	s0, s0, 1
[1;34m[src/memory/paddr.c:97 mtrace_log] R: 0x80000e94 (len=4) data=0x00448493[0m
0x80000e94: 00 44 84 93 addi	s1, s1, 4
[1;34m[src/memory/paddr.c:97 mtrace_log] R: 0x80000e98 (len=4) data=0xff2412e3[0m
0x80000e98: ff 24 12 e3 bne	s0, s2, -0x1c
[1;34m[src/memory/paddr.c:97 mtrace_log] R: 0x80000e7c (len=4) data=0x0004a603[0m
[1;34m[src/memory/paddr.c:97 mtrace_log] R: 0x80002dcc (len=4) data=0x00000000[0m
0x80000e7c: 00 04 a6 03 lw	a2, 0(s1)
[1;34m[src/memory/paddr.c:97 mtrace_log] R: 0x80000e80 (len=4) data=0x00060863[0m
0x80000e80: 00 06 08 63 beqz	a2, 0x10
[1;34m[src/memory/paddr.c:97 mtrace_log] R: 0x80000e90 (len=4) data=0x00140413[0m
0x80000e90: 00 14 04 13 addi	s0, s0, 1
[1;34m[src/memory/paddr.c:97 mtrace_log] R: 0x80000e94 (len=4) data=0x00448493[0m
0x80000e94: 00 44 84 93 addi	s1, s1, 4
[1;34m[src/memory/paddr.c:97 mtrace_log] R: 0x80000e98 (len=4) data=0xff2412e3[0m
0x80000e98: ff 24 12 e3 bne	s0, s2, -0x1c
[1;34m[src/memory/paddr.c:97 mtrace_log] R: 0x80000e7c (len=4) data=0x0004a603[0m
[1;34m[src/memory/paddr.c:97 mtrace_log] R: 0x80002dd0 (len=4) data=0x00000000[0m
0x80000e7c: 00 04 a6 03 lw	a2, 0(s1)
[1;34m[src/memory/paddr.c:97 mtrace_log] R: 0x80000e80 (len=4) data=0x00060863[0m
0x80000e80: 00 06 08 63 beqz	a2, 0x10
[1;34m[src/memory/paddr.c:97 mtrace_log] R: 0x80000e90 (len=4) data=0x00140413[0m
0x80000e90: 00 14 04 13 addi	s0, s0, 1
[1;34m[src/memory/paddr.c:97 mtrace_log] R: 0x80000e94 (len=4) data=0x00448493[0m
0x80000e94: 00 44 84 93 addi	s1, s1, 4
[1;34m[src/memory/paddr.c:97 mtrace_log] R: 0x80000e98 (len=4) data=0xff2412e3[0m
0x80000e98: ff 24 12 e3 bne	s0, s2, -0x1c
[1;34m[src/memory/paddr.c:97 mtrace_log] R: 0x80000e7c (len=4) data=0x0004a603[0m
[1;34m[src/memory/paddr.c:97 mtrace_log] R: 0x80002dd4 (len=4) data=0x00000000[0m
0x80000e7c: 00 04 a6 03 lw	a2, 0(s1)
[1;34m[src/memory/paddr.c:97 mtrace_log] R: 0x80000e80 (len=4) data=0x00060863[0m
0x80000e80: 00 06 08 63 beqz	a2, 0x10
[1;34m[src/memory/paddr.c:97 mtrace_log] R: 0x80000e90 (len=4) data=0x00140413[0m
0x80000e90: 00 14 04 13 addi	s0, s0, 1
[1;34m[src/memory/paddr.c:97 mtrace_log] R: 0x80000e94 (len=4) data=0x00448493[0m
0x80000e94: 00 44 84 93 addi	s1, s1, 4
[1;34m[src/memory/paddr.c:97 mtrace_log] R: 0x80000e98 (len=4) data=0xff2412e3[0m
0x80000e98: ff 24 12 e3 bne	s0, s2, -0x1c
[1;34m[src/memory/paddr.c:97 mtrace_log] R: 0x80000e7c (len=4) data=0x0004a603[0m
[1;34m[src/memory/paddr.c:97 mtrace_log] R: 0x80002dd8 (len=4) data=0x00000000[0m
0x80000e7c: 00 04 a6 03 lw	a2, 0(s1)
[1;34m[src/memory/paddr.c:97 mtrace_log] R: 0x80000e80 (len=4) data=0x00060863[0m
0x80000e80: 00 06 08 63 beqz	a2, 0x10
[1;34m[src/memory/paddr.c:97 mtrace_log] R: 0x80000e90 (len=4) data=0x00140413[0m
0x80000e90: 00 14 04 13 addi	s0, s0, 1
[1;34m[src/memory/paddr.c:97 mtrace_log] R: 0x80000e94 (len=4) data=0x00448493[0m
0x80000e94: 00 44 84 93 addi	s1, s1, 4
[1;34m[src/memory/paddr.c:97 mtrace_log] R: 0x80000e98 (len=4) data=0xff2412e3[0m
0x80000e98: ff 24 12 e3 bne	s0, s2, -0x1c
[1;34m[src/memory/paddr.c:97 mtrace_log] R: 0x80000e7c (len=4) data=0x0004a603[0m
[1;34m[src/memory/paddr.c:97 mtrace_log] R: 0x80002ddc (len=4) data=0x00000000[0m
0x80000e7c: 00 04 a6 03 lw	a2, 0(s1)
[1;34m[src/memory/paddr.c:97 mtrace_log] R: 0x80000e80 (len=4) data=0x00060863[0m
0x80000e80: 00 06 08 63 beqz	a2, 0x10
[1;34m[src/memory/paddr.c:97 mtrace_log] R: 0x80000e90 (len=4) data=0x00140413[0m
0x80000e90: 00 14 04 13 addi	s0, s0, 1
[1;34m[src/memory/paddr.c:97 mtrace_log] R: 0x80000e94 (len=4) data=0x00448493[0m
0x80000e94: 00 44 84 93 addi	s1, s1, 4
[1;34m[src/memory/paddr.c:97 mtrace_log] R: 0x80000e98 (len=4) data=0xff2412e3[0m
0x80000e98: ff 24 12 e3 bne	s0, s2, -0x1c
[1;34m[src/memory/paddr.c:97 mtrace_log] R: 0x80000e7c (len=4) data=0x0004a603[0m
[1;34m[src/memory/paddr.c:97 mtrace_log] R: 0x80002de0 (len=4) data=0x00000000[0m
0x80000e7c: 00 04 a6 03 lw	a2, 0(s1)
[1;34m[src/memory/paddr.c:97 mtrace_log] R: 0x80000e80 (len=4) data=0x00060863[0m
0x80000e80: 00 06 08 63 beqz	a2, 0x10
[1;34m[src/memory/paddr.c:97 mtrace_log] R: 0x80000e90 (len=4) data=0x00140413[0m
0x80000e90: 00 14 04 13 addi	s0, s0, 1
[1;34m[src/memory/paddr.c:97 mtrace_log] R: 0x80000e94 (len=4) data=0x00448493[0m
0x80000e94: 00 44 84 93 addi	s1, s1, 4
[1;34m[src/memory/paddr.c:97 mtrace_log] R: 0x80000e98 (len=4) data=0xff2412e3[0m
0x80000e98: ff 24 12 e3 bne	s0, s2, -0x1c
[1;34m[src/memory/paddr.c:97 mtrace_log] R: 0x80000e7c (len=4) data=0x0004a603[0m
[1;34m[src/memory/paddr.c:97 mtrace_log] R: 0x80002de4 (len=4) data=0x00000000[0m
0x80000e7c: 00 04 a6 03 lw	a2, 0(s1)
[1;34m[src/memory/paddr.c:97 mtrace_log] R: 0x80000e80 (len=4) data=0x00060863[0m
0x80000e80: 00 06 08 63 beqz	a2, 0x10
[1;34m[src/memory/paddr.c:97 mtrace_log] R: 0x80000e90 (len=4) data=0x00140413[0m
0x80000e90: 00 14 04 13 addi	s0, s0, 1
[1;34m[src/memory/paddr.c:97 mtrace_log] R: 0x80000e94 (len=4) data=0x00448493[0m
0x80000e94: 00 44 84 93 addi	s1, s1, 4
[1;34m[src/memory/paddr.c:97 mtrace_log] R: 0x80000e98 (len=4) data=0xff2412e3[0m
0x80000e98: ff 24 12 e3 bne	s0, s2, -0x1c
[1;34m[src/memory/paddr.c:97 mtrace_log] R: 0x80000e7c (len=4) data=0x0004a603[0m
[1;34m[src/memory/paddr.c:97 mtrace_log] R: 0x80002de8 (len=4) data=0x00000000[0m
0x80000e7c: 00 04 a6 03 lw	a2, 0(s1)
[1;34m[src/memory/paddr.c:97 mtrace_log] R: 0x80000e80 (len=4) data=0x00060863[0m
0x80000e80: 00 06 08 63 beqz	a2, 0x10
[1;34m[src/memory/paddr.c:97 mtrace_log] R: 0x80000e90 (len=4) data=0x00140413[0m
0x80000e90: 00 14 04 13 addi	s0, s0, 1
[1;34m[src/memory/paddr.c:97 mtrace_log] R: 0x80000e94 (len=4) data=0x00448493[0m
0x80000e94: 00 44 84 93 addi	s1, s1, 4
[1;34m[src/memory/paddr.c:97 mtrace_log] R: 0x80000e98 (len=4) data=0xff2412e3[0m
0x80000e98: ff 24 12 e3 bne	s0, s2, -0x1c
[1;34m[src/memory/paddr.c:97 mtrace_log] R: 0x80000e7c (len=4) data=0x0004a603[0m
[1;34m[src/memory/paddr.c:97 mtrace_log] R: 0x80002dec (len=4) data=0x00000000[0m
0x80000e7c: 00 04 a6 03 lw	a2, 0(s1)
[1;34m[src/memory/paddr.c:97 mtrace_log] R: 0x80000e80 (len=4) data=0x00060863[0m
0x80000e80: 00 06 08 63 beqz	a2, 0x10
[1;34m[src/memory/paddr.c:97 mtrace_log] R: 0x80000e90 (len=4) data=0x00140413[0m
0x80000e90: 00 14 04 13 addi	s0, s0, 1
[1;34m[src/memory/paddr.c:97 mtrace_log] R: 0x80000e94 (len=4) data=0x00448493[0m
0x80000e94: 00 44 84 93 addi	s1, s1, 4
[1;34m[src/memory/paddr.c:97 mtrace_log] R: 0x80000e98 (len=4) data=0xff2412e3[0m
0x80000e98: ff 24 12 e3 bne	s0, s2, -0x1c
[1;34m[src/memory/paddr.c:97 mtrace_log] R: 0x80000e7c (len=4) data=0x0004a603[0m
[1;34m[src/memory/paddr.c:97 mtrace_log] R: 0x80002df0 (len=4) data=0x00000000[0m
0x80000e7c: 00 04 a6 03 lw	a2, 0(s1)
[1;34m[src/memory/paddr.c:97 mtrace_log] R: 0x80000e80 (len=4) data=0x00060863[0m
0x80000e80: 00 06 08 63 beqz	a2, 0x10
[1;34m[src/memory/paddr.c:97 mtrace_log] R: 0x80000e90 (len=4) data=0x00140413[0m
0x80000e90: 00 14 04 13 addi	s0, s0, 1
[1;34m[src/memory/paddr.c:97 mtrace_log] R: 0x80000e94 (len=4) data=0x00448493[0m
0x80000e94: 00 44 84 93 addi	s1, s1, 4
[1;34m[src/memory/paddr.c:97 mtrace_log] R: 0x80000e98 (len=4) data=0xff2412e3[0m
0x80000e98: ff 24 12 e3 bne	s0, s2, -0x1c
[1;34m[src/memory/paddr.c:97 mtrace_log] R: 0x80000e7c (len=4) data=0x0004a603[0m
[1;34m[src/memory/paddr.c:97 mtrace_log] R: 0x80002df4 (len=4) data=0x00000000[0m
0x80000e7c: 00 04 a6 03 lw	a2, 0(s1)
[1;34m[src/memory/paddr.c:97 mtrace_log] R: 0x80000e80 (len=4) data=0x00060863[0m
0x80000e80: 00 06 08 63 beqz	a2, 0x10
[1;34m[src/memory/paddr.c:97 mtrace_log] R: 0x80000e90 (len=4) data=0x00140413[0m
0x80000e90: 00 14 04 13 addi	s0, s0, 1
[1;34m[src/memory/paddr.c:97 mtrace_log] R: 0x80000e94 (len=4) data=0x00448493[0m
0x80000e94: 00 44 84 93 addi	s1, s1, 4
[1;34m[src/memory/paddr.c:97 mtrace_log] R: 0x80000e98 (len=4) data=0xff2412e3[0m
0x80000e98: ff 24 12 e3 bne	s0, s2, -0x1c
[1;34m[src/memory/paddr.c:97 mtrace_log] R: 0x80000e7c (len=4) data=0x0004a603[0m
[1;34m[src/memory/paddr.c:97 mtrace_log] R: 0x80002df8 (len=4) data=0x00000000[0m
0x80000e7c: 00 04 a6 03 lw	a2, 0(s1)
[1;34m[src/memory/paddr.c:97 mtrace_log] R: 0x80000e80 (len=4) data=0x00060863[0m
0x80000e80: 00 06 08 63 beqz	a2, 0x10
[1;34m[src/memory/paddr.c:97 mtrace_log] R: 0x80000e90 (len=4) data=0x00140413[0m
0x80000e90: 00 14 04 13 addi	s0, s0, 1
[1;34m[src/memory/paddr.c:97 mtrace_log] R: 0x80000e94 (len=4) data=0x00448493[0m
0x80000e94: 00 44 84 93 addi	s1, s1, 4
[1;34m[src/memory/paddr.c:97 mtrace_log] R: 0x80000e98 (len=4) data=0xff2412e3[0m
0x80000e98: ff 24 12 e3 bne	s0, s2, -0x1c
[1;34m[src/memory/paddr.c:97 mtrace_log] R: 0x80000e7c (len=4) data=0x0004a603[0m
[1;34m[src/memory/paddr.c:97 mtrace_log] R: 0x80002dfc (len=4) data=0x00000000[0m
0x80000e7c: 00 04 a6 03 lw	a2, 0(s1)
[1;34m[src/memory/paddr.c:97 mtrace_log] R: 0x80000e80 (len=4) data=0x00060863[0m
0x80000e80: 00 06 08 63 beqz	a2, 0x10
[1;34m[src/memory/paddr.c:97 mtrace_log] R: 0x80000e90 (len=4) data=0x00140413[0m
0x80000e90: 00 14 04 13 addi	s0, s0, 1
[1;34m[src/memory/paddr.c:97 mtrace_log] R: 0x80000e94 (len=4) data=0x00448493[0m
0x80000e94: 00 44 84 93 addi	s1, s1, 4
[1;34m[src/memory/paddr.c:97 mtrace_log] R: 0x80000e98 (len=4) data=0xff2412e3[0m
0x80000e98: ff 24 12 e3 bne	s0, s2, -0x1c
[1;34m[src/memory/paddr.c:97 mtrace_log] R: 0x80000e7c (len=4) data=0x0004a603[0m
[1;34m[src/memory/paddr.c:97 mtrace_log] R: 0x80002e00 (len=4) data=0x00000000[0m
0x80000e7c: 00 04 a6 03 lw	a2, 0(s1)
[1;34m[src/memory/paddr.c:97 mtrace_log] R: 0x80000e80 (len=4) data=0x00060863[0m
0x80000e80: 00 06 08 63 beqz	a2, 0x10
[1;34m[src/memory/paddr.c:97 mtrace_log] R: 0x80000e90 (len=4) data=0x00140413[0m
0x80000e90: 00 14 04 13 addi	s0, s0, 1
[1;34m[src/memory/paddr.c:97 mtrace_log] R: 0x80000e94 (len=4) data=0x00448493[0m
0x80000e94: 00 44 84 93 addi	s1, s1, 4
[1;34m[src/memory/paddr.c:97 mtrace_log] R: 0x80000e98 (len=4) data=0xff2412e3[0m
0x80000e98: ff 24 12 e3 bne	s0, s2, -0x1c
[1;34m[src/memory/paddr.c:97 mtrace_log] R: 0x80000e7c (len=4) data=0x0004a603[0m
[1;34m[src/memory/paddr.c:97 mtrace_log] R: 0x80002e04 (len=4) data=0x00000000[0m
0x80000e7c: 00 04 a6 03 lw	a2, 0(s1)
[1;34m[src/memory/paddr.c:97 mtrace_log] R: 0x80000e80 (len=4) data=0x00060863[0m
0x80000e80: 00 06 08 63 beqz	a2, 0x10
[1;34m[src/memory/paddr.c:97 mtrace_log] R: 0x80000e90 (len=4) data=0x00140413[0m
0x80000e90: 00 14 04 13 addi	s0, s0, 1
[1;34m[src/memory/paddr.c:97 mtrace_log] R: 0x80000e94 (len=4) data=0x00448493[0m
0x80000e94: 00 44 84 93 addi	s1, s1, 4
[1;34m[src/memory/paddr.c:97 mtrace_log] R: 0x80000e98 (len=4) data=0xff2412e3[0m
0x80000e98: ff 24 12 e3 bne	s0, s2, -0x1c
[1;34m[src/memory/paddr.c:97 mtrace_log] R: 0x80000e7c (len=4) data=0x0004a603[0m
[1;34m[src/memory/paddr.c:97 mtrace_log] R: 0x80002e08 (len=4) data=0x00000000[0m
0x80000e7c: 00 04 a6 03 lw	a2, 0(s1)
[1;34m[src/memory/paddr.c:97 mtrace_log] R: 0x80000e80 (len=4) data=0x00060863[0m
0x80000e80: 00 06 08 63 beqz	a2, 0x10
[1;34m[src/memory/paddr.c:97 mtrace_log] R: 0x80000e90 (len=4) data=0x00140413[0m
0x80000e90: 00 14 04 13 addi	s0, s0, 1
[1;34m[src/memory/paddr.c:97 mtrace_log] R: 0x80000e94 (len=4) data=0x00448493[0m
0x80000e94: 00 44 84 93 addi	s1, s1, 4
[1;34m[src/memory/paddr.c:97 mtrace_log] R: 0x80000e98 (len=4) data=0xff2412e3[0m
0x80000e98: ff 24 12 e3 bne	s0, s2, -0x1c
[1;34m[src/memory/paddr.c:97 mtrace_log] R: 0x80000e7c (len=4) data=0x0004a603[0m
[1;34m[src/memory/paddr.c:97 mtrace_log] R: 0x80002e0c (len=4) data=0x00000000[0m
0x80000e7c: 00 04 a6 03 lw	a2, 0(s1)
[1;34m[src/memory/paddr.c:97 mtrace_log] R: 0x80000e80 (len=4) data=0x00060863[0m
0x80000e80: 00 06 08 63 beqz	a2, 0x10
[1;34m[src/memory/paddr.c:97 mtrace_log] R: 0x80000e90 (len=4) data=0x00140413[0m
0x80000e90: 00 14 04 13 addi	s0, s0, 1
[1;34m[src/memory/paddr.c:97 mtrace_log] R: 0x80000e94 (len=4) data=0x00448493[0m
0x80000e94: 00 44 84 93 addi	s1, s1, 4
[1;34m[src/memory/paddr.c:97 mtrace_log] R: 0x80000e98 (len=4) data=0xff2412e3[0m
0x80000e98: ff 24 12 e3 bne	s0, s2, -0x1c
[1;34m[src/memory/paddr.c:97 mtrace_log] R: 0x80000e7c (len=4) data=0x0004a603[0m
[1;34m[src/memory/paddr.c:97 mtrace_log] R: 0x80002e10 (len=4) data=0x00000000[0m
0x80000e7c: 00 04 a6 03 lw	a2, 0(s1)
[1;34m[src/memory/paddr.c:97 mtrace_log] R: 0x80000e80 (len=4) data=0x00060863[0m
0x80000e80: 00 06 08 63 beqz	a2, 0x10
[1;34m[src/memory/paddr.c:97 mtrace_log] R: 0x80000e90 (len=4) data=0x00140413[0m
0x80000e90: 00 14 04 13 addi	s0, s0, 1
[1;34m[src/memory/paddr.c:97 mtrace_log] R: 0x80000e94 (len=4) data=0x00448493[0m
0x80000e94: 00 44 84 93 addi	s1, s1, 4
[1;34m[src/memory/paddr.c:97 mtrace_log] R: 0x80000e98 (len=4) data=0xff2412e3[0m
0x80000e98: ff 24 12 e3 bne	s0, s2, -0x1c
[1;34m[src/memory/paddr.c:97 mtrace_log] R: 0x80000e7c (len=4) data=0x0004a603[0m
[1;34m[src/memory/paddr.c:97 mtrace_log] R: 0x80002e14 (len=4) data=0x00000000[0m
0x80000e7c: 00 04 a6 03 lw	a2, 0(s1)
[1;34m[src/memory/paddr.c:97 mtrace_log] R: 0x80000e80 (len=4) data=0x00060863[0m
0x80000e80: 00 06 08 63 beqz	a2, 0x10
[1;34m[src/memory/paddr.c:97 mtrace_log] R: 0x80000e90 (len=4) data=0x00140413[0m
0x80000e90: 00 14 04 13 addi	s0, s0, 1
[1;34m[src/memory/paddr.c:97 mtrace_log] R: 0x80000e94 (len=4) data=0x00448493[0m
0x80000e94: 00 44 84 93 addi	s1, s1, 4
[1;34m[src/memory/paddr.c:97 mtrace_log] R: 0x80000e98 (len=4) data=0xff2412e3[0m
0x80000e98: ff 24 12 e3 bne	s0, s2, -0x1c
[1;34m[src/memory/paddr.c:97 mtrace_log] R: 0x80000e7c (len=4) data=0x0004a603[0m
[1;34m[src/memory/paddr.c:97 mtrace_log] R: 0x80002e18 (len=4) data=0x80002920[0m
0x80000e7c: 00 04 a6 03 lw	a2, 0(s1)
[1;34m[src/memory/paddr.c:97 mtrace_log] R: 0x80000e80 (len=4) data=0x00060863[0m
0x80000e80: 00 06 08 63 beqz	a2, 0x10
[1;34m[src/memory/paddr.c:97 mtrace_log] R: 0x80000e84 (len=4) data=0x00040593[0m
0x80000e84: 00 04 05 93 mv	a1, s0
[1;34m[src/memory/paddr.c:97 mtrace_log] R: 0x80000e88 (len=4) data=0x00098513[0m
0x80000e88: 00 09 85 13 mv	a0, s3
[1;34m[src/memory/paddr.c:97 mtrace_log] R: 0x80000e8c (len=4) data=0x474010ef[0m
0x80000e8c: 47 40 10 ef jal	0x1474
[1;34m[src/memory/paddr.c:97 mtrace_log] R: 0x80002300 (len=4) data=0xfc010113[0m
0x80002300: fc 01 01 13 addi	sp, sp, -0x40
[1;34m[src/memory/paddr.c:97 mtrace_log] R: 0x80002304 (len=4) data=0x02410313[0m
0x80002304: 02 41 03 13 addi	t1, sp, 0x24
[1;34m[src/memory/paddr.c:97 mtrace_log] R: 0x80002308 (len=4) data=0x02b12223[0m
[1;34m[src/memory/paddr.c:97 mtrace_log] W: 0x8009dfb4 (len=4) data=0x00000048[0m
0x80002308: 02 b1 22 23 sw	a1, 0x24(sp)
[1;34m[src/memory/paddr.c:97 mtrace_log] R: 0x8000230c (len=4) data=0x02c12423[0m
[1;34m[src/memory/paddr.c:97 mtrace_log] W: 0x8009dfb8 (len=4) data=0x80002920[0m
0x8000230c: 02 c1 24 23 sw	a2, 0x28(sp)
[1;34m[src/memory/paddr.c:97 mtrace_log] R: 0x80002310 (len=4) data=0x00050593[0m
0x80002310: 00 05 05 93 mv	a1, a0
[1;34m[src/memory/paddr.c:97 mtrace_log] R: 0x80002314 (len=4) data=0x00030613[0m
0x80002314: 00 03 06 13 mv	a2, t1
[1;34m[src/memory/paddr.c:97 mtrace_log] R: 0x80002318 (len=4) data=0x00093517[0m
0x80002318: 00 09 35 17 auipc	a0, 0x93
[1;34m[src/memory/paddr.c:97 mtrace_log] R: 0x8000231c (len=4) data=0x20450513[0m
0x8000231c: 20 45 05 13 addi	a0, a0, 0x204
[1;34m[src/memory/paddr.c:97 mtrace_log] R: 0x80002320 (len=4) data=0x02e12823[0m
[1;34m[src/memory/paddr.c:97 mtrace_log] W: 0x8009dfc0 (len=4) data=0x00000000[0m
0x80002320: 02 e1 28 23 sw	a4, 0x30(sp)
[1;34m[src/memory/paddr.c:97 mtrace_log] R: 0x80002324 (len=4) data=0x02f12a23[0m
[1;34m[src/memory/paddr.c:97 mtrace_log] W: 0x8009dfc4 (len=4) data=0x80095537[0m
0x80002324: 02 f1 2a 23 sw	a5, 0x34(sp)
[1;34m[src/memory/paddr.c:97 mtrace_log] R: 0x80002328 (len=4) data=0x00112e23[0m
[1;34m[src/memory/paddr.c:97 mtrace_log] W: 0x8009dfac (len=4) data=0x80000e90[0m
0x80002328: 00 11 2e 23 sw	ra, 0x1c(sp)
[1;34m[src/memory/paddr.c:97 mtrace_log] R: 0x8000232c (len=4) data=0x02d12623[0m
[1;34m[src/memory/paddr.c:97 mtrace_log] W: 0x8009dfbc (len=4) data=0xa00003f8[0m
0x8000232c: 02 d1 26 23 sw	a3, 0x2c(sp)
[1;34m[src/memory/paddr.c:97 mtrace_log] R: 0x80002330 (len=4) data=0x03012c23[0m
[1;34m[src/memory/paddr.c:97 mtrace_log] W: 0x8009dfc8 (len=4) data=0x00000000[0m
0x80002330: 03 01 2c 23 sw	a6, 0x38(sp)
[1;34m[src/memory/paddr.c:97 mtrace_log] R: 0x80002334 (len=4) data=0x03112e23[0m
[1;34m[src/memory/paddr.c:97 mtrace_log] W: 0x8009dfcc (len=4) data=0x00000000[0m
0x80002334: 03 11 2e 23 sw	a7, 0x3c(sp)
[1;34m[src/memory/paddr.c:97 mtrace_log] R: 0x80002338 (len=4) data=0x00612623[0m
[1;34m[src/memory/paddr.c:97 mtrace_log] W: 0x8009df9c (len=4) data=0x8009dfb4[0m
0x80002338: 00 61 26 23 sw	t1, 0xc(sp)
[1;34m[src/memory/paddr.c:97 mtrace_log] R: 0x8000233c (len=4) data=0xad5ff0ef[0m
0x8000233c: ad 5f f0 ef jal	-0x52c
[1;34m[src/memory/paddr.c:97 mtrace_log] R: 0x80001e10 (len=4) data=0xfb010113[0m
0x80001e10: fb 01 01 13 addi	sp, sp, -0x50
[1;34m[src/memory/paddr.c:97 mtrace_log] R: 0x80001e14 (len=4) data=0x03612823[0m
[1;34m[src/memory/paddr.c:97 mtrace_log] W: 0x8009df70 (len=4) data=0x00000000[0m
0x80001e14: 03 61 28 23 sw	s6, 0x30(sp)
[1;34m[src/memory/paddr.c:97 mtrace_log] R: 0x80001e18 (len=4) data=0x04112623[0m
[1;34m[src/memory/paddr.c:97 mtrace_log] W: 0x8009df8c (len=4) data=0x80002340[0m
0x80001e18: 04 11 26 23 sw	ra, 0x4c(sp)
[1;34m[src/memory/paddr.c:97 mtrace_log] R: 0x80001e1c (len=4) data=0x04912223[0m
[1;34m[src/memory/paddr.c:97 mtrace_log] W: 0x8009df84 (len=4) data=0x80002e18[0m
0x80001e1c: 04 91 22 23 sw	s1, 0x44(sp)
[1;34m[src/memory/paddr.c:97 mtrace_log] R: 0x80001e20 (len=4) data=0x0005c783[0m
[1;34m[src/memory/paddr.c:97 mtrace_log] R: 0x80002914 (len=1) data=0x00000020[0m
0x80001e20: 00 05 c7 83 lbu	a5, 0(a1)
[1;34m[src/memory/paddr.c:97 mtrace_log] R: 0x80001e24 (len=4) data=0x00050b13[0m
0x80001e24: 00 05 0b 13 mv	s6, a0
[1;34m[src/memory/paddr.c:97 mtrace_log] R: 0x80001e28 (len=4) data=0x44078a63[0m
0x80001e28: 44 07 8a 63 beqz	a5, 0x454
[1;34m[src/memory/paddr.c:97 mtrace_log] R: 0x80001e2c (len=4) data=0x05212023[0m
[1;34m[src/memory/paddr.c:97 mtrace_log] W: 0x8009df80 (len=4) data=0x00000100[0m
0x80001e2c: 05 21 20 23 sw	s2, 0x40(sp)
[1;34m[src/memory/paddr.c:97 mtrace_log] R: 0x80001e30 (len=4) data=0x03312e23[0m
[1;34m[src/memory/paddr.c:97 mtrace_log] W: 0x8009df7c (len=4) data=0x80002914[0m
0x80001e30: 03 31 2e 23 sw	s3, 0x3c(sp)
[1;34m[src/memory/paddr.c:97 mtrace_log] R: 0x80001e34 (len=4) data=0x03412c23[0m
[1;34m[src/memory/paddr.c:97 mtrace_log] W: 0x8009df78 (len=4) data=0x00000000[0m
0x80001e34: 03 41 2c 23 sw	s4, 0x38(sp)
[1;34m[src/memory/paddr.c:97 mtrace_log] R: 0x80001e38 (len=4) data=0x03512a23[0m
[1;34m[src/memory/paddr.c:97 mtrace_log] W: 0x8009df74 (len=4) data=0x00000000[0m
0x80001e38: 03 51 2a 23 sw	s5, 0x34(sp)
[1;34m[src/memory/paddr.c:97 mtrace_log] R: 0x80001e3c (len=4) data=0x03712623[0m
[1;34m[src/memory/paddr.c:97 mtrace_log] W: 0x8009df6c (len=4) data=0x00000000[0m
0x80001e3c: 03 71 26 23 sw	s7, 0x2c(sp)
[1;34m[src/memory/paddr.c:97 mtrace_log] R: 0x80001e40 (len=4) data=0x03812423[0m
[1;34m[src/memory/paddr.c:97 mtrace_log] W: 0x8009df68 (len=4) data=0x00000000[0m
0x80001e40: 03 81 24 23 sw	s8, 0x28(sp)
[1;34m[src/memory/paddr.c:97 mtrace_log] R: 0x80001e44 (len=4) data=0x03912223[0m
[1;34m[src/memory/paddr.c:97 mtrace_log] W: 0x8009df64 (len=4) data=0x00000000[0m
0x80001e44: 03 91 22 23 sw	s9, 0x24(sp)
[1;34m[src/memory/paddr.c:97 mtrace_log] R: 0x80001e48 (len=4) data=0x03a12023[0m
[1;34m[src/memory/paddr.c:97 mtrace_log] W: 0x8009df60 (len=4) data=0x00000000[0m
0x80001e48: 03 a1 20 23 sw	s10, 0x20(sp)
[1;34m[src/memory/paddr.c:97 mtrace_log] R: 0x80001e4c (len=4) data=0x04812423[0m
[1;34m[src/memory/paddr.c:97 mtrace_log] W: 0x8009df88 (len=4) data=0x00000048[0m
0x80001e4c: 04 81 24 23 sw	s0, 0x48(sp)
[1;34m[src/memory/paddr.c:97 mtrace_log] R: 0x80001e50 (len=4) data=0x00060a13[0m
0x80001e50: 00 06 0a 13 mv	s4, a2
[1;34m[src/memory/paddr.c:97 mtrace_log] R: 0x80001e54 (len=4) data=0x00050493[0m
0x80001e54: 00 05 04 93 mv	s1, a0
[1;34m[src/memory/paddr.c:97 mtrace_log] R: 0x80001e58 (len=4) data=0x02500a93[0m
0x80001e58: 02 50 0a 93 addi	s5, zero, 0x25
[1;34m[src/memory/paddr.c:97 mtrace_log] R: 0x80001e5c (len=4) data=0x01000993[0m
0x80001e5c: 01 00 09 93 addi	s3, zero, 0x10
[1;34m[src/memory/paddr.c:97 mtrace_log] R: 0x80001e60 (len=4) data=0x00001917[0m
0x80001e60: 00 00 19 17 auipc	s2, 1
[1;34m[src/memory/paddr.c:97 mtrace_log] R: 0x80001e64 (len=4) data=0x2d890913[0m
0x80001e64: 2d 89 09 13 addi	s2, s2, 0x2d8
[1;34m[src/memory/paddr.c:97 mtrace_log] R: 0x80001e68 (len=4) data=0x00900d13[0m
0x80001e68: 00 90 0d 13 addi	s10, zero, 9
[1;34m[src/memory/paddr.c:97 mtrace_log] R: 0x80001e6c (len=4) data=0x02e00c93[0m
0x80001e6c: 02 e0 0c 93 addi	s9, zero, 0x2e
[1;34m[src/memory/paddr.c:97 mtrace_log] R: 0x80001e70 (len=4) data=0x06800c13[0m
0x80001e70: 06 80 0c 13 addi	s8, zero, 0x68
[1;34m[src/memory/paddr.c:97 mtrace_log] R: 0x80001e74 (len=4) data=0x00001b97[0m
0x80001e74: 00 00 1b 97 auipc	s7, 1
[1;34m[src/memory/paddr.c:97 mtrace_log] R: 0x80001e78 (len=4) data=0x308b8b93[0m
0x80001e78: 30 8b 8b 93 addi	s7, s7, 0x308
[1;34m[src/memory/paddr.c:97 mtrace_log] R: 0x80001e7c (len=4) data=0x05578c63[0m
0x80001e7c: 05 57 8c 63 beq	a5, s5, 0x58
[1;34m[src/memory/paddr.c:97 mtrace_log] R: 0x80001e80 (len=4) data=0x00f48023[0m
[1;34m[src/memory/paddr.c:97 mtrace_log] W: 0x8009551c (len=1) data=0x00000020[0m
0x80001e80: 00 f4 80 23 sb	a5, 0(s1)
[1;34m[src/memory/paddr.c:97 mtrace_log] R: 0x80001e84 (len=4) data=0x0015c783[0m
[1;34m[src/memory/paddr.c:97 mtrace_log] R: 0x80002915 (len=1) data=0x00000020[0m
0x80001e84: 00 15 c7 83 lbu	a5, 1(a1)
[1;34m[src/memory/paddr.c:97 mtrace_log] R: 0x80001e88 (len=4) data=0x00148493[0m
0x80001e88: 00 14 84 93 addi	s1, s1, 1
[1;34m[src/memory/paddr.c:97 mtrace_log] R: 0x80001e8c (len=4) data=0x00158593[0m
0x80001e8c: 00 15 85 93 addi	a1, a1, 1
[1;34m[src/memory/paddr.c:97 mtrace_log] R: 0x80001e90 (len=4) data=0xfe0796e3[0m
0x80001e90: fe 07 96 e3 bnez	a5, -0x14
[1;34m[src/memory/paddr.c:97 mtrace_log] R: 0x80001e7c (len=4) data=0x05578c63[0m
0x80001e7c: 05 57 8c 63 beq	a5, s5, 0x58
[1;34m[src/memory/paddr.c:97 mtrace_log] R: 0x80001e80 (len=4) data=0x00f48023[0m
[1;34m[src/memory/paddr.c:97 mtrace_log] W: 0x8009551d (len=1) data=0x00000020[0m
0x80001e80: 00 f4 80 23 sb	a5, 0(s1)
[1;34m[src/memory/paddr.c:97 mtrace_log] R: 0x80001e84 (len=4) data=0x0015c783[0m
[1;34m[src/memory/paddr.c:97 mtrace_log] R: 0x80002916 (len=1) data=0x00000025[0m
0x80001e84: 00 15 c7 83 lbu	a5, 1(a1)
[1;34m[src/memory/paddr.c:97 mtrace_log] R: 0x80001e88 (len=4) data=0x00148493[0m
0x80001e88: 00 14 84 93 addi	s1, s1, 1
[1;34m[src/memory/paddr.c:97 mtrace_log] R: 0x80001e8c (len=4) data=0x00158593[0m
0x80001e8c: 00 15 85 93 addi	a1, a1, 1
[1;34m[src/memory/paddr.c:97 mtrace_log] R: 0x80001e90 (len=4) data=0xfe0796e3[0m
0x80001e90: fe 07 96 e3 bnez	a5, -0x14
[1;34m[src/memory/paddr.c:97 mtrace_log] R: 0x80001e7c (len=4) data=0x05578c63[0m
0x80001e7c: 05 57 8c 63 beq	a5, s5, 0x58
[1;34m[src/memory/paddr.c:97 mtrace_log] R: 0x80001ed4 (len=4) data=0x00000793[0m
0x80001ed4: 00 00 07 93 mv	a5, zero
[1;34m[src/memory/paddr.c:97 mtrace_log] R: 0x80001ed8 (len=4) data=0x0015c803[0m
[1;34m[src/memory/paddr.c:97 mtrace_log] R: 0x80002917 (len=1) data=0x00000063[0m
0x80001ed8: 00 15 c8 03 lbu	a6, 1(a1)
[1;34m[src/memory/paddr.c:97 mtrace_log] R: 0x80001edc (len=4) data=0x00158413[0m
0x80001edc: 00 15 84 13 addi	s0, a1, 1
[1;34m[src/memory/paddr.c:97 mtrace_log] R: 0x80001ee0 (len=4) data=0xfe080713[0m
0x80001ee0: fe 08 07 13 addi	a4, a6, -0x20
[1;34m[src/memory/paddr.c:97 mtrace_log] R: 0x80001ee4 (len=4) data=0x0ff77713[0m
0x80001ee4: 0f f7 77 13 andi	a4, a4, 0xff
[1;34m[src/memory/paddr.c:97 mtrace_log] R: 0x80001ee8 (len=4) data=0x00e9ec63[0m
0x80001ee8: 00 e9 ec 63 bltu	s3, a4, 0x18
[1;34m[src/memory/paddr.c:97 mtrace_log] R: 0x80001f00 (len=4) data=0xfd080713[0m
0x80001f00: fd 08 07 13 addi	a4, a6, -0x30
[1;34m[src/memory/paddr.c:97 mtrace_log] R: 0x80001f04 (len=4) data=0x0ff77713[0m
0x80001f04: 0f f7 77 13 andi	a4, a4, 0xff
[1;34m[src/memory/paddr.c:97 mtrace_log] R: 0x80001f08 (len=4) data=0x0ced7263[0m
0x80001f08: 0c ed 72 63 bgeu	s10, a4, 0xc4
[1;34m[src/memory/paddr.c:97 mtrace_log] R: 0x80001f0c (len=4) data=0x02a00713[0m
0x80001f0c: 02 a0 07 13 addi	a4, zero, 0x2a
[1;34m[src/memory/paddr.c:97 mtrace_log] R: 0x80001f10 (len=4) data=0xfff00693[0m
0x80001f10: ff f0 06 93 addi	a3, zero, -1
[1;34m[src/memory/paddr.c:97 mtrace_log] R: 0x80001f14 (len=4) data=0x00e81a63[0m
0x80001f14: 00 e8 1a 63 bne	a6, a4, 0x14
[1;34m[src/memory/paddr.c:97 mtrace_log] R: 0x80001f28 (len=4) data=0xfff00713[0m
0x80001f28: ff f0 07 13 addi	a4, zero, -1
[1;34m[src/memory/paddr.c:97 mtrace_log] R: 0x80001f2c (len=4) data=0x07980a63[0m
0x80001f2c: 07 98 0a 63 beq	a6, s9, 0x74
[1;34m[src/memory/paddr.c:97 mtrace_log] R: 0x80001f30 (len=4) data=0x0fb87613[0m
0x80001f30: 0f b8 76 13 andi	a2, a6, 0xfb
[1;34m[src/memory/paddr.c:97 mtrace_log] R: 0x80001f34 (len=4) data=0x01861663[0m
0x80001f34: 01 86 16 63 bne	a2, s8, 0xc
[1;34m[src/memory/paddr.c:97 mtrace_log] R: 0x80001f40 (len=4) data=0xfdb80813[0m
0x80001f40: fd b8 08 13 addi	a6, a6, -0x25
[1;34m[src/memory/paddr.c:97 mtrace_log] R: 0x80001f44 (len=4) data=0x0ff87813[0m
0x80001f44: 0f f8 78 13 andi	a6, a6, 0xff
[1;34m[src/memory/paddr.c:97 mtrace_log] R: 0x80001f48 (len=4) data=0x05300613[0m
0x80001f48: 05 30 06 13 addi	a2, zero, 0x53
[1;34m[src/memory/paddr.c:97 mtrace_log] R: 0x80001f4c (len=4) data=0x0b066c63[0m
0x80001f4c: 0b 06 6c 63 bltu	a2, a6, 0xb8
[1;34m[src/memory/paddr.c:97 mtrace_log] R: 0x80001f50 (len=4) data=0x00281813[0m
0x80001f50: 00 28 18 13 slli	a6, a6, 2
[1;34m[src/memory/paddr.c:97 mtrace_log] R: 0x80001f54 (len=4) data=0x01780833[0m
0x80001f54: 01 78 08 33 add	a6, a6, s7
[1;34m[src/memory/paddr.c:97 mtrace_log] R: 0x80001f58 (len=4) data=0x00082603[0m
[1;34m[src/memory/paddr.c:97 mtrace_log] R: 0x80003274 (len=4) data=0xffffef08[0m
0x80001f58: 00 08 26 03 lw	a2, 0(a6)
[1;34m[src/memory/paddr.c:97 mtrace_log] R: 0x80001f5c (len=4) data=0x01760633[0m
0x80001f5c: 01 76 06 33 add	a2, a2, s7
[1;34m[src/memory/paddr.c:97 mtrace_log] R: 0x80001f60 (len=4) data=0x00060067[0m
0x80001f60: 00 06 00 67 jr	a2
[1;34m[src/memory/paddr.c:97 mtrace_log] R: 0x80002084 (len=4) data=0x0017f793[0m
0x80002084: 00 17 f7 93 andi	a5, a5, 1
[1;34m[src/memory/paddr.c:97 mtrace_log] R: 0x80002088 (len=4) data=0x004a0613[0m
0x80002088: 00 4a 06 13 addi	a2, s4, 4
[1;34m[src/memory/paddr.c:97 mtrace_log] R: 0x8000208c (len=4) data=0x00140593[0m
0x8000208c: 00 14 05 93 addi	a1, s0, 1
[1;34m[src/memory/paddr.c:97 mtrace_log] R: 0x80002090 (len=4) data=0x18078c63[0m
0x80002090: 18 07 8c 63 beqz	a5, 0x198
[1;34m[src/memory/paddr.c:97 mtrace_log] R: 0x80002228 (len=4) data=0x00100793[0m
0x80002228: 00 10 07 93 addi	a5, zero, 1
[1;34m[src/memory/paddr.c:97 mtrace_log] R: 0x8000222c (len=4) data=0x0ad7dc63[0m
0x8000222c: 0a d7 dc 63 bge	a5, a3, 0xb8
[1;34m[src/memory/paddr.c:97 mtrace_log] R: 0x800022e4 (len=4) data=0x000a2783[0m
[1;34m[src/memory/paddr.c:97 mtrace_log] R: 0x8009dfb4 (len=4) data=0x00000048[0m
0x800022e4: 00 0a 27 83 lw	a5, 0(s4)
[1;34m[src/memory/paddr.c:97 mtrace_log] R: 0x800022e8 (len=4) data=0x00148493[0m
0x800022e8: 00 14 84 93 addi	s1, s1, 1
[1;34m[src/memory/paddr.c:97 mtrace_log] R: 0x800022ec (len=4) data=0x00060a13[0m
0x800022ec: 00 06 0a 13 mv	s4, a2
[1;34m[src/memory/paddr.c:97 mtrace_log] R: 0x800022f0 (len=4) data=0xfef48fa3[0m
[1;34m[src/memory/paddr.c:97 mtrace_log] W: 0x8009551e (len=1) data=0x00000048[0m
0x800022f0: fe f4 8f a3 sb	a5, -1(s1)
[1;34m[src/memory/paddr.c:97 mtrace_log] R: 0x800022f4 (len=4) data=0x00144783[0m
[1;34m[src/memory/paddr.c:97 mtrace_log] R: 0x80002918 (len=1) data=0x0000003a[0m
0x800022f4: 00 14 47 83 lbu	a5, 1(s0)
[1;34m[src/memory/paddr.c:97 mtrace_log] R: 0x800022f8 (len=4) data=0xb80792e3[0m
0x800022f8: b8 07 92 e3 bnez	a5, -0x47c
[1;34m[src/memory/paddr.c:97 mtrace_log] R: 0x80001e7c (len=4) data=0x05578c63[0m
0x80001e7c: 05 57 8c 63 beq	a5, s5, 0x58
[1;34m[src/memory/paddr.c:97 mtrace_log] R: 0x80001e80 (len=4) data=0x00f48023[0m
[1;34m[src/memory/paddr.c:97 mtrace_log] W: 0x8009551f (len=1) data=0x0000003a[0m
0x80001e80: 00 f4 80 23 sb	a5, 0(s1)
[1;34m[src/memory/paddr.c:97 mtrace_log] R: 0x80001e84 (len=4) data=0x0015c783[0m
[1;34m[src/memory/paddr.c:97 mtrace_log] R: 0x80002919 (len=1) data=0x00000020[0m
0x80001e84: 00 15 c7 83 lbu	a5, 1(a1)
[1;34m[src/memory/paddr.c:97 mtrace_log] R: 0x80001e88 (len=4) data=0x00148493[0m
0x80001e88: 00 14 84 93 addi	s1, s1, 1
[1;34m[src/memory/paddr.c:97 mtrace_log] R: 0x80001e8c (len=4) data=0x00158593[0m
0x80001e8c: 00 15 85 93 addi	a1, a1, 1
[1;34m[src/memory/paddr.c:97 mtrace_log] R: 0x80001e90 (len=4) data=0xfe0796e3[0m
0x80001e90: fe 07 96 e3 bnez	a5, -0x14
[1;34m[src/memory/paddr.c:97 mtrace_log] R: 0x80001e7c (len=4) data=0x05578c63[0m
0x80001e7c: 05 57 8c 63 beq	a5, s5, 0x58
[1;34m[src/memory/paddr.c:97 mtrace_log] R: 0x80001e80 (len=4) data=0x00f48023[0m
[1;34m[src/memory/paddr.c:97 mtrace_log] W: 0x80095520 (len=1) data=0x00000020[0m
0x80001e80: 00 f4 80 23 sb	a5, 0(s1)
[1;34m[src/memory/paddr.c:97 mtrace_log] R: 0x80001e84 (len=4) data=0x0015c783[0m
[1;34m[src/memory/paddr.c:97 mtrace_log] R: 0x8000291a (len=1) data=0x00000025[0m
0x80001e84: 00 15 c7 83 lbu	a5, 1(a1)
[1;34m[src/memory/paddr.c:97 mtrace_log] R: 0x80001e88 (len=4) data=0x00148493[0m
0x80001e88: 00 14 84 93 addi	s1, s1, 1
[1;34m[src/memory/paddr.c:97 mtrace_log] R: 0x80001e8c (len=4) data=0x00158593[0m
0x80001e8c: 00 15 85 93 addi	a1, a1, 1
[1;34m[src/memory/paddr.c:97 mtrace_log] R: 0x80001e90 (len=4) data=0xfe0796e3[0m
0x80001e90: fe 07 96 e3 bnez	a5, -0x14
[1;34m[src/memory/paddr.c:97 mtrace_log] R: 0x80001e7c (len=4) data=0x05578c63[0m
0x80001e7c: 05 57 8c 63 beq	a5, s5, 0x58
[1;34m[src/memory/paddr.c:97 mtrace_log] R: 0x80001ed4 (len=4) data=0x00000793[0m
0x80001ed4: 00 00 07 93 mv	a5, zero
[1;34m[src/memory/paddr.c:97 mtrace_log] R: 0x80001ed8 (len=4) data=0x0015c803[0m
[1;34m[src/memory/paddr.c:97 mtrace_log] R: 0x8000291b (len=1) data=0x00000073[0m
0x80001ed8: 00 15 c8 03 lbu	a6, 1(a1)
[1;34m[src/memory/paddr.c:97 mtrace_log] R: 0x80001edc (len=4) data=0x00158413[0m
0x80001edc: 00 15 84 13 addi	s0, a1, 1
[1;34m[src/memory/paddr.c:97 mtrace_log] R: 0x80001ee0 (len=4) data=0xfe080713[0m
0x80001ee0: fe 08 07 13 addi	a4, a6, -0x20
[1;34m[src/memory/paddr.c:97 mtrace_log] R: 0x80001ee4 (len=4) data=0x0ff77713[0m
0x80001ee4: 0f f7 77 13 andi	a4, a4, 0xff
[1;34m[src/memory/paddr.c:97 mtrace_log] R: 0x80001ee8 (len=4) data=0x00e9ec63[0m
0x80001ee8: 00 e9 ec 63 bltu	s3, a4, 0x18
[1;34m[src/memory/paddr.c:97 mtrace_log] R: 0x80001f00 (len=4) data=0xfd080713[0m
0x80001f00: fd 08 07 13 addi	a4, a6, -0x30
[1;34m[src/memory/paddr.c:97 mtrace_log] R: 0x80001f04 (len=4) data=0x0ff77713[0m
0x80001f04: 0f f7 77 13 andi	a4, a4, 0xff
[1;34m[src/memory/paddr.c:97 mtrace_log] R: 0x80001f08 (len=4) data=0x0ced7263[0m
0x80001f08: 0c ed 72 63 bgeu	s10, a4, 0xc4
[1;34m[src/memory/paddr.c:97 mtrace_log] R: 0x80001f0c (len=4) data=0x02a00713[0m
0x80001f0c: 02 a0 07 13 addi	a4, zero, 0x2a
[1;34m[src/memory/paddr.c:97 mtrace_log] R: 0x80001f10 (len=4) data=0xfff00693[0m
0x80001f10: ff f0 06 93 addi	a3, zero, -1
[1;34m[src/memory/paddr.c:97 mtrace_log] R: 0x80001f14 (len=4) data=0x00e81a63[0m
0x80001f14: 00 e8 1a 63 bne	a6, a4, 0x14
[1;34m[src/memory/paddr.c:97 mtrace_log] R: 0x80001f28 (len=4) data=0xfff00713[0m
0x80001f28: ff f0 07 13 addi	a4, zero, -1
[1;34m[src/memory/paddr.c:97 mtrace_log] R: 0x80001f2c (len=4) data=0x07980a63[0m
0x80001f2c: 07 98 0a 63 beq	a6, s9, 0x74
[1;34m[src/memory/paddr.c:97 mtrace_log] R: 0x80001f30 (len=4) data=0x0fb87613[0m
0x80001f30: 0f b8 76 13 andi	a2, a6, 0xfb
[1;34m[src/memory/paddr.c:97 mtrace_log] R: 0x80001f34 (len=4) data=0x01861663[0m
0x80001f34: 01 86 16 63 bne	a2, s8, 0xc
[1;34m[src/memory/paddr.c:97 mtrace_log] R: 0x80001f40 (len=4) data=0xfdb80813[0m
0x80001f40: fd b8 08 13 addi	a6, a6, -0x25
[1;34m[src/memory/paddr.c:97 mtrace_log] R: 0x80001f44 (len=4) data=0x0ff87813[0m
0x80001f44: 0f f8 78 13 andi	a6, a6, 0xff
[1;34m[src/memory/paddr.c:97 mtrace_log] R: 0x80001f48 (len=4) data=0x05300613[0m
0x80001f48: 05 30 06 13 addi	a2, zero, 0x53
[1;34m[src/memory/paddr.c:97 mtrace_log] R: 0x80001f4c (len=4) data=0x0b066c63[0m
0x80001f4c: 0b 06 6c 63 bltu	a2, a6, 0xb8
[1;34m[src/memory/paddr.c:97 mtrace_log] R: 0x80001f50 (len=4) data=0x00281813[0m
0x80001f50: 00 28 18 13 slli	a6, a6, 2
[1;34m[src/memory/paddr.c:97 mtrace_log] R: 0x80001f54 (len=4) data=0x01780833[0m
0x80001f54: 01 78 08 33 add	a6, a6, s7
[1;34m[src/memory/paddr.c:97 mtrace_log] R: 0x80001f58 (len=4) data=0x00082603[0m
[1;34m[src/memory/paddr.c:97 mtrace_log] R: 0x800032b4 (len=4) data=0xffffef50[0m
0x80001f58: 00 08 26 03 lw	a2, 0(a6)
[1;34m[src/memory/paddr.c:97 mtrace_log] R: 0x80001f5c (len=4) data=0x01760633[0m
0x80001f5c: 01 76 06 33 add	a2, a2, s7
[1;34m[src/memory/paddr.c:97 mtrace_log] R: 0x80001f60 (len=4) data=0x00060067[0m
0x80001f60: 00 06 00 67 jr	a2
[1;34m[src/memory/paddr.c:97 mtrace_log] R: 0x800020cc (len=4) data=0x01b12e23[0m
[1;34m[src/memory/paddr.c:97 mtrace_log] W: 0x8009df5c (len=4) data=0x00000000[0m
0x800020cc: 01 b1 2e 23 sw	s11, 0x1c(sp)
[1;34m[src/memory/paddr.c:97 mtrace_log] R: 0x800020d0 (len=4) data=0x000a2d83[0m
[1;34m[src/memory/paddr.c:97 mtrace_log] R: 0x8009dfb8 (len=4) data=0x80002920[0m
0x800020d0: 00 0a 2d 83 lw	s11, 0(s4)
[1;34m[src/memory/paddr.c:97 mtrace_log] R: 0x800020d4 (len=4) data=0x004a0a13[0m
0x800020d4: 00 4a 0a 13 addi	s4, s4, 4
[1;34m[src/memory/paddr.c:97 mtrace_log] R: 0x800020d8 (len=4) data=0x140d8263[0m
0x800020d8: 14 0d 82 63 beqz	s11, 0x144
[1;34m[src/memory/paddr.c:97 mtrace_log] R: 0x800020dc (len=4) data=0x000d8513[0m
0x800020dc: 00 0d 85 13 mv	a0, s11
[1;34m[src/memory/paddr.c:97 mtrace_log] R: 0x800020e0 (len=4) data=0x00d12623[0m
[1;34m[src/memory/paddr.c:97 mtrace_log] W: 0x8009df4c (len=4) data=0xffffffff[0m
0x800020e0: 00 d1 26 23 sw	a3, 0xc(sp)
[1;34m[src/memory/paddr.c:97 mtrace_log] R: 0x800020e4 (len=4) data=0x00f12423[0m
[1;34m[src/memory/paddr.c:97 mtrace_log] W: 0x8009df48 (len=4) data=0x00000000[0m
0x800020e4: 00 f1 24 23 sw	a5, 8(sp)
[1;34m[src/memory/paddr.c:97 mtrace_log] R: 0x800020e8 (len=4) data=0x00e12223[0m
[1;34m[src/memory/paddr.c:97 mtrace_log] W: 0x8009df44 (len=4) data=0xffffffff[0m
0x800020e8: 00 e1 22 23 sw	a4, 4(sp)
[1;34m[src/memory/paddr.c:97 mtrace_log] R: 0x800020ec (len=4) data=0x9c9ff0ef[0m
0x800020ec: 9c 9f f0 ef jal	-0x638
[1;34m[src/memory/paddr.c:97 mtrace_log] R: 0x80001ab4 (len=4) data=0x00054783[0m
[1;34m[src/memory/paddr.c:97 mtrace_log] R: 0x80002920 (len=1) data=0x00000064[0m
0x80001ab4: 00 05 47 83 lbu	a5, 0(a0)
[1;34m[src/memory/paddr.c:97 mtrace_log] R: 0x80001ab8 (len=4) data=0x00050713[0m
0x80001ab8: 00 05 07 13 mv	a4, a0
[1;34m[src/memory/paddr.c:97 mtrace_log] R: 0x80001abc (len=4) data=0x00000513[0m
0x80001abc: 00 00 05 13 mv	a0, zero
[1;34m[src/memory/paddr.c:97 mtrace_log] R: 0x80001ac0 (len=4) data=0x00078c63[0m
0x80001ac0: 00 07 8c 63 beqz	a5, 0x18
[1;34m[src/memory/paddr.c:97 mtrace_log] R: 0x80001ac4 (len=4) data=0x00150513[0m
0x80001ac4: 00 15 05 13 addi	a0, a0, 1
[1;34m[src/memory/paddr.c:97 mtrace_log] R: 0x80001ac8 (len=4) data=0x00a707b3[0m
0x80001ac8: 00 a7 07 b3 add	a5, a4, a0
[1;34m[src/memory/paddr.c:97 mtrace_log] R: 0x80001acc (len=4) data=0x0007c783[0m
[1;34m[src/memory/paddr.c:97 mtrace_log] R: 0x80002921 (len=1) data=0x00000069[0m
0x80001acc: 00 07 c7 83 lbu	a5, 0(a5)
[1;34m[src/memory/paddr.c:97 mtrace_log] R: 0x80001ad0 (len=4) data=0xfe079ae3[0m
0x80001ad0: fe 07 9a e3 bnez	a5, -0xc
[1;34m[src/memory/paddr.c:97 mtrace_log] R: 0x80001ac4 (len=4) data=0x00150513[0m
0x80001ac4: 00 15 05 13 addi	a0, a0, 1
[1;34m[src/memory/paddr.c:97 mtrace_log] R: 0x80001ac8 (len=4) data=0x00a707b3[0m
0x80001ac8: 00 a7 07 b3 add	a5, a4, a0
[1;34m[src/memory/paddr.c:97 mtrace_log] R: 0x80001acc (len=4) data=0x0007c783[0m
[1;34m[src/memory/paddr.c:97 mtrace_log] R: 0x80002922 (len=1) data=0x00000073[0m
0x80001acc: 00 07 c7 83 lbu	a5, 0(a5)
[1;34m[src/memory/paddr.c:97 mtrace_log] R: 0x80001ad0 (len=4) data=0xfe079ae3[0m
0x80001ad0: fe 07 9a e3 bnez	a5, -0xc
[1;34m[src/memory/paddr.c:97 mtrace_log] R: 0x80001ac4 (len=4) data=0x00150513[0m
0x80001ac4: 00 15 05 13 addi	a0, a0, 1
[1;34m[src/memory/paddr.c:97 mtrace_log] R: 0x80001ac8 (len=4) data=0x00a707b3[0m
0x80001ac8: 00 a7 07 b3 add	a5, a4, a0
[1;34m[src/memory/paddr.c:97 mtrace_log] R: 0x80001acc (len=4) data=0x0007c783[0m
[1;34m[src/memory/paddr.c:97 mtrace_log] R: 0x80002923 (len=1) data=0x00000070[0m
0x80001acc: 00 07 c7 83 lbu	a5, 0(a5)
[1;34m[src/memory/paddr.c:97 mtrace_log] R: 0x80001ad0 (len=4) data=0xfe079ae3[0m
0x80001ad0: fe 07 9a e3 bnez	a5, -0xc
[1;34m[src/memory/paddr.c:97 mtrace_log] R: 0x80001ac4 (len=4) data=0x00150513[0m
0x80001ac4: 00 15 05 13 addi	a0, a0, 1
[1;34m[src/memory/paddr.c:97 mtrace_log] R: 0x80001ac8 (len=4) data=0x00a707b3[0m
0x80001ac8: 00 a7 07 b3 add	a5, a4, a0
[1;34m[src/memory/paddr.c:97 mtrace_log] R: 0x80001acc (len=4) data=0x0007c783[0m
[1;34m[src/memory/paddr.c:97 mtrace_log] R: 0x80002924 (len=1) data=0x0000006c[0m
0x80001acc: 00 07 c7 83 lbu	a5, 0(a5)
[1;34m[src/memory/paddr.c:97 mtrace_log] R: 0x80001ad0 (len=4) data=0xfe079ae3[0m
0x80001ad0: fe 07 9a e3 bnez	a5, -0xc
[1;34m[src/memory/paddr.c:97 mtrace_log] R: 0x80001ac4 (len=4) data=0x00150513[0m
0x80001ac4: 00 15 05 13 addi	a0, a0, 1
[1;34m[src/memory/paddr.c:97 mtrace_log] R: 0x80001ac8 (len=4) data=0x00a707b3[0m
0x80001ac8: 00 a7 07 b3 add	a5, a4, a0
[1;34m[src/memory/paddr.c:97 mtrace_log] R: 0x80001acc (len=4) data=0x0007c783[0m
[1;34m[src/memory/paddr.c:97 mtrace_log] R: 0x80002925 (len=1) data=0x00000061[0m
0x80001acc: 00 07 c7 83 lbu	a5, 0(a5)
[1;34m[src/memory/paddr.c:97 mtrace_log] R: 0x80001ad0 (len=4) data=0xfe079ae3[0m
0x80001ad0: fe 07 9a e3 bnez	a5, -0xc
[1;34m[src/memory/paddr.c:97 mtrace_log] R: 0x80001ac4 (len=4) data=0x00150513[0m
0x80001ac4: 00 15 05 13 addi	a0, a0, 1
[1;34m[src/memory/paddr.c:97 mtrace_log] R: 0x80001ac8 (len=4) data=0x00a707b3[0m
0x80001ac8: 00 a7 07 b3 add	a5, a4, a0
[1;34m[src/memory/paddr.c:97 mtrace_log] R: 0x80001acc (len=4) data=0x0007c783[0m
[1;34m[src/memory/paddr.c:97 mtrace_log] R: 0x80002926 (len=1) data=0x00000079[0m
0x80001acc: 00 07 c7 83 lbu	a5, 0(a5)
[1;34m[src/memory/paddr.c:97 mtrace_log] R: 0x80001ad0 (len=4) data=0xfe079ae3[0m
0x80001ad0: fe 07 9a e3 bnez	a5, -0xc
[1;34m[src/memory/paddr.c:97 mtrace_log] R: 0x80001ac4 (len=4) data=0x00150513[0m
0x80001ac4: 00 15 05 13 addi	a0, a0, 1
[1;34m[src/memory/paddr.c:97 mtrace_log] R: 0x80001ac8 (len=4) data=0x00a707b3[0m
0x80001ac8: 00 a7 07 b3 add	a5, a4, a0
[1;34m[src/memory/paddr.c:97 mtrace_log] R: 0x80001acc (len=4) data=0x0007c783[0m
[1;34m[src/memory/paddr.c:97 mtrace_log] R: 0x80002927 (len=1) data=0x00000020[0m
0x80001acc: 00 07 c7 83 lbu	a5, 0(a5)
[1;34m[src/memory/paddr.c:97 mtrace_log] R: 0x80001ad0 (len=4) data=0xfe079ae3[0m
0x80001ad0: fe 07 9a e3 bnez	a5, -0xc
[1;34m[src/memory/paddr.c:97 mtrace_log] R: 0x80001ac4 (len=4) data=0x00150513[0m
0x80001ac4: 00 15 05 13 addi	a0, a0, 1
[1;34m[src/memory/paddr.c:97 mtrace_log] R: 0x80001ac8 (len=4) data=0x00a707b3[0m
0x80001ac8: 00 a7 07 b3 add	a5, a4, a0
[1;34m[src/memory/paddr.c:97 mtrace_log] R: 0x80001acc (len=4) data=0x0007c783[0m
[1;34m[src/memory/paddr.c:97 mtrace_log] R: 0x80002928 (len=1) data=0x00000074[0m
0x80001acc: 00 07 c7 83 lbu	a5, 0(a5)
[1;34m[src/memory/paddr.c:97 mtrace_log] R: 0x80001ad0 (len=4) data=0xfe079ae3[0m
0x80001ad0: fe 07 9a e3 bnez	a5, -0xc
[1;34m[src/memory/paddr.c:97 mtrace_log] R: 0x80001ac4 (len=4) data=0x00150513[0m
0x80001ac4: 00 15 05 13 addi	a0, a0, 1
[1;34m[src/memory/paddr.c:97 mtrace_log] R: 0x80001ac8 (len=4) data=0x00a707b3[0m
0x80001ac8: 00 a7 07 b3 add	a5, a4, a0
[1;34m[src/memory/paddr.c:97 mtrace_log] R: 0x80001acc (len=4) data=0x0007c783[0m
[1;34m[src/memory/paddr.c:97 mtrace_log] R: 0x80002929 (len=1) data=0x00000068[0m
0x80001acc: 00 07 c7 83 lbu	a5, 0(a5)
[1;34m[src/memory/paddr.c:97 mtrace_log] R: 0x80001ad0 (len=4) data=0xfe079ae3[0m
0x80001ad0: fe 07 9a e3 bnez	a5, -0xc
[1;34m[src/memory/paddr.c:97 mtrace_log] R: 0x80001ac4 (len=4) data=0x00150513[0m
0x80001ac4: 00 15 05 13 addi	a0, a0, 1
[1;34m[src/memory/paddr.c:97 mtrace_log] R: 0x80001ac8 (len=4) data=0x00a707b3[0m
0x80001ac8: 00 a7 07 b3 add	a5, a4, a0
[1;34m[src/memory/paddr.c:97 mtrace_log] R: 0x80001acc (len=4) data=0x0007c783[0m
[1;34m[src/memory/paddr.c:97 mtrace_log] R: 0x8000292a (len=1) data=0x00000069[0m
0x80001acc: 00 07 c7 83 lbu	a5, 0(a5)
[1;34m[src/memory/paddr.c:97 mtrace_log] R: 0x80001ad0 (len=4) data=0xfe079ae3[0m
0x80001ad0: fe 07 9a e3 bnez	a5, -0xc
[1;34m[src/memory/paddr.c:97 mtrace_log] R: 0x80001ac4 (len=4) data=0x00150513[0m
0x80001ac4: 00 15 05 13 addi	a0, a0, 1
[1;34m[src/memory/paddr.c:97 mtrace_log] R: 0x80001ac8 (len=4) data=0x00a707b3[0m
0x80001ac8: 00 a7 07 b3 add	a5, a4, a0
[1;34m[src/memory/paddr.c:97 mtrace_log] R: 0x80001acc (len=4) data=0x0007c783[0m
[1;34m[src/memory/paddr.c:97 mtrace_log] R: 0x8000292b (len=1) data=0x00000073[0m
0x80001acc: 00 07 c7 83 lbu	a5, 0(a5)
[1;34m[src/memory/paddr.c:97 mtrace_log] R: 0x80001ad0 (len=4) data=0xfe079ae3[0m
0x80001ad0: fe 07 9a e3 bnez	a5, -0xc
[1;34m[src/memory/paddr.c:97 mtrace_log] R: 0x80001ac4 (len=4) data=0x00150513[0m
0x80001ac4: 00 15 05 13 addi	a0, a0, 1
[1;34m[src/memory/paddr.c:97 mtrace_log] R: 0x80001ac8 (len=4) data=0x00a707b3[0m
0x80001ac8: 00 a7 07 b3 add	a5, a4, a0
[1;34m[src/memory/paddr.c:97 mtrace_log] R: 0x80001acc (len=4) data=0x0007c783[0m
[1;34m[src/memory/paddr.c:97 mtrace_log] R: 0x8000292c (len=1) data=0x00000020[0m
0x80001acc: 00 07 c7 83 lbu	a5, 0(a5)
[1;34m[src/memory/paddr.c:97 mtrace_log] R: 0x80001ad0 (len=4) data=0xfe079ae3[0m
0x80001ad0: fe 07 9a e3 bnez	a5, -0xc
[1;34m[src/memory/paddr.c:97 mtrace_log] R: 0x80001ac4 (len=4) data=0x00150513[0m
0x80001ac4: 00 15 05 13 addi	a0, a0, 1
[1;34m[src/memory/paddr.c:97 mtrace_log] R: 0x80001ac8 (len=4) data=0x00a707b3[0m
0x80001ac8: 00 a7 07 b3 add	a5, a4, a0
[1;34m[src/memory/paddr.c:97 mtrace_log] R: 0x80001acc (len=4) data=0x0007c783[0m
[1;34m[src/memory/paddr.c:97 mtrace_log] R: 0x8000292d (len=1) data=0x00000068[0m
0x80001acc: 00 07 c7 83 lbu	a5, 0(a5)
[1;34m[src/memory/paddr.c:97 mtrace_log] R: 0x80001ad0 (len=4) data=0xfe079ae3[0m
0x80001ad0: fe 07 9a e3 bnez	a5, -0xc
[1;34m[src/memory/paddr.c:97 mtrace_log] R: 0x80001ac4 (len=4) data=0x00150513[0m
0x80001ac4: 00 15 05 13 addi	a0, a0, 1
[1;34m[src/memory/paddr.c:97 mtrace_log] R: 0x80001ac8 (len=4) data=0x00a707b3[0m
0x80001ac8: 00 a7 07 b3 add	a5, a4, a0
[1;34m[src/memory/paddr.c:97 mtrace_log] R: 0x80001acc (len=4) data=0x0007c783[0m
[1;34m[src/memory/paddr.c:97 mtrace_log] R: 0x8000292e (len=1) data=0x00000065[0m
0x80001acc: 00 07 c7 83 lbu	a5, 0(a5)
[1;34m[src/memory/paddr.c:97 mtrace_log] R: 0x80001ad0 (len=4) data=0xfe079ae3[0m
0x80001ad0: fe 07 9a e3 bnez	a5, -0xc
[1;34m[src/memory/paddr.c:97 mtrace_log] R: 0x80001ac4 (len=4) data=0x00150513[0m
0x80001ac4: 00 15 05 13 addi	a0, a0, 1
[1;34m[src/memory/paddr.c:97 mtrace_log] R: 0x80001ac8 (len=4) data=0x00a707b3[0m
0x80001ac8: 00 a7 07 b3 add	a5, a4, a0
[1;34m[src/memory/paddr.c:97 mtrace_log] R: 0x80001acc (len=4) data=0x0007c783[0m
[1;34m[src/memory/paddr.c:97 mtrace_log] R: 0x8000292f (len=1) data=0x0000006c[0m
0x80001acc: 00 07 c7 83 lbu	a5, 0(a5)
[1;34m[src/memory/paddr.c:97 mtrace_log] R: 0x80001ad0 (len=4) data=0xfe079ae3[0m
0x80001ad0: fe 07 9a e3 bnez	a5, -0xc
[1;34m[src/memory/paddr.c:97 mtrace_log] R: 0x80001ac4 (len=4) data=0x00150513[0m
0x80001ac4: 00 15 05 13 addi	a0, a0, 1
[1;34m[src/memory/paddr.c:97 mtrace_log] R: 0x80001ac8 (len=4) data=0x00a707b3[0m
0x80001ac8: 00 a7 07 b3 add	a5, a4, a0
[1;34m[src/memory/paddr.c:97 mtrace_log] R: 0x80001acc (len=4) data=0x0007c783[0m
[1;34m[src/memory/paddr.c:97 mtrace_log] R: 0x80002930 (len=1) data=0x00000070[0m
0x80001acc: 00 07 c7 83 lbu	a5, 0(a5)
[1;34m[src/memory/paddr.c:97 mtrace_log] R: 0x80001ad0 (len=4) data=0xfe079ae3[0m
0x80001ad0: fe 07 9a e3 bnez	a5, -0xc
[1;34m[src/memory/paddr.c:97 mtrace_log] R: 0x80001ac4 (len=4) data=0x00150513[0m
0x80001ac4: 00 15 05 13 addi	a0, a0, 1
[1;34m[src/memory/paddr.c:97 mtrace_log] R: 0x80001ac8 (len=4) data=0x00a707b3[0m
0x80001ac8: 00 a7 07 b3 add	a5, a4, a0
[1;34m[src/memory/paddr.c:97 mtrace_log] R: 0x80001acc (len=4) data=0x0007c783[0m
[1;34m[src/memory/paddr.c:97 mtrace_log] R: 0x80002931 (len=1) data=0x00000020[0m
0x80001acc: 00 07 c7 83 lbu	a5, 0(a5)
[1;34m[src/memory/paddr.c:97 mtrace_log] R: 0x80001ad0 (len=4) data=0xfe079ae3[0m
0x80001ad0: fe 07 9a e3 bnez	a5, -0xc
[1;34m[src/memory/paddr.c:97 mtrace_log] R: 0x80001ac4 (len=4) data=0x00150513[0m
0x80001ac4: 00 15 05 13 addi	a0, a0, 1
[1;34m[src/memory/paddr.c:97 mtrace_log] R: 0x80001ac8 (len=4) data=0x00a707b3[0m
0x80001ac8: 00 a7 07 b3 add	a5, a4, a0
[1;34m[src/memory/paddr.c:97 mtrace_log] R: 0x80001acc (len=4) data=0x0007c783[0m
[1;34m[src/memory/paddr.c:97 mtrace_log] R: 0x80002932 (len=1) data=0x0000006d[0m
0x80001acc: 00 07 c7 83 lbu	a5, 0(a5)
[1;34m[src/memory/paddr.c:97 mtrace_log] R: 0x80001ad0 (len=4) data=0xfe079ae3[0m
0x80001ad0: fe 07 9a e3 bnez	a5, -0xc
[1;34m[src/memory/paddr.c:97 mtrace_log] R: 0x80001ac4 (len=4) data=0x00150513[0m
0x80001ac4: 00 15 05 13 addi	a0, a0, 1
[1;34m[src/memory/paddr.c:97 mtrace_log] R: 0x80001ac8 (len=4) data=0x00a707b3[0m
0x80001ac8: 00 a7 07 b3 add	a5, a4, a0
[1;34m[src/memory/paddr.c:97 mtrace_log] R: 0x80001acc (len=4) data=0x0007c783[0m
[1;34m[src/memory/paddr.c:97 mtrace_log] R: 0x80002933 (len=1) data=0x00000065[0m
0x80001acc: 00 07 c7 83 lbu	a5, 0(a5)
[1;34m[src/memory/paddr.c:97 mtrace_log] R: 0x80001ad0 (len=4) data=0xfe079ae3[0m
0x80001ad0: fe 07 9a e3 bnez	a5, -0xc
[1;34m[src/memory/paddr.c:97 mtrace_log] R: 0x80001ac4 (len=4) data=0x00150513[0m
0x80001ac4: 00 15 05 13 addi	a0, a0, 1
[1;34m[src/memory/paddr.c:97 mtrace_log] R: 0x80001ac8 (len=4) data=0x00a707b3[0m
0x80001ac8: 00 a7 07 b3 add	a5, a4, a0
[1;34m[src/memory/paddr.c:97 mtrace_log] R: 0x80001acc (len=4) data=0x0007c783[0m
[1;34m[src/memory/paddr.c:97 mtrace_log] R: 0x80002934 (len=1) data=0x00000073[0m
0x80001acc: 00 07 c7 83 lbu	a5, 0(a5)
[1;34m[src/memory/paddr.c:97 mtrace_log] R: 0x80001ad0 (len=4) data=0xfe079ae3[0m
0x80001ad0: fe 07 9a e3 bnez	a5, -0xc
[1;34m[src/memory/paddr.c:97 mtrace_log] R: 0x80001ac4 (len=4) data=0x00150513[0m
0x80001ac4: 00 15 05 13 addi	a0, a0, 1
[1;34m[src/memory/paddr.c:97 mtrace_log] R: 0x80001ac8 (len=4) data=0x00a707b3[0m
0x80001ac8: 00 a7 07 b3 add	a5, a4, a0
[1;34m[src/memory/paddr.c:97 mtrace_log] R: 0x80001acc (len=4) data=0x0007c783[0m
[1;34m[src/memory/paddr.c:97 mtrace_log] R: 0x80002935 (len=1) data=0x00000073[0m
0x80001acc: 00 07 c7 83 lbu	a5, 0(a5)
[1;34m[src/memory/paddr.c:97 mtrace_log] R: 0x80001ad0 (len=4) data=0xfe079ae3[0m
0x80001ad0: fe 07 9a e3 bnez	a5, -0xc
[1;34m[src/memory/paddr.c:97 mtrace_log] R: 0x80001ac4 (len=4) data=0x00150513[0m
0x80001ac4: 00 15 05 13 addi	a0, a0, 1
[1;34m[src/memory/paddr.c:97 mtrace_log] R: 0x80001ac8 (len=4) data=0x00a707b3[0m
0x80001ac8: 00 a7 07 b3 add	a5, a4, a0
[1;34m[src/memory/paddr.c:97 mtrace_log] R: 0x80001acc (len=4) data=0x0007c783[0m
[1;34m[src/memory/paddr.c:97 mtrace_log] R: 0x80002936 (len=1) data=0x00000061[0m
0x80001acc: 00 07 c7 83 lbu	a5, 0(a5)
[1;34m[src/memory/paddr.c:97 mtrace_log] R: 0x80001ad0 (len=4) data=0xfe079ae3[0m
0x80001ad0: fe 07 9a e3 bnez	a5, -0xc
[1;34m[src/memory/paddr.c:97 mtrace_log] R: 0x80001ac4 (len=4) data=0x00150513[0m
0x80001ac4: 00 15 05 13 addi	a0, a0, 1
[1;34m[src/memory/paddr.c:97 mtrace_log] R: 0x80001ac8 (len=4) data=0x00a707b3[0m
0x80001ac8: 00 a7 07 b3 add	a5, a4, a0
[1;34m[src/memory/paddr.c:97 mtrace_log] R: 0x80001acc (len=4) data=0x0007c783[0m
[1;34m[src/memory/paddr.c:97 mtrace_log] R: 0x80002937 (len=1) data=0x00000067[0m
0x80001acc: 00 07 c7 83 lbu	a5, 0(a5)
[1;34m[src/memory/paddr.c:97 mtrace_log] R: 0x80001ad0 (len=4) data=0xfe079ae3[0m
0x80001ad0: fe 07 9a e3 bnez	a5, -0xc
[1;34m[src/memory/paddr.c:97 mtrace_log] R: 0x80001ac4 (len=4) data=0x00150513[0m
0x80001ac4: 00 15 05 13 addi	a0, a0, 1
[1;34m[src/memory/paddr.c:97 mtrace_log] R: 0x80001ac8 (len=4) data=0x00a707b3[0m
0x80001ac8: 00 a7 07 b3 add	a5, a4, a0
[1;34m[src/memory/paddr.c:97 mtrace_log] R: 0x80001acc (len=4) data=0x0007c783[0m
[1;34m[src/memory/paddr.c:97 mtrace_log] R: 0x80002938 (len=1) data=0x00000065[0m
0x80001acc: 00 07 c7 83 lbu	a5, 0(a5)
[1;34m[src/memory/paddr.c:97 mtrace_log] R: 0x80001ad0 (len=4) data=0xfe079ae3[0m
0x80001ad0: fe 07 9a e3 bnez	a5, -0xc
[1;34m[src/memory/paddr.c:97 mtrace_log] R: 0x80001ac4 (len=4) data=0x00150513[0m
0x80001ac4: 00 15 05 13 addi	a0, a0, 1
[1;34m[src/memory/paddr.c:97 mtrace_log] R: 0x80001ac8 (len=4) data=0x00a707b3[0m
0x80001ac8: 00 a7 07 b3 add	a5, a4, a0
[1;34m[src/memory/paddr.c:97 mtrace_log] R: 0x80001acc (len=4) data=0x0007c783[0m
[1;34m[src/memory/paddr.c:97 mtrace_log] R: 0x80002939 (len=1) data=0x00000000[0m
0x80001acc: 00 07 c7 83 lbu	a5, 0(a5)
[1;34m[src/memory/paddr.c:97 mtrace_log] R: 0x80001ad0 (len=4) data=0xfe079ae3[0m
0x80001ad0: fe 07 9a e3 bnez	a5, -0xc
[1;34m[src/memory/paddr.c:97 mtrace_log] R: 0x80001ad4 (len=4) data=0x00008067[0m
0x80001ad4: 00 00 80 67 ret
[1;34m[src/memory/paddr.c:97 mtrace_log] R: 0x800020f0 (len=4) data=0x00412703[0m
[1;34m[src/memory/paddr.c:97 mtrace_log] R: 0x8009df44 (len=4) data=0xffffffff[0m
0x800020f0: 00 41 27 03 lw	a4, 4(sp)
[1;34m[src/memory/paddr.c:97 mtrace_log] R: 0x800020f4 (len=4) data=0xfff00613[0m
0x800020f4: ff f0 06 13 addi	a2, zero, -1
[1;34m[src/memory/paddr.c:97 mtrace_log] R: 0x800020f8 (len=4) data=0x00812783[0m
[1;34m[src/memory/paddr.c:97 mtrace_log] R: 0x8009df48 (len=4) data=0x00000000[0m
0x800020f8: 00 81 27 83 lw	a5, 8(sp)
[1;34m[src/memory/paddr.c:97 mtrace_log] R: 0x800020fc (len=4) data=0x00c12683[0m
[1;34m[src/memory/paddr.c:97 mtrace_log] R: 0x8009df4c (len=4) data=0xffffffff[0m
0x800020fc: 00 c1 26 83 lw	a3, 0xc(sp)
[1;34m[src/memory/paddr.c:97 mtrace_log] R: 0x80002100 (len=4) data=0x00c70663[0m
0x80002100: 00 c7 06 63 beq	a4, a2, 0xc
[1;34m[src/memory/paddr.c:97 mtrace_log] R: 0x8000210c (len=4) data=0x0017f793[0m
0x8000210c: 00 17 f7 93 andi	a5, a5, 1
[1;34m[src/memory/paddr.c:97 mtrace_log] R: 0x80002110 (len=4) data=0x14078063[0m
0x80002110: 14 07 80 63 beqz	a5, 0x140
[1;34m[src/memory/paddr.c:97 mtrace_log] R: 0x80002250 (len=4) data=0xfff68613[0m
0x80002250: ff f6 86 13 addi	a2, a3, -1
[1;34m[src/memory/paddr.c:97 mtrace_log] R: 0x80002254 (len=4) data=0x08d55463[0m
0x80002254: 08 d5 54 63 bge	a0, a3, 0x88
[1;34m[src/memory/paddr.c:97 mtrace_log] R: 0x800022dc (len=4) data=0x00060693[0m
0x800022dc: 00 06 06 93 mv	a3, a2
[1;34m[src/memory/paddr.c:97 mtrace_log] R: 0x800022e0 (len=4) data=0xe35ff06f[0m
0x800022e0: e3 5f f0 6f j	-0x1cc
[1;34m[src/memory/paddr.c:97 mtrace_log] R: 0x80002114 (len=4) data=0x1aa05663[0m
0x80002114: 1a a0 56 63 blez	a0, 0x1ac
[1;34m[src/memory/paddr.c:97 mtrace_log] R: 0x80002118 (len=4) data=0x00a48733[0m
0x80002118: 00 a4 87 33 add	a4, s1, a0
[1;34m[src/memory/paddr.c:97 mtrace_log] R: 0x8000211c (len=4) data=0x000dc783[0m
[1;34m[src/memory/paddr.c:97 mtrace_log] R: 0x80002920 (len=1) data=0x00000064[0m
0x8000211c: 00 0d c7 83 lbu	a5, 0(s11)
[1;34m[src/memory/paddr.c:97 mtrace_log] R: 0x80002120 (len=4) data=0x00148493[0m
0x80002120: 00 14 84 93 addi	s1, s1, 1
[1;34m[src/memory/paddr.c:97 mtrace_log] R: 0x80002124 (len=4) data=0x001d8d93[0m
0x80002124: 00 1d 8d 93 addi	s11, s11, 1
[1;34m[src/memory/paddr.c:97 mtrace_log] R: 0x80002128 (len=4) data=0xfef48fa3[0m
[1;34m[src/memory/paddr.c:97 mtrace_log] W: 0x80095521 (len=1) data=0x00000064[0m
0x80002128: fe f4 8f a3 sb	a5, -1(s1)
[1;34m[src/memory/paddr.c:97 mtrace_log] R: 0x8000212c (len=4) data=0xfe9718e3[0m
0x8000212c: fe 97 18 e3 bne	a4, s1, -0x10
[1;34m[src/memory/paddr.c:97 mtrace_log] R: 0x8000211c (len=4) data=0x000dc783[0m
[1;34m[src/memory/paddr.c:97 mtrace_log] R: 0x80002921 (len=1) data=0x00000069[0m
0x8000211c: 00 0d c7 83 lbu	a5, 0(s11)
[1;34m[src/memory/paddr.c:97 mtrace_log] R: 0x80002120 (len=4) data=0x00148493[0m
0x80002120: 00 14 84 93 addi	s1, s1, 1
[1;34m[src/memory/paddr.c:97 mtrace_log] R: 0x80002124 (len=4) data=0x001d8d93[0m
0x80002124: 00 1d 8d 93 addi	s11, s11, 1
[1;34m[src/memory/paddr.c:97 mtrace_log] R: 0x80002128 (len=4) data=0xfef48fa3[0m
[1;34m[src/memory/paddr.c:97 mtrace_log] W: 0x80095522 (len=1) data=0x00000069[0m
0x80002128: fe f4 8f a3 sb	a5, -1(s1)
[1;34m[src/memory/paddr.c:97 mtrace_log] R: 0x8000212c (len=4) data=0xfe9718e3[0m
0x8000212c: fe 97 18 e3 bne	a4, s1, -0x10
[1;34m[src/memory/paddr.c:97 mtrace_log] R: 0x8000211c (len=4) data=0x000dc783[0m
[1;34m[src/memory/paddr.c:97 mtrace_log] R: 0x80002922 (len=1) data=0x00000073[0m
0x8000211c: 00 0d c7 83 lbu	a5, 0(s11)
[1;34m[src/memory/paddr.c:97 mtrace_log] R: 0x80002120 (len=4) data=0x00148493[0m
0x80002120: 00 14 84 93 addi	s1, s1, 1
[1;34m[src/memory/paddr.c:97 mtrace_log] R: 0x80002124 (len=4) data=0x001d8d93[0m
0x80002124: 00 1d 8d 93 addi	s11, s11, 1
[1;34m[src/memory/paddr.c:97 mtrace_log] R: 0x80002128 (len=4) data=0xfef48fa3[0m
[1;34m[src/memory/paddr.c:97 mtrace_log] W: 0x80095523 (len=1) data=0x00000073[0m
0x80002128: fe f4 8f a3 sb	a5, -1(s1)
[1;34m[src/memory/paddr.c:97 mtrace_log] R: 0x8000212c (len=4) data=0xfe9718e3[0m
0x8000212c: fe 97 18 e3 bne	a4, s1, -0x10
[1;34m[src/memory/paddr.c:97 mtrace_log] R: 0x8000211c (len=4) data=0x000dc783[0m
[1;34m[src/memory/paddr.c:97 mtrace_log] R: 0x80002923 (len=1) data=0x00000070[0m
0x8000211c: 00 0d c7 83 lbu	a5, 0(s11)
[1;34m[src/memory/paddr.c:97 mtrace_log] R: 0x80002120 (len=4) data=0x00148493[0m
0x80002120: 00 14 84 93 addi	s1, s1, 1
[1;34m[src/memory/paddr.c:97 mtrace_log] R: 0x80002124 (len=4) data=0x001d8d93[0m
0x80002124: 00 1d 8d 93 addi	s11, s11, 1
[1;34m[src/memory/paddr.c:97 mtrace_log] R: 0x80002128 (len=4) data=0xfef48fa3[0m
[1;34m[src/memory/paddr.c:97 mtrace_log] W: 0x80095524 (len=1) data=0x00000070[0m
0x80002128: fe f4 8f a3 sb	a5, -1(s1)
[1;34m[src/memory/paddr.c:97 mtrace_log] R: 0x8000212c (len=4) data=0xfe9718e3[0m
0x8000212c: fe 97 18 e3 bne	a4, s1, -0x10
[1;34m[src/memory/paddr.c:97 mtrace_log] R: 0x8000211c (len=4) data=0x000dc783[0m
[1;34m[src/memory/paddr.c:97 mtrace_log] R: 0x80002924 (len=1) data=0x0000006c[0m
0x8000211c: 00 0d c7 83 lbu	a5, 0(s11)
[1;34m[src/memory/paddr.c:97 mtrace_log] R: 0x80002120 (len=4) data=0x00148493[0m
0x80002120: 00 14 84 93 addi	s1, s1, 1
[1;34m[src/memory/paddr.c:97 mtrace_log] R: 0x80002124 (len=4) data=0x001d8d93[0m
0x80002124: 00 1d 8d 93 addi	s11, s11, 1
[1;34m[src/memory/paddr.c:97 mtrace_log] R: 0x80002128 (len=4) data=0xfef48fa3[0m
[1;34m[src/memory/paddr.c:97 mtrace_log] W: 0x80095525 (len=1) data=0x0000006c[0m
0x80002128: fe f4 8f a3 sb	a5, -1(s1)
[1;34m[src/memory/paddr.c:97 mtrace_log] R: 0x8000212c (len=4) data=0xfe9718e3[0m
0x8000212c: fe 97 18 e3 bne	a4, s1, -0x10
[1;34m[src/memory/paddr.c:97 mtrace_log] R: 0x8000211c (len=4) data=0x000dc783[0m
[1;34m[src/memory/paddr.c:97 mtrace_log] R: 0x80002925 (len=1) data=0x00000061[0m
0x8000211c: 00 0d c7 83 lbu	a5, 0(s11)
[1;34m[src/memory/paddr.c:97 mtrace_log] R: 0x80002120 (len=4) data=0x00148493[0m
0x80002120: 00 14 84 93 addi	s1, s1, 1
[1;34m[src/memory/paddr.c:97 mtrace_log] R: 0x80002124 (len=4) data=0x001d8d93[0m
0x80002124: 00 1d 8d 93 addi	s11, s11, 1
[1;34m[src/memory/paddr.c:97 mtrace_log] R: 0x80002128 (len=4) data=0xfef48fa3[0m
[1;34m[src/memory/paddr.c:97 mtrace_log] W: 0x80095526 (len=1) data=0x00000061[0m
0x80002128: fe f4 8f a3 sb	a5, -1(s1)
[1;34m[src/memory/paddr.c:97 mtrace_log] R: 0x8000212c (len=4) data=0xfe9718e3[0m
0x8000212c: fe 97 18 e3 bne	a4, s1, -0x10
[1;34m[src/memory/paddr.c:97 mtrace_log] R: 0x8000211c (len=4) data=0x000dc783[0m
[1;34m[src/memory/paddr.c:97 mtrace_log] R: 0x80002926 (len=1) data=0x00000079[0m
0x8000211c: 00 0d c7 83 lbu	a5, 0(s11)
[1;34m[src/memory/paddr.c:97 mtrace_log] R: 0x80002120 (len=4) data=0x00148493[0m
0x80002120: 00 14 84 93 addi	s1, s1, 1
[1;34m[src/memory/paddr.c:97 mtrace_log] R: 0x80002124 (len=4) data=0x001d8d93[0m
0x80002124: 00 1d 8d 93 addi	s11, s11, 1
[1;34m[src/memory/paddr.c:97 mtrace_log] R: 0x80002128 (len=4) data=0xfef48fa3[0m
[1;34m[src/memory/paddr.c:97 mtrace_log] W: 0x80095527 (len=1) data=0x00000079[0m
0x80002128: fe f4 8f a3 sb	a5, -1(s1)
[1;34m[src/memory/paddr.c:97 mtrace_log] R: 0x8000212c (len=4) data=0xfe9718e3[0m
0x8000212c: fe 97 18 e3 bne	a4, s1, -0x10
[1;34m[src/memory/paddr.c:97 mtrace_log] R: 0x8000211c (len=4) data=0x000dc783[0m
[1;34m[src/memory/paddr.c:97 mtrace_log] R: 0x80002927 (len=1) data=0x00000020[0m
0x8000211c: 00 0d c7 83 lbu	a5, 0(s11)
[1;34m[src/memory/paddr.c:97 mtrace_log] R: 0x80002120 (len=4) data=0x00148493[0m
0x80002120: 00 14 84 93 addi	s1, s1, 1
[1;34m[src/memory/paddr.c:97 mtrace_log] R: 0x80002124 (len=4) data=0x001d8d93[0m
0x80002124: 00 1d 8d 93 addi	s11, s11, 1
[1;34m[src/memory/paddr.c:97 mtrace_log] R: 0x80002128 (len=4) data=0xfef48fa3[0m
[1;34m[src/memory/paddr.c:97 mtrace_log] W: 0x80095528 (len=1) data=0x00000020[0m
0x80002128: fe f4 8f a3 sb	a5, -1(s1)
[1;34m[src/memory/paddr.c:97 mtrace_log] R: 0x8000212c (len=4) data=0xfe9718e3[0m
0x8000212c: fe 97 18 e3 bne	a4, s1, -0x10
[1;34m[src/memory/paddr.c:97 mtrace_log] R: 0x8000211c (len=4) data=0x000dc783[0m
[1;34m[src/memory/paddr.c:97 mtrace_log] R: 0x80002928 (len=1) data=0x00000074[0m
0x8000211c: 00 0d c7 83 lbu	a5, 0(s11)
[1;34m[src/memory/paddr.c:97 mtrace_log] R: 0x80002120 (len=4) data=0x00148493[0m
0x80002120: 00 14 84 93 addi	s1, s1, 1
[1;34m[src/memory/paddr.c:97 mtrace_log] R: 0x80002124 (len=4) data=0x001d8d93[0m
0x80002124: 00 1d 8d 93 addi	s11, s11, 1
[1;34m[src/memory/paddr.c:97 mtrace_log] R: 0x80002128 (len=4) data=0xfef48fa3[0m
[1;34m[src/memory/paddr.c:97 mtrace_log] W: 0x80095529 (len=1) data=0x00000074[0m
0x80002128: fe f4 8f a3 sb	a5, -1(s1)
[1;34m[src/memory/paddr.c:97 mtrace_log] R: 0x8000212c (len=4) data=0xfe9718e3[0m
0x8000212c: fe 97 18 e3 bne	a4, s1, -0x10
[1;34m[src/memory/paddr.c:97 mtrace_log] R: 0x8000211c (len=4) data=0x000dc783[0m
[1;34m[src/memory/paddr.c:97 mtrace_log] R: 0x80002929 (len=1) data=0x00000068[0m
0x8000211c: 00 0d c7 83 lbu	a5, 0(s11)
[1;34m[src/memory/paddr.c:97 mtrace_log] R: 0x80002120 (len=4) data=0x00148493[0m
0x80002120: 00 14 84 93 addi	s1, s1, 1
[1;34m[src/memory/paddr.c:97 mtrace_log] R: 0x80002124 (len=4) data=0x001d8d93[0m
0x80002124: 00 1d 8d 93 addi	s11, s11, 1
[1;34m[src/memory/paddr.c:97 mtrace_log] R: 0x80002128 (len=4) data=0xfef48fa3[0m
[1;34m[src/memory/paddr.c:97 mtrace_log] W: 0x8009552a (len=1) data=0x00000068[0m
0x80002128: fe f4 8f a3 sb	a5, -1(s1)
[1;34m[src/memory/paddr.c:97 mtrace_log] R: 0x8000212c (len=4) data=0xfe9718e3[0m
0x8000212c: fe 97 18 e3 bne	a4, s1, -0x10
[1;34m[src/memory/paddr.c:97 mtrace_log] R: 0x8000211c (len=4) data=0x000dc783[0m
[1;34m[src/memory/paddr.c:97 mtrace_log] R: 0x8000292a (len=1) data=0x00000069[0m
0x8000211c: 00 0d c7 83 lbu	a5, 0(s11)
[1;34m[src/memory/paddr.c:97 mtrace_log] R: 0x80002120 (len=4) data=0x00148493[0m
0x80002120: 00 14 84 93 addi	s1, s1, 1
[1;34m[src/memory/paddr.c:97 mtrace_log] R: 0x80002124 (len=4) data=0x001d8d93[0m
0x80002124: 00 1d 8d 93 addi	s11, s11, 1
[1;34m[src/memory/paddr.c:97 mtrace_log] R: 0x80002128 (len=4) data=0xfef48fa3[0m
[1;34m[src/memory/paddr.c:97 mtrace_log] W: 0x8009552b (len=1) data=0x00000069[0m
0x80002128: fe f4 8f a3 sb	a5, -1(s1)
[1;34m[src/memory/paddr.c:97 mtrace_log] R: 0x8000212c (len=4) data=0xfe9718e3[0m
0x8000212c: fe 97 18 e3 bne	a4, s1, -0x10
[1;34m[src/memory/paddr.c:97 mtrace_log] R: 0x8000211c (len=4) data=0x000dc783[0m
[1;34m[src/memory/paddr.c:97 mtrace_log] R: 0x8000292b (len=1) data=0x00000073[0m
0x8000211c: 00 0d c7 83 lbu	a5, 0(s11)
[1;34m[src/memory/paddr.c:97 mtrace_log] R: 0x80002120 (len=4) data=0x00148493[0m
0x80002120: 00 14 84 93 addi	s1, s1, 1
[1;34m[src/memory/paddr.c:97 mtrace_log] R: 0x80002124 (len=4) data=0x001d8d93[0m
0x80002124: 00 1d 8d 93 addi	s11, s11, 1
[1;34m[src/memory/paddr.c:97 mtrace_log] R: 0x80002128 (len=4) data=0xfef48fa3[0m
[1;34m[src/memory/paddr.c:97 mtrace_log] W: 0x8009552c (len=1) data=0x00000073[0m
0x80002128: fe f4 8f a3 sb	a5, -1(s1)
[1;34m[src/memory/paddr.c:97 mtrace_log] R: 0x8000212c (len=4) data=0xfe9718e3[0m
0x8000212c: fe 97 18 e3 bne	a4, s1, -0x10
[1;34m[src/memory/paddr.c:97 mtrace_log] R: 0x8000211c (len=4) data=0x000dc783[0m
[1;34m[src/memory/paddr.c:97 mtrace_log] R: 0x8000292c (len=1) data=0x00000020[0m
0x8000211c: 00 0d c7 83 lbu	a5, 0(s11)
[1;34m[src/memory/paddr.c:97 mtrace_log] R: 0x80002120 (len=4) data=0x00148493[0m
0x80002120: 00 14 84 93 addi	s1, s1, 1
[1;34m[src/memory/paddr.c:97 mtrace_log] R: 0x80002124 (len=4) data=0x001d8d93[0m
0x80002124: 00 1d 8d 93 addi	s11, s11, 1
[1;34m[src/memory/paddr.c:97 mtrace_log] R: 0x80002128 (len=4) data=0xfef48fa3[0m
[1;34m[src/memory/paddr.c:97 mtrace_log] W: 0x8009552d (len=1) data=0x00000020[0m
0x80002128: fe f4 8f a3 sb	a5, -1(s1)
[1;34m[src/memory/paddr.c:97 mtrace_log] R: 0x8000212c (len=4) data=0xfe9718e3[0m
0x8000212c: fe 97 18 e3 bne	a4, s1, -0x10
[1;34m[src/memory/paddr.c:97 mtrace_log] R: 0x8000211c (len=4) data=0x000dc783[0m
[1;34m[src/memory/paddr.c:97 mtrace_log] R: 0x8000292d (len=1) data=0x00000068[0m
0x8000211c: 00 0d c7 83 lbu	a5, 0(s11)
[1;34m[src/memory/paddr.c:97 mtrace_log] R: 0x80002120 (len=4) data=0x00148493[0m
0x80002120: 00 14 84 93 addi	s1, s1, 1
[1;34m[src/memory/paddr.c:97 mtrace_log] R: 0x80002124 (len=4) data=0x001d8d93[0m
0x80002124: 00 1d 8d 93 addi	s11, s11, 1
[1;34m[src/memory/paddr.c:97 mtrace_log] R: 0x80002128 (len=4) data=0xfef48fa3[0m
[1;34m[src/memory/paddr.c:97 mtrace_log] W: 0x8009552e (len=1) data=0x00000068[0m
0x80002128: fe f4 8f a3 sb	a5, -1(s1)
[1;34m[src/memory/paddr.c:97 mtrace_log] R: 0x8000212c (len=4) data=0xfe9718e3[0m
0x8000212c: fe 97 18 e3 bne	a4, s1, -0x10
[1;34m[src/memory/paddr.c:97 mtrace_log] R: 0x8000211c (len=4) data=0x000dc783[0m
[1;34m[src/memory/paddr.c:97 mtrace_log] R: 0x8000292e (len=1) data=0x00000065[0m
0x8000211c: 00 0d c7 83 lbu	a5, 0(s11)
[1;34m[src/memory/paddr.c:97 mtrace_log] R: 0x80002120 (len=4) data=0x00148493[0m
0x80002120: 00 14 84 93 addi	s1, s1, 1
[1;34m[src/memory/paddr.c:97 mtrace_log] R: 0x80002124 (len=4) data=0x001d8d93[0m
0x80002124: 00 1d 8d 93 addi	s11, s11, 1
[1;34m[src/memory/paddr.c:97 mtrace_log] R: 0x80002128 (len=4) data=0xfef48fa3[0m
[1;34m[src/memory/paddr.c:97 mtrace_log] W: 0x8009552f (len=1) data=0x00000065[0m
0x80002128: fe f4 8f a3 sb	a5, -1(s1)
[1;34m[src/memory/paddr.c:97 mtrace_log] R: 0x8000212c (len=4) data=0xfe9718e3[0m
0x8000212c: fe 97 18 e3 bne	a4, s1, -0x10
[1;34m[src/memory/paddr.c:97 mtrace_log] R: 0x8000211c (len=4) data=0x000dc783[0m
[1;34m[src/memory/paddr.c:97 mtrace_log] R: 0x8000292f (len=1) data=0x0000006c[0m
0x8000211c: 00 0d c7 83 lbu	a5, 0(s11)
[1;34m[src/memory/paddr.c:97 mtrace_log] R: 0x80002120 (len=4) data=0x00148493[0m
0x80002120: 00 14 84 93 addi	s1, s1, 1
[1;34m[src/memory/paddr.c:97 mtrace_log] R: 0x80002124 (len=4) data=0x001d8d93[0m
0x80002124: 00 1d 8d 93 addi	s11, s11, 1
[1;34m[src/memory/paddr.c:97 mtrace_log] R: 0x80002128 (len=4) data=0xfef48fa3[0m
[1;34m[src/memory/paddr.c:97 mtrace_log] W: 0x80095530 (len=1) data=0x0000006c[0m
0x80002128: fe f4 8f a3 sb	a5, -1(s1)
[1;34m[src/memory/paddr.c:97 mtrace_log] R: 0x8000212c (len=4) data=0xfe9718e3[0m
0x8000212c: fe 97 18 e3 bne	a4, s1, -0x10
[1;34m[src/memory/paddr.c:97 mtrace_log] R: 0x8000211c (len=4) data=0x000dc783[0m
[1;34m[src/memory/paddr.c:97 mtrace_log] R: 0x80002930 (len=1) data=0x00000070[0m
0x8000211c: 00 0d c7 83 lbu	a5, 0(s11)
[1;34m[src/memory/paddr.c:97 mtrace_log] R: 0x80002120 (len=4) data=0x00148493[0m
0x80002120: 00 14 84 93 addi	s1, s1, 1
[1;34m[src/memory/paddr.c:97 mtrace_log] R: 0x80002124 (len=4) data=0x001d8d93[0m
0x80002124: 00 1d 8d 93 addi	s11, s11, 1
[1;34m[src/memory/paddr.c:97 mtrace_log] R: 0x80002128 (len=4) data=0xfef48fa3[0m
[1;34m[src/memory/paddr.c:97 mtrace_log] W: 0x80095531 (len=1) data=0x00000070[0m
0x80002128: fe f4 8f a3 sb	a5, -1(s1)
[1;34m[src/memory/paddr.c:97 mtrace_log] R: 0x8000212c (len=4) data=0xfe9718e3[0m
0x8000212c: fe 97 18 e3 bne	a4, s1, -0x10
[1;34m[src/memory/paddr.c:97 mtrace_log] R: 0x8000211c (len=4) data=0x000dc783[0m
[1;34m[src/memory/paddr.c:97 mtrace_log] R: 0x80002931 (len=1) data=0x00000020[0m
0x8000211c: 00 0d c7 83 lbu	a5, 0(s11)
[1;34m[src/memory/paddr.c:97 mtrace_log] R: 0x80002120 (len=4) data=0x00148493[0m
0x80002120: 00 14 84 93 addi	s1, s1, 1
[1;34m[src/memory/paddr.c:97 mtrace_log] R: 0x80002124 (len=4) data=0x001d8d93[0m
0x80002124: 00 1d 8d 93 addi	s11, s11, 1
[1;34m[src/memory/paddr.c:97 mtrace_log] R: 0x80002128 (len=4) data=0xfef48fa3[0m
[1;34m[src/memory/paddr.c:97 mtrace_log] W: 0x80095532 (len=1) data=0x00000020[0m
0x80002128: fe f4 8f a3 sb	a5, -1(s1)
[1;34m[src/memory/paddr.c:97 mtrace_log] R: 0x8000212c (len=4) data=0xfe9718e3[0m
0x8000212c: fe 97 18 e3 bne	a4, s1, -0x10
[1;34m[src/memory/paddr.c:97 mtrace_log] R: 0x8000211c (len=4) data=0x000dc783[0m
[1;34m[src/memory/paddr.c:97 mtrace_log] R: 0x80002932 (len=1) data=0x0000006d[0m
0x8000211c: 00 0d c7 83 lbu	a5, 0(s11)
[1;34m[src/memory/paddr.c:97 mtrace_log] R: 0x80002120 (len=4) data=0x00148493[0m
0x80002120: 00 14 84 93 addi	s1, s1, 1
[1;34m[src/memory/paddr.c:97 mtrace_log] R: 0x80002124 (len=4) data=0x001d8d93[0m
0x80002124: 00 1d 8d 93 addi	s11, s11, 1
[1;34m[src/memory/paddr.c:97 mtrace_log] R: 0x80002128 (len=4) data=0xfef48fa3[0m
[1;34m[src/memory/paddr.c:97 mtrace_log] W: 0x80095533 (len=1) data=0x0000006d[0m
0x80002128: fe f4 8f a3 sb	a5, -1(s1)
[1;34m[src/memory/paddr.c:97 mtrace_log] R: 0x8000212c (len=4) data=0xfe9718e3[0m
0x8000212c: fe 97 18 e3 bne	a4, s1, -0x10
[1;34m[src/memory/paddr.c:97 mtrace_log] R: 0x8000211c (len=4) data=0x000dc783[0m
[1;34m[src/memory/paddr.c:97 mtrace_log] R: 0x80002933 (len=1) data=0x00000065[0m
0x8000211c: 00 0d c7 83 lbu	a5, 0(s11)
[1;34m[src/memory/paddr.c:97 mtrace_log] R: 0x80002120 (len=4) data=0x00148493[0m
0x80002120: 00 14 84 93 addi	s1, s1, 1
[1;34m[src/memory/paddr.c:97 mtrace_log] R: 0x80002124 (len=4) data=0x001d8d93[0m
0x80002124: 00 1d 8d 93 addi	s11, s11, 1
[1;34m[src/memory/paddr.c:97 mtrace_log] R: 0x80002128 (len=4) data=0xfef48fa3[0m
[1;34m[src/memory/paddr.c:97 mtrace_log] W: 0x80095534 (len=1) data=0x00000065[0m
0x80002128: fe f4 8f a3 sb	a5, -1(s1)
[1;34m[src/memory/paddr.c:97 mtrace_log] R: 0x8000212c (len=4) data=0xfe9718e3[0m
0x8000212c: fe 97 18 e3 bne	a4, s1, -0x10
[1;34m[src/memory/paddr.c:97 mtrace_log] R: 0x8000211c (len=4) data=0x000dc783[0m
[1;34m[src/memory/paddr.c:97 mtrace_log] R: 0x80002934 (len=1) data=0x00000073[0m
0x8000211c: 00 0d c7 83 lbu	a5, 0(s11)
[1;34m[src/memory/paddr.c:97 mtrace_log] R: 0x80002120 (len=4) data=0x00148493[0m
0x80002120: 00 14 84 93 addi	s1, s1, 1
[1;34m[src/memory/paddr.c:97 mtrace_log] R: 0x80002124 (len=4) data=0x001d8d93[0m
0x80002124: 00 1d 8d 93 addi	s11, s11, 1
[1;34m[src/memory/paddr.c:97 mtrace_log] R: 0x80002128 (len=4) data=0xfef48fa3[0m
[1;34m[src/memory/paddr.c:97 mtrace_log] W: 0x80095535 (len=1) data=0x00000073[0m
0x80002128: fe f4 8f a3 sb	a5, -1(s1)
[1;34m[src/memory/paddr.c:97 mtrace_log] R: 0x8000212c (len=4) data=0xfe9718e3[0m
0x8000212c: fe 97 18 e3 bne	a4, s1, -0x10
[1;34m[src/memory/paddr.c:97 mtrace_log] R: 0x8000211c (len=4) data=0x000dc783[0m
[1;34m[src/memory/paddr.c:97 mtrace_log] R: 0x80002935 (len=1) data=0x00000073[0m
0x8000211c: 00 0d c7 83 lbu	a5, 0(s11)
[1;34m[src/memory/paddr.c:97 mtrace_log] R: 0x80002120 (len=4) data=0x00148493[0m
0x80002120: 00 14 84 93 addi	s1, s1, 1
[1;34m[src/memory/paddr.c:97 mtrace_log] R: 0x80002124 (len=4) data=0x001d8d93[0m
0x80002124: 00 1d 8d 93 addi	s11, s11, 1
[1;34m[src/memory/paddr.c:97 mtrace_log] R: 0x80002128 (len=4) data=0xfef48fa3[0m
[1;34m[src/memory/paddr.c:97 mtrace_log] W: 0x80095536 (len=1) data=0x00000073[0m
0x80002128: fe f4 8f a3 sb	a5, -1(s1)
[1;34m[src/memory/paddr.c:97 mtrace_log] R: 0x8000212c (len=4) data=0xfe9718e3[0m
0x8000212c: fe 97 18 e3 bne	a4, s1, -0x10
[1;34m[src/memory/paddr.c:97 mtrace_log] R: 0x8000211c (len=4) data=0x000dc783[0m
[1;34m[src/memory/paddr.c:97 mtrace_log] R: 0x80002936 (len=1) data=0x00000061[0m
0x8000211c: 00 0d c7 83 lbu	a5, 0(s11)
[1;34m[src/memory/paddr.c:97 mtrace_log] R: 0x80002120 (len=4) data=0x00148493[0m
0x80002120: 00 14 84 93 addi	s1, s1, 1
[1;34m[src/memory/paddr.c:97 mtrace_log] R: 0x80002124 (len=4) data=0x001d8d93[0m
0x80002124: 00 1d 8d 93 addi	s11, s11, 1
[1;34m[src/memory/paddr.c:97 mtrace_log] R: 0x80002128 (len=4) data=0xfef48fa3[0m
[1;34m[src/memory/paddr.c:97 mtrace_log] W: 0x80095537 (len=1) data=0x00000061[0m
0x80002128: fe f4 8f a3 sb	a5, -1(s1)
[1;34m[src/memory/paddr.c:97 mtrace_log] R: 0x8000212c (len=4) data=0xfe9718e3[0m
0x8000212c: fe 97 18 e3 bne	a4, s1, -0x10
[1;34m[src/memory/paddr.c:97 mtrace_log] R: 0x8000211c (len=4) data=0x000dc783[0m
[1;34m[src/memory/paddr.c:97 mtrace_log] R: 0x80002937 (len=1) data=0x00000067[0m
0x8000211c: 00 0d c7 83 lbu	a5, 0(s11)
[1;34m[src/memory/paddr.c:97 mtrace_log] R: 0x80002120 (len=4) data=0x00148493[0m
0x80002120: 00 14 84 93 addi	s1, s1, 1
[1;34m[src/memory/paddr.c:97 mtrace_log] R: 0x80002124 (len=4) data=0x001d8d93[0m
0x80002124: 00 1d 8d 93 addi	s11, s11, 1
[1;34m[src/memory/paddr.c:97 mtrace_log] R: 0x80002128 (len=4) data=0xfef48fa3[0m
[1;34m[src/memory/paddr.c:97 mtrace_log] W: 0x80095538 (len=1) data=0x00000067[0m
0x80002128: fe f4 8f a3 sb	a5, -1(s1)
[1;34m[src/memory/paddr.c:97 mtrace_log] R: 0x8000212c (len=4) data=0xfe9718e3[0m
0x8000212c: fe 97 18 e3 bne	a4, s1, -0x10
[1;34m[src/memory/paddr.c:97 mtrace_log] R: 0x8000211c (len=4) data=0x000dc783[0m
[1;34m[src/memory/paddr.c:97 mtrace_log] R: 0x80002938 (len=1) data=0x00000065[0m
0x8000211c: 00 0d c7 83 lbu	a5, 0(s11)
[1;34m[src/memory/paddr.c:97 mtrace_log] R: 0x80002120 (len=4) data=0x00148493[0m
0x80002120: 00 14 84 93 addi	s1, s1, 1
[1;34m[src/memory/paddr.c:97 mtrace_log] R: 0x80002124 (len=4) data=0x001d8d93[0m
0x80002124: 00 1d 8d 93 addi	s11, s11, 1
[1;34m[src/memory/paddr.c:97 mtrace_log] R: 0x80002128 (len=4) data=0xfef48fa3[0m
[1;34m[src/memory/paddr.c:97 mtrace_log] W: 0x80095539 (len=1) data=0x00000065[0m
0x80002128: fe f4 8f a3 sb	a5, -1(s1)
[1;34m[src/memory/paddr.c:97 mtrace_log] R: 0x8000212c (len=4) data=0xfe9718e3[0m
0x8000212c: fe 97 18 e3 bne	a4, s1, -0x10
[1;34m[src/memory/paddr.c:97 mtrace_log] R: 0x80002130 (len=4) data=0x40a684b3[0m
0x80002130: 40 a6 84 b3 sub	s1, a3, a0
[1;34m[src/memory/paddr.c:97 mtrace_log] R: 0x80002134 (len=4) data=0x00140593[0m
0x80002134: 00 14 05 93 addi	a1, s0, 1
[1;34m[src/memory/paddr.c:97 mtrace_log] R: 0x80002138 (len=4) data=0x009704b3[0m
0x80002138: 00 97 04 b3 add	s1, a4, s1
[1;34m[src/memory/paddr.c:97 mtrace_log] R: 0x8000213c (len=4) data=0x02000793[0m
0x8000213c: 02 00 07 93 addi	a5, zero, 0x20
[1;34m[src/memory/paddr.c:97 mtrace_log] R: 0x80002140 (len=4) data=0x16d55663[0m
0x80002140: 16 d5 56 63 bge	a0, a3, 0x16c
[1;34m[src/memory/paddr.c:97 mtrace_log] R: 0x800022ac (len=4) data=0x00144783[0m
[1;34m[src/memory/paddr.c:97 mtrace_log] R: 0x8000291c (len=1) data=0x0000000a[0m
0x800022ac: 00 14 47 83 lbu	a5, 1(s0)
[1;34m[src/memory/paddr.c:97 mtrace_log] R: 0x800022b0 (len=4) data=0x01c12d83[0m
[1;34m[src/memory/paddr.c:97 mtrace_log] R: 0x8009df5c (len=4) data=0x00000000[0m
0x800022b0: 01 c1 2d 83 lw	s11, 0x1c(sp)
[1;34m[src/memory/paddr.c:97 mtrace_log] R: 0x800022b4 (len=4) data=0x00070493[0m
0x800022b4: 00 07 04 93 mv	s1, a4
[1;34m[src/memory/paddr.c:97 mtrace_log] R: 0x800022b8 (len=4) data=0xbc0792e3[0m
0x800022b8: bc 07 92 e3 bnez	a5, -0x43c
[1;34m[src/memory/paddr.c:97 mtrace_log] R: 0x80001e7c (len=4) data=0x05578c63[0m
0x80001e7c: 05 57 8c 63 beq	a5, s5, 0x58
[1;34m[src/memory/paddr.c:97 mtrace_log] R: 0x80001e80 (len=4) data=0x00f48023[0m
[1;34m[src/memory/paddr.c:97 mtrace_log] W: 0x8009553a (len=1) data=0x0000000a[0m
0x80001e80: 00 f4 80 23 sb	a5, 0(s1)
[1;34m[src/memory/paddr.c:97 mtrace_log] R: 0x80001e84 (len=4) data=0x0015c783[0m
[1;34m[src/memory/paddr.c:97 mtrace_log] R: 0x8000291d (len=1) data=0x00000000[0m
0x80001e84: 00 15 c7 83 lbu	a5, 1(a1)
[1;34m[src/memory/paddr.c:97 mtrace_log] R: 0x80001e88 (len=4) data=0x00148493[0m
0x80001e88: 00 14 84 93 addi	s1, s1, 1
[1;34m[src/memory/paddr.c:97 mtrace_log] R: 0x80001e8c (len=4) data=0x00158593[0m
0x80001e8c: 00 15 85 93 addi	a1, a1, 1
[1;34m[src/memory/paddr.c:97 mtrace_log] R: 0x80001e90 (len=4) data=0xfe0796e3[0m
0x80001e90: fe 07 96 e3 bnez	a5, -0x14
[1;34m[src/memory/paddr.c:97 mtrace_log] R: 0x80001e94 (len=4) data=0x04812403[0m
[1;34m[src/memory/paddr.c:97 mtrace_log] R: 0x8009df88 (len=4) data=0x00000048[0m
0x80001e94: 04 81 24 03 lw	s0, 0x48(sp)
[1;34m[src/memory/paddr.c:97 mtrace_log] R: 0x80001e98 (len=4) data=0x04012903[0m
[1;34m[src/memory/paddr.c:97 mtrace_log] R: 0x8009df80 (len=4) data=0x00000100[0m
0x80001e98: 04 01 29 03 lw	s2, 0x40(sp)
[1;34m[src/memory/paddr.c:97 mtrace_log] R: 0x80001e9c (len=4) data=0x03c12983[0m
[1;34m[src/memory/paddr.c:97 mtrace_log] R: 0x8009df7c (len=4) data=0x80002914[0m
0x80001e9c: 03 c1 29 83 lw	s3, 0x3c(sp)
[1;34m[src/memory/paddr.c:97 mtrace_log] R: 0x80001ea0 (len=4) data=0x03812a03[0m
[1;34m[src/memory/paddr.c:97 mtrace_log] R: 0x8009df78 (len=4) data=0x00000000[0m
0x80001ea0: 03 81 2a 03 lw	s4, 0x38(sp)
[1;34m[src/memory/paddr.c:97 mtrace_log] R: 0x80001ea4 (len=4) data=0x03412a83[0m
[1;34m[src/memory/paddr.c:97 mtrace_log] R: 0x8009df74 (len=4) data=0x00000000[0m
0x80001ea4: 03 41 2a 83 lw	s5, 0x34(sp)
[1;34m[src/memory/paddr.c:97 mtrace_log] R: 0x80001ea8 (len=4) data=0x02c12b83[0m
[1;34m[src/memory/paddr.c:97 mtrace_log] R: 0x8009df6c (len=4) data=0x00000000[0m
0x80001ea8: 02 c1 2b 83 lw	s7, 0x2c(sp)
[1;34m[src/memory/paddr.c:97 mtrace_log] R: 0x80001eac (len=4) data=0x02812c03[0m
[1;34m[src/memory/paddr.c:97 mtrace_log] R: 0x8009df68 (len=4) data=0x00000000[0m
0x80001eac: 02 81 2c 03 lw	s8, 0x28(sp)
[1;34m[src/memory/paddr.c:97 mtrace_log] R: 0x80001eb0 (len=4) data=0x02412c83[0m
[1;34m[src/memory/paddr.c:97 mtrace_log] R: 0x8009df64 (len=4) data=0x00000000[0m
0x80001eb0: 02 41 2c 83 lw	s9, 0x24(sp)
[1;34m[src/memory/paddr.c:97 mtrace_log] R: 0x80001eb4 (len=4) data=0x02012d03[0m
[1;34m[src/memory/paddr.c:97 mtrace_log] R: 0x8009df60 (len=4) data=0x00000000[0m
0x80001eb4: 02 01 2d 03 lw	s10, 0x20(sp)
[1;34m[src/memory/paddr.c:97 mtrace_log] R: 0x80001eb8 (len=4) data=0x00048023[0m
[1;34m[src/memory/paddr.c:97 mtrace_log] W: 0x8009553b (len=1) data=0x00000000[0m
0x80001eb8: 00 04 80 23 sb	zero, 0(s1)
[1;34m[src/memory/paddr.c:97 mtrace_log] R: 0x80001ebc (len=4) data=0x04c12083[0m
[1;34m[src/memory/paddr.c:97 mtrace_log] R: 0x8009df8c (len=4) data=0x80002340[0m
0x80001ebc: 04 c1 20 83 lw	ra, 0x4c(sp)
[1;34m[src/memory/paddr.c:97 mtrace_log] R: 0x80001ec0 (len=4) data=0x41648533[0m
0x80001ec0: 41 64 85 33 sub	a0, s1, s6
[1;34m[src/memory/paddr.c:97 mtrace_log] R: 0x80001ec4 (len=4) data=0x04412483[0m
[1;34m[src/memory/paddr.c:97 mtrace_log] R: 0x8009df84 (len=4) data=0x80002e18[0m
0x80001ec4: 04 41 24 83 lw	s1, 0x44(sp)
[1;34m[src/memory/paddr.c:97 mtrace_log] R: 0x80001ec8 (len=4) data=0x03012b03[0m
[1;34m[src/memory/paddr.c:97 mtrace_log] R: 0x8009df70 (len=4) data=0x00000000[0m
0x80001ec8: 03 01 2b 03 lw	s6, 0x30(sp)
[1;34m[src/memory/paddr.c:97 mtrace_log] R: 0x80001ecc (len=4) data=0x05010113[0m
0x80001ecc: 05 01 01 13 addi	sp, sp, 0x50
[1;34m[src/memory/paddr.c:97 mtrace_log] R: 0x80001ed0 (len=4) data=0x00008067[0m
0x80001ed0: 00 00 80 67 ret
[1;34m[src/memory/paddr.c:97 mtrace_log] R: 0x80002340 (len=4) data=0x00093797[0m
0x80002340: 00 09 37 97 auipc	a5, 0x93
[1;34m[src/memory/paddr.c:97 mtrace_log] R: 0x80002344 (len=4) data=0x1dc78793[0m
0x80002344: 1d c7 87 93 addi	a5, a5, 0x1dc
[1;34m[src/memory/paddr.c:97 mtrace_log] R: 0x80002348 (len=4) data=0x0007c703[0m
[1;34m[src/memory/paddr.c:97 mtrace_log] R: 0x8009551c (len=1) data=0x00000020[0m
0x80002348: 00 07 c7 03 lbu	a4, 0(a5)
[1;34m[src/memory/paddr.c:97 mtrace_log] R: 0x8000234c (len=4) data=0x00070e63[0m
0x8000234c: 00 07 0e 63 beqz	a4, 0x1c
[1;34m[src/memory/paddr.c:97 mtrace_log] R: 0x80002350 (len=4) data=0xa00006b7[0m
0x80002350: a0 00 06 b7 lui	a3, 0xa0000
[1;34m[src/memory/paddr.c:97 mtrace_log] R: 0x80002354 (len=4) data=0x3f868693[0m
0x80002354: 3f 86 86 93 addi	a3, a3, 0x3f8
[1;34m[src/memory/paddr.c:97 mtrace_log] R: 0x80002358 (len=4) data=0x00178793[0m
0x80002358: 00 17 87 93 addi	a5, a5, 1
[1;34m[src/memory/paddr.c:97 mtrace_log] R: 0x8000235c (len=4) data=0x00e68023[0m
[1;34m[src/memory/paddr.c:97 mtrace_log] W: 0xa00003f8 (len=1) data=0x00000020[0m
0x8000235c: 00 e6 80 23 sb	a4, 0(a3)
[1;34m[src/memory/paddr.c:97 mtrace_log] R: 0x80002360 (len=4) data=0x0007c703[0m
[1;34m[src/memory/paddr.c:97 mtrace_log] R: 0x8009551d (len=1) data=0x00000020[0m
0x80002360: 00 07 c7 03 lbu	a4, 0(a5)
[1;34m[src/memory/paddr.c:97 mtrace_log] R: 0x80002364 (len=4) data=0xfe071ae3[0m
0x80002364: fe 07 1a e3 bnez	a4, -0xc
[1;34m[src/memory/paddr.c:97 mtrace_log] R: 0x80002358 (len=4) data=0x00178793[0m
0x80002358: 00 17 87 93 addi	a5, a5, 1
[1;34m[src/memory/paddr.c:97 mtrace_log] R: 0x8000235c (len=4) data=0x00e68023[0m
[1;34m[src/memory/paddr.c:97 mtrace_log] W: 0xa00003f8 (len=1) data=0x00000020[0m
0x8000235c: 00 e6 80 23 sb	a4, 0(a3)
[1;34m[src/memory/paddr.c:97 mtrace_log] R: 0x80002360 (len=4) data=0x0007c703[0m
[1;34m[src/memory/paddr.c:97 mtrace_log] R: 0x8009551e (len=1) data=0x00000048[0m
0x80002360: 00 07 c7 03 lbu	a4, 0(a5)
[1;34m[src/memory/paddr.c:97 mtrace_log] R: 0x80002364 (len=4) data=0xfe071ae3[0m
0x80002364: fe 07 1a e3 bnez	a4, -0xc
[1;34m[src/memory/paddr.c:97 mtrace_log] R: 0x80002358 (len=4) data=0x00178793[0m
0x80002358: 00 17 87 93 addi	a5, a5, 1
[1;34m[src/memory/paddr.c:97 mtrace_log] R: 0x8000235c (len=4) data=0x00e68023[0m
[1;34m[src/memory/paddr.c:97 mtrace_log] W: 0xa00003f8 (len=1) data=0x00000048[0m
0x8000235c: 00 e6 80 23 sb	a4, 0(a3)
[1;34m[src/memory/paddr.c:97 mtrace_log] R: 0x80002360 (len=4) data=0x0007c703[0m
[1;34m[src/memory/paddr.c:97 mtrace_log] R: 0x8009551f (len=1) data=0x0000003a[0m
0x80002360: 00 07 c7 03 lbu	a4, 0(a5)
[1;34m[src/memory/paddr.c:97 mtrace_log] R: 0x80002364 (len=4) data=0xfe071ae3[0m
0x80002364: fe 07 1a e3 bnez	a4, -0xc
[1;34m[src/memory/paddr.c:97 mtrace_log] R: 0x80002358 (len=4) data=0x00178793[0m
0x80002358: 00 17 87 93 addi	a5, a5, 1
[1;34m[src/memory/paddr.c:97 mtrace_log] R: 0x8000235c (len=4) data=0x00e68023[0m
[1;34m[src/memory/paddr.c:97 mtrace_log] W: 0xa00003f8 (len=1) data=0x0000003a[0m
0x8000235c: 00 e6 80 23 sb	a4, 0(a3)
[1;34m[src/memory/paddr.c:97 mtrace_log] R: 0x80002360 (len=4) data=0x0007c703[0m
[1;34m[src/memory/paddr.c:97 mtrace_log] R: 0x80095520 (len=1) data=0x00000020[0m
0x80002360: 00 07 c7 03 lbu	a4, 0(a5)
[1;34m[src/memory/paddr.c:97 mtrace_log] R: 0x80002364 (len=4) data=0xfe071ae3[0m
0x80002364: fe 07 1a e3 bnez	a4, -0xc
[1;34m[src/memory/paddr.c:97 mtrace_log] R: 0x80002358 (len=4) data=0x00178793[0m
0x80002358: 00 17 87 93 addi	a5, a5, 1
[1;34m[src/memory/paddr.c:97 mtrace_log] R: 0x8000235c (len=4) data=0x00e68023[0m
[1;34m[src/memory/paddr.c:97 mtrace_log] W: 0xa00003f8 (len=1) data=0x00000020[0m
0x8000235c: 00 e6 80 23 sb	a4, 0(a3)
[1;34m[src/memory/paddr.c:97 mtrace_log] R: 0x80002360 (len=4) data=0x0007c703[0m
[1;34m[src/memory/paddr.c:97 mtrace_log] R: 0x80095521 (len=1) data=0x00000064[0m
0x80002360: 00 07 c7 03 lbu	a4, 0(a5)
[1;34m[src/memory/paddr.c:97 mtrace_log] R: 0x80002364 (len=4) data=0xfe071ae3[0m
0x80002364: fe 07 1a e3 bnez	a4, -0xc
[1;34m[src/memory/paddr.c:97 mtrace_log] R: 0x80002358 (len=4) data=0x00178793[0m
0x80002358: 00 17 87 93 addi	a5, a5, 1
[1;34m[src/memory/paddr.c:97 mtrace_log] R: 0x8000235c (len=4) data=0x00e68023[0m
[1;34m[src/memory/paddr.c:97 mtrace_log] W: 0xa00003f8 (len=1) data=0x00000064[0m
0x8000235c: 00 e6 80 23 sb	a4, 0(a3)
[1;34m[src/memory/paddr.c:97 mtrace_log] R: 0x80002360 (len=4) data=0x0007c703[0m
[1;34m[src/memory/paddr.c:97 mtrace_log] R: 0x80095522 (len=1) data=0x00000069[0m
0x80002360: 00 07 c7 03 lbu	a4, 0(a5)
[1;34m[src/memory/paddr.c:97 mtrace_log] R: 0x80002364 (len=4) data=0xfe071ae3[0m
0x80002364: fe 07 1a e3 bnez	a4, -0xc
[1;34m[src/memory/paddr.c:97 mtrace_log] R: 0x80002358 (len=4) data=0x00178793[0m
0x80002358: 00 17 87 93 addi	a5, a5, 1
[1;34m[src/memory/paddr.c:97 mtrace_log] R: 0x8000235c (len=4) data=0x00e68023[0m
[1;34m[src/memory/paddr.c:97 mtrace_log] W: 0xa00003f8 (len=1) data=0x00000069[0m
0x8000235c: 00 e6 80 23 sb	a4, 0(a3)
[1;34m[src/memory/paddr.c:97 mtrace_log] R: 0x80002360 (len=4) data=0x0007c703[0m
[1;34m[src/memory/paddr.c:97 mtrace_log] R: 0x80095523 (len=1) data=0x00000073[0m
0x80002360: 00 07 c7 03 lbu	a4, 0(a5)
[1;34m[src/memory/paddr.c:97 mtrace_log] R: 0x80002364 (len=4) data=0xfe071ae3[0m
0x80002364: fe 07 1a e3 bnez	a4, -0xc
[1;34m[src/memory/paddr.c:97 mtrace_log] R: 0x80002358 (len=4) data=0x00178793[0m
0x80002358: 00 17 87 93 addi	a5, a5, 1
[1;34m[src/memory/paddr.c:97 mtrace_log] R: 0x8000235c (len=4) data=0x00e68023[0m
[1;34m[src/memory/paddr.c:97 mtrace_log] W: 0xa00003f8 (len=1) data=0x00000073[0m
0x8000235c: 00 e6 80 23 sb	a4, 0(a3)
[1;34m[src/memory/paddr.c:97 mtrace_log] R: 0x80002360 (len=4) data=0x0007c703[0m
[1;34m[src/memory/paddr.c:97 mtrace_log] R: 0x80095524 (len=1) data=0x00000070[0m
0x80002360: 00 07 c7 03 lbu	a4, 0(a5)
[1;34m[src/memory/paddr.c:97 mtrace_log] R: 0x80002364 (len=4) data=0xfe071ae3[0m
0x80002364: fe 07 1a e3 bnez	a4, -0xc
[1;34m[src/memory/paddr.c:97 mtrace_log] R: 0x80002358 (len=4) data=0x00178793[0m
0x80002358: 00 17 87 93 addi	a5, a5, 1
[1;34m[src/memory/paddr.c:97 mtrace_log] R: 0x8000235c (len=4) data=0x00e68023[0m
[1;34m[src/memory/paddr.c:97 mtrace_log] W: 0xa00003f8 (len=1) data=0x00000070[0m
0x8000235c: 00 e6 80 23 sb	a4, 0(a3)
[1;34m[src/memory/paddr.c:97 mtrace_log] R: 0x80002360 (len=4) data=0x0007c703[0m
[1;34m[src/memory/paddr.c:97 mtrace_log] R: 0x80095525 (len=1) data=0x0000006c[0m
0x80002360: 00 07 c7 03 lbu	a4, 0(a5)
[1;34m[src/memory/paddr.c:97 mtrace_log] R: 0x80002364 (len=4) data=0xfe071ae3[0m
0x80002364: fe 07 1a e3 bnez	a4, -0xc
[1;34m[src/memory/paddr.c:97 mtrace_log] R: 0x80002358 (len=4) data=0x00178793[0m
0x80002358: 00 17 87 93 addi	a5, a5, 1
[1;34m[src/memory/paddr.c:97 mtrace_log] R: 0x8000235c (len=4) data=0x00e68023[0m
[1;34m[src/memory/paddr.c:97 mtrace_log] W: 0xa00003f8 (len=1) data=0x0000006c[0m
0x8000235c: 00 e6 80 23 sb	a4, 0(a3)
[1;34m[src/memory/paddr.c:97 mtrace_log] R: 0x80002360 (len=4) data=0x0007c703[0m
[1;34m[src/memory/paddr.c:97 mtrace_log] R: 0x80095526 (len=1) data=0x00000061[0m
0x80002360: 00 07 c7 03 lbu	a4, 0(a5)
[1;34m[src/memory/paddr.c:97 mtrace_log] R: 0x80002364 (len=4) data=0xfe071ae3[0m
0x80002364: fe 07 1a e3 bnez	a4, -0xc
[1;34m[src/memory/paddr.c:97 mtrace_log] R: 0x80002358 (len=4) data=0x00178793[0m
0x80002358: 00 17 87 93 addi	a5, a5, 1
[1;34m[src/memory/paddr.c:97 mtrace_log] R: 0x8000235c (len=4) data=0x00e68023[0m
[1;34m[src/memory/paddr.c:97 mtrace_log] W: 0xa00003f8 (len=1) data=0x00000061[0m
0x8000235c: 00 e6 80 23 sb	a4, 0(a3)
[1;34m[src/memory/paddr.c:97 mtrace_log] R: 0x80002360 (len=4) data=0x0007c703[0m
[1;34m[src/memory/paddr.c:97 mtrace_log] R: 0x80095527 (len=1) data=0x00000079[0m
0x80002360: 00 07 c7 03 lbu	a4, 0(a5)
[1;34m[src/memory/paddr.c:97 mtrace_log] R: 0x80002364 (len=4) data=0xfe071ae3[0m
0x80002364: fe 07 1a e3 bnez	a4, -0xc
[1;34m[src/memory/paddr.c:97 mtrace_log] R: 0x80002358 (len=4) data=0x00178793[0m
0x80002358: 00 17 87 93 addi	a5, a5, 1
[1;34m[src/memory/paddr.c:97 mtrace_log] R: 0x8000235c (len=4) data=0x00e68023[0m
[1;34m[src/memory/paddr.c:97 mtrace_log] W: 0xa00003f8 (len=1) data=0x00000079[0m
0x8000235c: 00 e6 80 23 sb	a4, 0(a3)
[1;34m[src/memory/paddr.c:97 mtrace_log] R: 0x80002360 (len=4) data=0x0007c703[0m
[1;34m[src/memory/paddr.c:97 mtrace_log] R: 0x80095528 (len=1) data=0x00000020[0m
0x80002360: 00 07 c7 03 lbu	a4, 0(a5)
[1;34m[src/memory/paddr.c:97 mtrace_log] R: 0x80002364 (len=4) data=0xfe071ae3[0m
0x80002364: fe 07 1a e3 bnez	a4, -0xc
[1;34m[src/memory/paddr.c:97 mtrace_log] R: 0x80002358 (len=4) data=0x00178793[0m
0x80002358: 00 17 87 93 addi	a5, a5, 1
[1;34m[src/memory/paddr.c:97 mtrace_log] R: 0x8000235c (len=4) data=0x00e68023[0m
[1;34m[src/memory/paddr.c:97 mtrace_log] W: 0xa00003f8 (len=1) data=0x00000020[0m
0x8000235c: 00 e6 80 23 sb	a4, 0(a3)
[1;34m[src/memory/paddr.c:97 mtrace_log] R: 0x80002360 (len=4) data=0x0007c703[0m
[1;34m[src/memory/paddr.c:97 mtrace_log] R: 0x80095529 (len=1) data=0x00000074[0m
0x80002360: 00 07 c7 03 lbu	a4, 0(a5)
[1;34m[src/memory/paddr.c:97 mtrace_log] R: 0x80002364 (len=4) data=0xfe071ae3[0m
0x80002364: fe 07 1a e3 bnez	a4, -0xc
[1;34m[src/memory/paddr.c:97 mtrace_log] R: 0x80002358 (len=4) data=0x00178793[0m
0x80002358: 00 17 87 93 addi	a5, a5, 1
[1;34m[src/memory/paddr.c:97 mtrace_log] R: 0x8000235c (len=4) data=0x00e68023[0m
[1;34m[src/memory/paddr.c:97 mtrace_log] W: 0xa00003f8 (len=1) data=0x00000074[0m
0x8000235c: 00 e6 80 23 sb	a4, 0(a3)
[1;34m[src/memory/paddr.c:97 mtrace_log] R: 0x80002360 (len=4) data=0x0007c703[0m
[1;34m[src/memory/paddr.c:97 mtrace_log] R: 0x8009552a (len=1) data=0x00000068[0m
0x80002360: 00 07 c7 03 lbu	a4, 0(a5)
[1;34m[src/memory/paddr.c:97 mtrace_log] R: 0x80002364 (len=4) data=0xfe071ae3[0m
0x80002364: fe 07 1a e3 bnez	a4, -0xc
[1;34m[src/memory/paddr.c:97 mtrace_log] R: 0x80002358 (len=4) data=0x00178793[0m
0x80002358: 00 17 87 93 addi	a5, a5, 1
[1;34m[src/memory/paddr.c:97 mtrace_log] R: 0x8000235c (len=4) data=0x00e68023[0m
[1;34m[src/memory/paddr.c:97 mtrace_log] W: 0xa00003f8 (len=1) data=0x00000068[0m
0x8000235c: 00 e6 80 23 sb	a4, 0(a3)
[1;34m[src/memory/paddr.c:97 mtrace_log] R: 0x80002360 (len=4) data=0x0007c703[0m
[1;34m[src/memory/paddr.c:97 mtrace_log] R: 0x8009552b (len=1) data=0x00000069[0m
0x80002360: 00 07 c7 03 lbu	a4, 0(a5)
[1;34m[src/memory/paddr.c:97 mtrace_log] R: 0x80002364 (len=4) data=0xfe071ae3[0m
0x80002364: fe 07 1a e3 bnez	a4, -0xc
[1;34m[src/memory/paddr.c:97 mtrace_log] R: 0x80002358 (len=4) data=0x00178793[0m
0x80002358: 00 17 87 93 addi	a5, a5, 1
[1;34m[src/memory/paddr.c:97 mtrace_log] R: 0x8000235c (len=4) data=0x00e68023[0m
[1;34m[src/memory/paddr.c:97 mtrace_log] W: 0xa00003f8 (len=1) data=0x00000069[0m
0x8000235c: 00 e6 80 23 sb	a4, 0(a3)
[1;34m[src/memory/paddr.c:97 mtrace_log] R: 0x80002360 (len=4) data=0x0007c703[0m
[1;34m[src/memory/paddr.c:97 mtrace_log] R: 0x8009552c (len=1) data=0x00000073[0m
0x80002360: 00 07 c7 03 lbu	a4, 0(a5)
[1;34m[src/memory/paddr.c:97 mtrace_log] R: 0x80002364 (len=4) data=0xfe071ae3[0m
0x80002364: fe 07 1a e3 bnez	a4, -0xc
[1;34m[src/memory/paddr.c:97 mtrace_log] R: 0x80002358 (len=4) data=0x00178793[0m
0x80002358: 00 17 87 93 addi	a5, a5, 1
[1;34m[src/memory/paddr.c:97 mtrace_log] R: 0x8000235c (len=4) data=0x00e68023[0m
[1;34m[src/memory/paddr.c:97 mtrace_log] W: 0xa00003f8 (len=1) data=0x00000073[0m
0x8000235c: 00 e6 80 23 sb	a4, 0(a3)
[1;34m[src/memory/paddr.c:97 mtrace_log] R: 0x80002360 (len=4) data=0x0007c703[0m
[1;34m[src/memory/paddr.c:97 mtrace_log] R: 0x8009552d (len=1) data=0x00000020[0m
0x80002360: 00 07 c7 03 lbu	a4, 0(a5)
[1;34m[src/memory/paddr.c:97 mtrace_log] R: 0x80002364 (len=4) data=0xfe071ae3[0m
0x80002364: fe 07 1a e3 bnez	a4, -0xc
[1;34m[src/memory/paddr.c:97 mtrace_log] R: 0x80002358 (len=4) data=0x00178793[0m
0x80002358: 00 17 87 93 addi	a5, a5, 1
[1;34m[src/memory/paddr.c:97 mtrace_log] R: 0x8000235c (len=4) data=0x00e68023[0m
[1;34m[src/memory/paddr.c:97 mtrace_log] W: 0xa00003f8 (len=1) data=0x00000020[0m
0x8000235c: 00 e6 80 23 sb	a4, 0(a3)
[1;34m[src/memory/paddr.c:97 mtrace_log] R: 0x80002360 (len=4) data=0x0007c703[0m
[1;34m[src/memory/paddr.c:97 mtrace_log] R: 0x8009552e (len=1) data=0x00000068[0m
0x80002360: 00 07 c7 03 lbu	a4, 0(a5)
[1;34m[src/memory/paddr.c:97 mtrace_log] R: 0x80002364 (len=4) data=0xfe071ae3[0m
0x80002364: fe 07 1a e3 bnez	a4, -0xc
[1;34m[src/memory/paddr.c:97 mtrace_log] R: 0x80002358 (len=4) data=0x00178793[0m
0x80002358: 00 17 87 93 addi	a5, a5, 1
[1;34m[src/memory/paddr.c:97 mtrace_log] R: 0x8000235c (len=4) data=0x00e68023[0m
[1;34m[src/memory/paddr.c:97 mtrace_log] W: 0xa00003f8 (len=1) data=0x00000068[0m
0x8000235c: 00 e6 80 23 sb	a4, 0(a3)
[1;34m[src/memory/paddr.c:97 mtrace_log] R: 0x80002360 (len=4) data=0x0007c703[0m
[1;34m[src/memory/paddr.c:97 mtrace_log] R: 0x8009552f (len=1) data=0x00000065[0m
0x80002360: 00 07 c7 03 lbu	a4, 0(a5)
[1;34m[src/memory/paddr.c:97 mtrace_log] R: 0x80002364 (len=4) data=0xfe071ae3[0m
0x80002364: fe 07 1a e3 bnez	a4, -0xc
[1;34m[src/memory/paddr.c:97 mtrace_log] R: 0x80002358 (len=4) data=0x00178793[0m
0x80002358: 00 17 87 93 addi	a5, a5, 1
[1;34m[src/memory/paddr.c:97 mtrace_log] R: 0x8000235c (len=4) data=0x00e68023[0m
[1;34m[src/memory/paddr.c:97 mtrace_log] W: 0xa00003f8 (len=1) data=0x00000065[0m
0x8000235c: 00 e6 80 23 sb	a4, 0(a3)
[1;34m[src/memory/paddr.c:97 mtrace_log] R: 0x80002360 (len=4) data=0x0007c703[0m
[1;34m[src/memory/paddr.c:97 mtrace_log] R: 0x80095530 (len=1) data=0x0000006c[0m
0x80002360: 00 07 c7 03 lbu	a4, 0(a5)
[1;34m[src/memory/paddr.c:97 mtrace_log] R: 0x80002364 (len=4) data=0xfe071ae3[0m
0x80002364: fe 07 1a e3 bnez	a4, -0xc
[1;34m[src/memory/paddr.c:97 mtrace_log] R: 0x80002358 (len=4) data=0x00178793[0m
0x80002358: 00 17 87 93 addi	a5, a5, 1
[1;34m[src/memory/paddr.c:97 mtrace_log] R: 0x8000235c (len=4) data=0x00e68023[0m
[1;34m[src/memory/paddr.c:97 mtrace_log] W: 0xa00003f8 (len=1) data=0x0000006c[0m
0x8000235c: 00 e6 80 23 sb	a4, 0(a3)
[1;34m[src/memory/paddr.c:97 mtrace_log] R: 0x80002360 (len=4) data=0x0007c703[0m
[1;34m[src/memory/paddr.c:97 mtrace_log] R: 0x80095531 (len=1) data=0x00000070[0m
0x80002360: 00 07 c7 03 lbu	a4, 0(a5)
[1;34m[src/memory/paddr.c:97 mtrace_log] R: 0x80002364 (len=4) data=0xfe071ae3[0m
0x80002364: fe 07 1a e3 bnez	a4, -0xc
[1;34m[src/memory/paddr.c:97 mtrace_log] R: 0x80002358 (len=4) data=0x00178793[0m
0x80002358: 00 17 87 93 addi	a5, a5, 1
[1;34m[src/memory/paddr.c:97 mtrace_log] R: 0x8000235c (len=4) data=0x00e68023[0m
[1;34m[src/memory/paddr.c:97 mtrace_log] W: 0xa00003f8 (len=1) data=0x00000070[0m
0x8000235c: 00 e6 80 23 sb	a4, 0(a3)
[1;34m[src/memory/paddr.c:97 mtrace_log] R: 0x80002360 (len=4) data=0x0007c703[0m
[1;34m[src/memory/paddr.c:97 mtrace_log] R: 0x80095532 (len=1) data=0x00000020[0m
0x80002360: 00 07 c7 03 lbu	a4, 0(a5)
[1;34m[src/memory/paddr.c:97 mtrace_log] R: 0x80002364 (len=4) data=0xfe071ae3[0m
0x80002364: fe 07 1a e3 bnez	a4, -0xc
[1;34m[src/memory/paddr.c:97 mtrace_log] R: 0x80002358 (len=4) data=0x00178793[0m
0x80002358: 00 17 87 93 addi	a5, a5, 1
[1;34m[src/memory/paddr.c:97 mtrace_log] R: 0x8000235c (len=4) data=0x00e68023[0m
[1;34m[src/memory/paddr.c:97 mtrace_log] W: 0xa00003f8 (len=1) data=0x00000020[0m
0x8000235c: 00 e6 80 23 sb	a4, 0(a3)
[1;34m[src/memory/paddr.c:97 mtrace_log] R: 0x80002360 (len=4) data=0x0007c703[0m
[1;34m[src/memory/paddr.c:97 mtrace_log] R: 0x80095533 (len=1) data=0x0000006d[0m
0x80002360: 00 07 c7 03 lbu	a4, 0(a5)
[1;34m[src/memory/paddr.c:97 mtrace_log] R: 0x80002364 (len=4) data=0xfe071ae3[0m
0x80002364: fe 07 1a e3 bnez	a4, -0xc
[1;34m[src/memory/paddr.c:97 mtrace_log] R: 0x80002358 (len=4) data=0x00178793[0m
0x80002358: 00 17 87 93 addi	a5, a5, 1
[1;34m[src/memory/paddr.c:97 mtrace_log] R: 0x8000235c (len=4) data=0x00e68023[0m
[1;34m[src/memory/paddr.c:97 mtrace_log] W: 0xa00003f8 (len=1) data=0x0000006d[0m
0x8000235c: 00 e6 80 23 sb	a4, 0(a3)
[1;34m[src/memory/paddr.c:97 mtrace_log] R: 0x80002360 (len=4) data=0x0007c703[0m
[1;34m[src/memory/paddr.c:97 mtrace_log] R: 0x80095534 (len=1) data=0x00000065[0m
0x80002360: 00 07 c7 03 lbu	a4, 0(a5)
[1;34m[src/memory/paddr.c:97 mtrace_log] R: 0x80002364 (len=4) data=0xfe071ae3[0m
0x80002364: fe 07 1a e3 bnez	a4, -0xc
[1;34m[src/memory/paddr.c:97 mtrace_log] R: 0x80002358 (len=4) data=0x00178793[0m
0x80002358: 00 17 87 93 addi	a5, a5, 1
[1;34m[src/memory/paddr.c:97 mtrace_log] R: 0x8000235c (len=4) data=0x00e68023[0m
[1;34m[src/memory/paddr.c:97 mtrace_log] W: 0xa00003f8 (len=1) data=0x00000065[0m
0x8000235c: 00 e6 80 23 sb	a4, 0(a3)
[1;34m[src/memory/paddr.c:97 mtrace_log] R: 0x80002360 (len=4) data=0x0007c703[0m
[1;34m[src/memory/paddr.c:97 mtrace_log] R: 0x80095535 (len=1) data=0x00000073[0m
0x80002360: 00 07 c7 03 lbu	a4, 0(a5)
[1;34m[src/memory/paddr.c:97 mtrace_log] R: 0x80002364 (len=4) data=0xfe071ae3[0m
0x80002364: fe 07 1a e3 bnez	a4, -0xc
[1;34m[src/memory/paddr.c:97 mtrace_log] R: 0x80002358 (len=4) data=0x00178793[0m
0x80002358: 00 17 87 93 addi	a5, a5, 1
[1;34m[src/memory/paddr.c:97 mtrace_log] R: 0x8000235c (len=4) data=0x00e68023[0m
[1;34m[src/memory/paddr.c:97 mtrace_log] W: 0xa00003f8 (len=1) data=0x00000073[0m
0x8000235c: 00 e6 80 23 sb	a4, 0(a3)
[1;34m[src/memory/paddr.c:97 mtrace_log] R: 0x80002360 (len=4) data=0x0007c703[0m
[1;34m[src/memory/paddr.c:97 mtrace_log] R: 0x80095536 (len=1) data=0x00000073[0m
0x80002360: 00 07 c7 03 lbu	a4, 0(a5)
[1;34m[src/memory/paddr.c:97 mtrace_log] R: 0x80002364 (len=4) data=0xfe071ae3[0m
0x80002364: fe 07 1a e3 bnez	a4, -0xc
[1;34m[src/memory/paddr.c:97 mtrace_log] R: 0x80002358 (len=4) data=0x00178793[0m
0x80002358: 00 17 87 93 addi	a5, a5, 1
[1;34m[src/memory/paddr.c:97 mtrace_log] R: 0x8000235c (len=4) data=0x00e68023[0m
[1;34m[src/memory/paddr.c:97 mtrace_log] W: 0xa00003f8 (len=1) data=0x00000073[0m
0x8000235c: 00 e6 80 23 sb	a4, 0(a3)
[1;34m[src/memory/paddr.c:97 mtrace_log] R: 0x80002360 (len=4) data=0x0007c703[0m
[1;34m[src/memory/paddr.c:97 mtrace_log] R: 0x80095537 (len=1) data=0x00000061[0m
0x80002360: 00 07 c7 03 lbu	a4, 0(a5)
[1;34m[src/memory/paddr.c:97 mtrace_log] R: 0x80002364 (len=4) data=0xfe071ae3[0m
0x80002364: fe 07 1a e3 bnez	a4, -0xc
[1;34m[src/memory/paddr.c:97 mtrace_log] R: 0x80002358 (len=4) data=0x00178793[0m
0x80002358: 00 17 87 93 addi	a5, a5, 1
[1;34m[src/memory/paddr.c:97 mtrace_log] R: 0x8000235c (len=4) data=0x00e68023[0m
[1;34m[src/memory/paddr.c:97 mtrace_log] W: 0xa00003f8 (len=1) data=0x00000061[0m
0x8000235c: 00 e6 80 23 sb	a4, 0(a3)
[1;34m[src/memory/paddr.c:97 mtrace_log] R: 0x80002360 (len=4) data=0x0007c703[0m
[1;34m[src/memory/paddr.c:97 mtrace_log] R: 0x80095538 (len=1) data=0x00000067[0m
0x80002360: 00 07 c7 03 lbu	a4, 0(a5)
[1;34m[src/memory/paddr.c:97 mtrace_log] R: 0x80002364 (len=4) data=0xfe071ae3[0m
0x80002364: fe 07 1a e3 bnez	a4, -0xc
[1;34m[src/memory/paddr.c:97 mtrace_log] R: 0x80002358 (len=4) data=0x00178793[0m
0x80002358: 00 17 87 93 addi	a5, a5, 1
[1;34m[src/memory/paddr.c:97 mtrace_log] R: 0x8000235c (len=4) data=0x00e68023[0m
[1;34m[src/memory/paddr.c:97 mtrace_log] W: 0xa00003f8 (len=1) data=0x00000067[0m
0x8000235c: 00 e6 80 23 sb	a4, 0(a3)
[1;34m[src/memory/paddr.c:97 mtrace_log] R: 0x80002360 (len=4) data=0x0007c703[0m
[1;34m[src/memory/paddr.c:97 mtrace_log] R: 0x80095539 (len=1) data=0x00000065[0m
0x80002360: 00 07 c7 03 lbu	a4, 0(a5)
[1;34m[src/memory/paddr.c:97 mtrace_log] R: 0x80002364 (len=4) data=0xfe071ae3[0m
0x80002364: fe 07 1a e3 bnez	a4, -0xc
[1;34m[src/memory/paddr.c:97 mtrace_log] R: 0x80002358 (len=4) data=0x00178793[0m
0x80002358: 00 17 87 93 addi	a5, a5, 1
[1;34m[src/memory/paddr.c:97 mtrace_log] R: 0x8000235c (len=4) data=0x00e68023[0m
[1;34m[src/memory/paddr.c:97 mtrace_log] W: 0xa00003f8 (len=1) data=0x00000065[0m
0x8000235c: 00 e6 80 23 sb	a4, 0(a3)
[1;34m[src/memory/paddr.c:97 mtrace_log] R: 0x80002360 (len=4) data=0x0007c703[0m
[1;34m[src/memory/paddr.c:97 mtrace_log] R: 0x8009553a (len=1) data=0x0000000a[0m
0x80002360: 00 07 c7 03 lbu	a4, 0(a5)
[1;34m[src/memory/paddr.c:97 mtrace_log] R: 0x80002364 (len=4) data=0xfe071ae3[0m
0x80002364: fe 07 1a e3 bnez	a4, -0xc
[1;34m[src/memory/paddr.c:97 mtrace_log] R: 0x80002358 (len=4) data=0x00178793[0m
0x80002358: 00 17 87 93 addi	a5, a5, 1
[1;34m[src/memory/paddr.c:97 mtrace_log] R: 0x8000235c (len=4) data=0x00e68023[0m
[1;34m[src/memory/paddr.c:97 mtrace_log] W: 0xa00003f8 (len=1) data=0x0000000a[0m
0x8000235c: 00 e6 80 23 sb	a4, 0(a3)
[1;34m[src/memory/paddr.c:97 mtrace_log] R: 0x80002360 (len=4) data=0x0007c703[0m
[1;34m[src/memory/paddr.c:97 mtrace_log] R: 0x8009553b (len=1) data=0x00000000[0m
0x80002360: 00 07 c7 03 lbu	a4, 0(a5)
[1;34m[src/memory/paddr.c:97 mtrace_log] R: 0x80002364 (len=4) data=0xfe071ae3[0m
0x80002364: fe 07 1a e3 bnez	a4, -0xc
[1;34m[src/memory/paddr.c:97 mtrace_log] R: 0x80002368 (len=4) data=0x01c12083[0m
[1;34m[src/memory/paddr.c:97 mtrace_log] R: 0x8009dfac (len=4) data=0x80000e90[0m
0x80002368: 01 c1 20 83 lw	ra, 0x1c(sp)
[1;34m[src/memory/paddr.c:97 mtrace_log] R: 0x8000236c (len=4) data=0x04010113[0m
0x8000236c: 04 01 01 13 addi	sp, sp, 0x40
[1;34m[src/memory/paddr.c:97 mtrace_log] R: 0x80002370 (len=4) data=0x00008067[0m
0x80002370: 00 00 80 67 ret
[1;34m[src/memory/paddr.c:97 mtrace_log] R: 0x80000e90 (len=4) data=0x00140413[0m
0x80000e90: 00 14 04 13 addi	s0, s0, 1
[1;34m[src/memory/paddr.c:97 mtrace_log] R: 0x80000e94 (len=4) data=0x00448493[0m
0x80000e94: 00 44 84 93 addi	s1, s1, 4
[1;34m[src/memory/paddr.c:97 mtrace_log] R: 0x80000e98 (len=4) data=0xff2412e3[0m
0x80000e98: ff 24 12 e3 bne	s0, s2, -0x1c
[1;34m[src/memory/paddr.c:97 mtrace_log] R: 0x80000e7c (len=4) data=0x0004a603[0m
[1;34m[src/memory/paddr.c:97 mtrace_log] R: 0x80002e1c (len=4) data=0x00000000[0m
0x80000e7c: 00 04 a6 03 lw	a2, 0(s1)
[1;34m[src/memory/paddr.c:97 mtrace_log] R: 0x80000e80 (len=4) data=0x00060863[0m
0x80000e80: 00 06 08 63 beqz	a2, 0x10
[1;34m[src/memory/paddr.c:97 mtrace_log] R: 0x80000e90 (len=4) data=0x00140413[0m
0x80000e90: 00 14 04 13 addi	s0, s0, 1
[1;34m[src/memory/paddr.c:97 mtrace_log] R: 0x80000e94 (len=4) data=0x00448493[0m
0x80000e94: 00 44 84 93 addi	s1, s1, 4
[1;34m[src/memory/paddr.c:97 mtrace_log] R: 0x80000e98 (len=4) data=0xff2412e3[0m
0x80000e98: ff 24 12 e3 bne	s0, s2, -0x1c
[1;34m[src/memory/paddr.c:97 mtrace_log] R: 0x80000e7c (len=4) data=0x0004a603[0m
[1;34m[src/memory/paddr.c:97 mtrace_log] R: 0x80002e20 (len=4) data=0x00000000[0m
0x80000e7c: 00 04 a6 03 lw	a2, 0(s1)
[1;34m[src/memory/paddr.c:97 mtrace_log] R: 0x80000e80 (len=4) data=0x00060863[0m
0x80000e80: 00 06 08 63 beqz	a2, 0x10
[1;34m[src/memory/paddr.c:97 mtrace_log] R: 0x80000e90 (len=4) data=0x00140413[0m
0x80000e90: 00 14 04 13 addi	s0, s0, 1
[1;34m[src/memory/paddr.c:97 mtrace_log] R: 0x80000e94 (len=4) data=0x00448493[0m
0x80000e94: 00 44 84 93 addi	s1, s1, 4
[1;34m[src/memory/paddr.c:97 mtrace_log] R: 0x80000e98 (len=4) data=0xff2412e3[0m
0x80000e98: ff 24 12 e3 bne	s0, s2, -0x1c
[1;34m[src/memory/paddr.c:97 mtrace_log] R: 0x80000e7c (len=4) data=0x0004a603[0m
[1;34m[src/memory/paddr.c:97 mtrace_log] R: 0x80002e24 (len=4) data=0x00000000[0m
0x80000e7c: 00 04 a6 03 lw	a2, 0(s1)
[1;34m[src/memory/paddr.c:97 mtrace_log] R: 0x80000e80 (len=4) data=0x00060863[0m
0x80000e80: 00 06 08 63 beqz	a2, 0x10
[1;34m[src/memory/paddr.c:97 mtrace_log] R: 0x80000e90 (len=4) data=0x00140413[0m
0x80000e90: 00 14 04 13 addi	s0, s0, 1
[1;34m[src/memory/paddr.c:97 mtrace_log] R: 0x80000e94 (len=4) data=0x00448493[0m
0x80000e94: 00 44 84 93 addi	s1, s1, 4
[1;34m[src/memory/paddr.c:97 mtrace_log] R: 0x80000e98 (len=4) data=0xff2412e3[0m
0x80000e98: ff 24 12 e3 bne	s0, s2, -0x1c
[1;34m[src/memory/paddr.c:97 mtrace_log] R: 0x80000e7c (len=4) data=0x0004a603[0m
[1;34m[src/memory/paddr.c:97 mtrace_log] R: 0x80002e28 (len=4) data=0x00000000[0m
0x80000e7c: 00 04 a6 03 lw	a2, 0(s1)
[1;34m[src/memory/paddr.c:97 mtrace_log] R: 0x80000e80 (len=4) data=0x00060863[0m
0x80000e80: 00 06 08 63 beqz	a2, 0x10
[1;34m[src/memory/paddr.c:97 mtrace_log] R: 0x80000e90 (len=4) data=0x00140413[0m
0x80000e90: 00 14 04 13 addi	s0, s0, 1
[1;34m[src/memory/paddr.c:97 mtrace_log] R: 0x80000e94 (len=4) data=0x00448493[0m
0x80000e94: 00 44 84 93 addi	s1, s1, 4
[1;34m[src/memory/paddr.c:97 mtrace_log] R: 0x80000e98 (len=4) data=0xff2412e3[0m
0x80000e98: ff 24 12 e3 bne	s0, s2, -0x1c
[1;34m[src/memory/paddr.c:97 mtrace_log] R: 0x80000e7c (len=4) data=0x0004a603[0m
[1;34m[src/memory/paddr.c:97 mtrace_log] R: 0x80002e2c (len=4) data=0x00000000[0m
0x80000e7c: 00 04 a6 03 lw	a2, 0(s1)
[1;34m[src/memory/paddr.c:97 mtrace_log] R: 0x80000e80 (len=4) data=0x00060863[0m
0x80000e80: 00 06 08 63 beqz	a2, 0x10
[1;34m[src/memory/paddr.c:97 mtrace_log] R: 0x80000e90 (len=4) data=0x00140413[0m
0x80000e90: 00 14 04 13 addi	s0, s0, 1
[1;34m[src/memory/paddr.c:97 mtrace_log] R: 0x80000e94 (len=4) data=0x00448493[0m
0x80000e94: 00 44 84 93 addi	s1, s1, 4
[1;34m[src/memory/paddr.c:97 mtrace_log] R: 0x80000e98 (len=4) data=0xff2412e3[0m
0x80000e98: ff 24 12 e3 bne	s0, s2, -0x1c
[1;34m[src/memory/paddr.c:97 mtrace_log] R: 0x80000e7c (len=4) data=0x0004a603[0m
[1;34m[src/memory/paddr.c:97 mtrace_log] R: 0x80002e30 (len=4) data=0x00000000[0m
0x80000e7c: 00 04 a6 03 lw	a2, 0(s1)
[1;34m[src/memory/paddr.c:97 mtrace_log] R: 0x80000e80 (len=4) data=0x00060863[0m
0x80000e80: 00 06 08 63 beqz	a2, 0x10
[1;34m[src/memory/paddr.c:97 mtrace_log] R: 0x80000e90 (len=4) data=0x00140413[0m
0x80000e90: 00 14 04 13 addi	s0, s0, 1
[1;34m[src/memory/paddr.c:97 mtrace_log] R: 0x80000e94 (len=4) data=0x00448493[0m
0x80000e94: 00 44 84 93 addi	s1, s1, 4
[1;34m[src/memory/paddr.c:97 mtrace_log] R: 0x80000e98 (len=4) data=0xff2412e3[0m
0x80000e98: ff 24 12 e3 bne	s0, s2, -0x1c
[1;34m[src/memory/paddr.c:97 mtrace_log] R: 0x80000e7c (len=4) data=0x0004a603[0m
[1;34m[src/memory/paddr.c:97 mtrace_log] R: 0x80002e34 (len=4) data=0x00000000[0m
0x80000e7c: 00 04 a6 03 lw	a2, 0(s1)
[1;34m[src/memory/paddr.c:97 mtrace_log] R: 0x80000e80 (len=4) data=0x00060863[0m
0x80000e80: 00 06 08 63 beqz	a2, 0x10
[1;34m[src/memory/paddr.c:97 mtrace_log] R: 0x80000e90 (len=4) data=0x00140413[0m
0x80000e90: 00 14 04 13 addi	s0, s0, 1
[1;34m[src/memory/paddr.c:97 mtrace_log] R: 0x80000e94 (len=4) data=0x00448493[0m
0x80000e94: 00 44 84 93 addi	s1, s1, 4
[1;34m[src/memory/paddr.c:97 mtrace_log] R: 0x80000e98 (len=4) data=0xff2412e3[0m
0x80000e98: ff 24 12 e3 bne	s0, s2, -0x1c
[1;34m[src/memory/paddr.c:97 mtrace_log] R: 0x80000e7c (len=4) data=0x0004a603[0m
[1;34m[src/memory/paddr.c:97 mtrace_log] R: 0x80002e38 (len=4) data=0x00000000[0m
0x80000e7c: 00 04 a6 03 lw	a2, 0(s1)
[1;34m[src/memory/paddr.c:97 mtrace_log] R: 0x80000e80 (len=4) data=0x00060863[0m
0x80000e80: 00 06 08 63 beqz	a2, 0x10
[1;34m[src/memory/paddr.c:97 mtrace_log] R: 0x80000e90 (len=4) data=0x00140413[0m
0x80000e90: 00 14 04 13 addi	s0, s0, 1
[1;34m[src/memory/paddr.c:97 mtrace_log] R: 0x80000e94 (len=4) data=0x00448493[0m
0x80000e94: 00 44 84 93 addi	s1, s1, 4
[1;34m[src/memory/paddr.c:97 mtrace_log] R: 0x80000e98 (len=4) data=0xff2412e3[0m
0x80000e98: ff 24 12 e3 bne	s0, s2, -0x1c
[1;34m[src/memory/paddr.c:97 mtrace_log] R: 0x80000e7c (len=4) data=0x0004a603[0m
[1;34m[src/memory/paddr.c:97 mtrace_log] R: 0x80002e3c (len=4) data=0x00000000[0m
0x80000e7c: 00 04 a6 03 lw	a2, 0(s1)
[1;34m[src/memory/paddr.c:97 mtrace_log] R: 0x80000e80 (len=4) data=0x00060863[0m
0x80000e80: 00 06 08 63 beqz	a2, 0x10
[1;34m[src/memory/paddr.c:97 mtrace_log] R: 0x80000e90 (len=4) data=0x00140413[0m
0x80000e90: 00 14 04 13 addi	s0, s0, 1
[1;34m[src/memory/paddr.c:97 mtrace_log] R: 0x80000e94 (len=4) data=0x00448493[0m
0x80000e94: 00 44 84 93 addi	s1, s1, 4
[1;34m[src/memory/paddr.c:97 mtrace_log] R: 0x80000e98 (len=4) data=0xff2412e3[0m
0x80000e98: ff 24 12 e3 bne	s0, s2, -0x1c
[1;34m[src/memory/paddr.c:97 mtrace_log] R: 0x80000e7c (len=4) data=0x0004a603[0m
[1;34m[src/memory/paddr.c:97 mtrace_log] R: 0x80002e40 (len=4) data=0x00000000[0m
0x80000e7c: 00 04 a6 03 lw	a2, 0(s1)
[1;34m[src/memory/paddr.c:97 mtrace_log] R: 0x80000e80 (len=4) data=0x00060863[0m
0x80000e80: 00 06 08 63 beqz	a2, 0x10
[1;34m[src/memory/paddr.c:97 mtrace_log] R: 0x80000e90 (len=4) data=0x00140413[0m
0x80000e90: 00 14 04 13 addi	s0, s0, 1
[1;34m[src/memory/paddr.c:97 mtrace_log] R: 0x80000e94 (len=4) data=0x00448493[0m
0x80000e94: 00 44 84 93 addi	s1, s1, 4
[1;34m[src/memory/paddr.c:97 mtrace_log] R: 0x80000e98 (len=4) data=0xff2412e3[0m
0x80000e98: ff 24 12 e3 bne	s0, s2, -0x1c
[1;34m[src/memory/paddr.c:97 mtrace_log] R: 0x80000e7c (len=4) data=0x0004a603[0m
[1;34m[src/memory/paddr.c:97 mtrace_log] R: 0x80002e44 (len=4) data=0x00000000[0m
0x80000e7c: 00 04 a6 03 lw	a2, 0(s1)
[1;34m[src/memory/paddr.c:97 mtrace_log] R: 0x80000e80 (len=4) data=0x00060863[0m
0x80000e80: 00 06 08 63 beqz	a2, 0x10
[1;34m[src/memory/paddr.c:97 mtrace_log] R: 0x80000e90 (len=4) data=0x00140413[0m
0x80000e90: 00 14 04 13 addi	s0, s0, 1
[1;34m[src/memory/paddr.c:97 mtrace_log] R: 0x80000e94 (len=4) data=0x00448493[0m
0x80000e94: 00 44 84 93 addi	s1, s1, 4
[1;34m[src/memory/paddr.c:97 mtrace_log] R: 0x80000e98 (len=4) data=0xff2412e3[0m
0x80000e98: ff 24 12 e3 bne	s0, s2, -0x1c
[1;34m[src/memory/paddr.c:97 mtrace_log] R: 0x80000e7c (len=4) data=0x0004a603[0m
[1;34m[src/memory/paddr.c:97 mtrace_log] R: 0x80002e48 (len=4) data=0x00000000[0m
0x80000e7c: 00 04 a6 03 lw	a2, 0(s1)
[1;34m[src/memory/paddr.c:97 mtrace_log] R: 0x80000e80 (len=4) data=0x00060863[0m
0x80000e80: 00 06 08 63 beqz	a2, 0x10
[1;34m[src/memory/paddr.c:97 mtrace_log] R: 0x80000e90 (len=4) data=0x00140413[0m
0x80000e90: 00 14 04 13 addi	s0, s0, 1
[1;34m[src/memory/paddr.c:97 mtrace_log] R: 0x80000e94 (len=4) data=0x00448493[0m
0x80000e94: 00 44 84 93 addi	s1, s1, 4
[1;34m[src/memory/paddr.c:97 mtrace_log] R: 0x80000e98 (len=4) data=0xff2412e3[0m
0x80000e98: ff 24 12 e3 bne	s0, s2, -0x1c
[1;34m[src/memory/paddr.c:97 mtrace_log] R: 0x80000e7c (len=4) data=0x0004a603[0m
[1;34m[src/memory/paddr.c:97 mtrace_log] R: 0x80002e4c (len=4) data=0x00000000[0m
0x80000e7c: 00 04 a6 03 lw	a2, 0(s1)
[1;34m[src/memory/paddr.c:97 mtrace_log] R: 0x80000e80 (len=4) data=0x00060863[0m
0x80000e80: 00 06 08 63 beqz	a2, 0x10
[1;34m[src/memory/paddr.c:97 mtrace_log] R: 0x80000e90 (len=4) data=0x00140413[0m
0x80000e90: 00 14 04 13 addi	s0, s0, 1
[1;34m[src/memory/paddr.c:97 mtrace_log] R: 0x80000e94 (len=4) data=0x00448493[0m
0x80000e94: 00 44 84 93 addi	s1, s1, 4
[1;34m[src/memory/paddr.c:97 mtrace_log] R: 0x80000e98 (len=4) data=0xff2412e3[0m
0x80000e98: ff 24 12 e3 bne	s0, s2, -0x1c
[1;34m[src/memory/paddr.c:97 mtrace_log] R: 0x80000e7c (len=4) data=0x0004a603[0m
[1;34m[src/memory/paddr.c:97 mtrace_log] R: 0x80002e50 (len=4) data=0x00000000[0m
0x80000e7c: 00 04 a6 03 lw	a2, 0(s1)
[1;34m[src/memory/paddr.c:97 mtrace_log] R: 0x80000e80 (len=4) data=0x00060863[0m
0x80000e80: 00 06 08 63 beqz	a2, 0x10
[1;34m[src/memory/paddr.c:97 mtrace_log] R: 0x80000e90 (len=4) data=0x00140413[0m
0x80000e90: 00 14 04 13 addi	s0, s0, 1
[1;34m[src/memory/paddr.c:97 mtrace_log] R: 0x80000e94 (len=4) data=0x00448493[0m
0x80000e94: 00 44 84 93 addi	s1, s1, 4
[1;34m[src/memory/paddr.c:97 mtrace_log] R: 0x80000e98 (len=4) data=0xff2412e3[0m
0x80000e98: ff 24 12 e3 bne	s0, s2, -0x1c
[1;34m[src/memory/paddr.c:97 mtrace_log] R: 0x80000e7c (len=4) data=0x0004a603[0m
[1;34m[src/memory/paddr.c:97 mtrace_log] R: 0x80002e54 (len=4) data=0x00000000[0m
0x80000e7c: 00 04 a6 03 lw	a2, 0(s1)
[1;34m[src/memory/paddr.c:97 mtrace_log] R: 0x80000e80 (len=4) data=0x00060863[0m
0x80000e80: 00 06 08 63 beqz	a2, 0x10
[1;34m[src/memory/paddr.c:97 mtrace_log] R: 0x80000e90 (len=4) data=0x00140413[0m
0x80000e90: 00 14 04 13 addi	s0, s0, 1
[1;34m[src/memory/paddr.c:97 mtrace_log] R: 0x80000e94 (len=4) data=0x00448493[0m
0x80000e94: 00 44 84 93 addi	s1, s1, 4
[1;34m[src/memory/paddr.c:97 mtrace_log] R: 0x80000e98 (len=4) data=0xff2412e3[0m
0x80000e98: ff 24 12 e3 bne	s0, s2, -0x1c
[1;34m[src/memory/paddr.c:97 mtrace_log] R: 0x80000e7c (len=4) data=0x0004a603[0m
[1;34m[src/memory/paddr.c:97 mtrace_log] R: 0x80002e58 (len=4) data=0x00000000[0m
0x80000e7c: 00 04 a6 03 lw	a2, 0(s1)
[1;34m[src/memory/paddr.c:97 mtrace_log] R: 0x80000e80 (len=4) data=0x00060863[0m
0x80000e80: 00 06 08 63 beqz	a2, 0x10
[1;34m[src/memory/paddr.c:97 mtrace_log] R: 0x80000e90 (len=4) data=0x00140413[0m
0x80000e90: 00 14 04 13 addi	s0, s0, 1
[1;34m[src/memory/paddr.c:97 mtrace_log] R: 0x80000e94 (len=4) data=0x00448493[0m
0x80000e94: 00 44 84 93 addi	s1, s1, 4
[1;34m[src/memory/paddr.c:97 mtrace_log] R: 0x80000e98 (len=4) data=0xff2412e3[0m
0x80000e98: ff 24 12 e3 bne	s0, s2, -0x1c
[1;34m[src/memory/paddr.c:97 mtrace_log] R: 0x80000e7c (len=4) data=0x0004a603[0m
[1;34m[src/memory/paddr.c:97 mtrace_log] R: 0x80002e5c (len=4) data=0x00000000[0m
0x80000e7c: 00 04 a6 03 lw	a2, 0(s1)
[1;34m[src/memory/paddr.c:97 mtrace_log] R: 0x80000e80 (len=4) data=0x00060863[0m
0x80000e80: 00 06 08 63 beqz	a2, 0x10
[1;34m[src/memory/paddr.c:97 mtrace_log] R: 0x80000e90 (len=4) data=0x00140413[0m
0x80000e90: 00 14 04 13 addi	s0, s0, 1
[1;34m[src/memory/paddr.c:97 mtrace_log] R: 0x80000e94 (len=4) data=0x00448493[0m
0x80000e94: 00 44 84 93 addi	s1, s1, 4
[1;34m[src/memory/paddr.c:97 mtrace_log] R: 0x80000e98 (len=4) data=0xff2412e3[0m
0x80000e98: ff 24 12 e3 bne	s0, s2, -0x1c
[1;34m[src/memory/paddr.c:97 mtrace_log] R: 0x80000e7c (len=4) data=0x0004a603[0m
[1;34m[src/memory/paddr.c:97 mtrace_log] R: 0x80002e60 (len=4) data=0x00000000[0m
0x80000e7c: 00 04 a6 03 lw	a2, 0(s1)
[1;34m[src/memory/paddr.c:97 mtrace_log] R: 0x80000e80 (len=4) data=0x00060863[0m
0x80000e80: 00 06 08 63 beqz	a2, 0x10
[1;34m[src/memory/paddr.c:97 mtrace_log] R: 0x80000e90 (len=4) data=0x00140413[0m
0x80000e90: 00 14 04 13 addi	s0, s0, 1
[1;34m[src/memory/paddr.c:97 mtrace_log] R: 0x80000e94 (len=4) data=0x00448493[0m
0x80000e94: 00 44 84 93 addi	s1, s1, 4
[1;34m[src/memory/paddr.c:97 mtrace_log] R: 0x80000e98 (len=4) data=0xff2412e3[0m
0x80000e98: ff 24 12 e3 bne	s0, s2, -0x1c
[1;34m[src/memory/paddr.c:97 mtrace_log] R: 0x80000e7c (len=4) data=0x0004a603[0m
[1;34m[src/memory/paddr.c:97 mtrace_log] R: 0x80002e64 (len=4) data=0x00000000[0m
0x80000e7c: 00 04 a6 03 lw	a2, 0(s1)
[1;34m[src/memory/paddr.c:97 mtrace_log] R: 0x80000e80 (len=4) data=0x00060863[0m
0x80000e80: 00 06 08 63 beqz	a2, 0x10
[1;34m[src/memory/paddr.c:97 mtrace_log] R: 0x80000e90 (len=4) data=0x00140413[0m
0x80000e90: 00 14 04 13 addi	s0, s0, 1
[1;34m[src/memory/paddr.c:97 mtrace_log] R: 0x80000e94 (len=4) data=0x00448493[0m
0x80000e94: 00 44 84 93 addi	s1, s1, 4
[1;34m[src/memory/paddr.c:97 mtrace_log] R: 0x80000e98 (len=4) data=0xff2412e3[0m
0x80000e98: ff 24 12 e3 bne	s0, s2, -0x1c
[1;34m[src/memory/paddr.c:97 mtrace_log] R: 0x80000e7c (len=4) data=0x0004a603[0m
[1;34m[src/memory/paddr.c:97 mtrace_log] R: 0x80002e68 (len=4) data=0x00000000[0m
0x80000e7c: 00 04 a6 03 lw	a2, 0(s1)
[1;34m[src/memory/paddr.c:97 mtrace_log] R: 0x80000e80 (len=4) data=0x00060863[0m
0x80000e80: 00 06 08 63 beqz	a2, 0x10
[1;34m[src/memory/paddr.c:97 mtrace_log] R: 0x80000e90 (len=4) data=0x00140413[0m
0x80000e90: 00 14 04 13 addi	s0, s0, 1
[1;34m[src/memory/paddr.c:97 mtrace_log] R: 0x80000e94 (len=4) data=0x00448493[0m
0x80000e94: 00 44 84 93 addi	s1, s1, 4
[1;34m[src/memory/paddr.c:97 mtrace_log] R: 0x80000e98 (len=4) data=0xff2412e3[0m
0x80000e98: ff 24 12 e3 bne	s0, s2, -0x1c
[1;34m[src/memory/paddr.c:97 mtrace_log] R: 0x80000e7c (len=4) data=0x0004a603[0m
[1;34m[src/memory/paddr.c:97 mtrace_log] R: 0x80002e6c (len=4) data=0x00000000[0m
0x80000e7c: 00 04 a6 03 lw	a2, 0(s1)
[1;34m[src/memory/paddr.c:97 mtrace_log] R: 0x80000e80 (len=4) data=0x00060863[0m
0x80000e80: 00 06 08 63 beqz	a2, 0x10
[1;34m[src/memory/paddr.c:97 mtrace_log] R: 0x80000e90 (len=4) data=0x00140413[0m
0x80000e90: 00 14 04 13 addi	s0, s0, 1
[1;34m[src/memory/paddr.c:97 mtrace_log] R: 0x80000e94 (len=4) data=0x00448493[0m
0x80000e94: 00 44 84 93 addi	s1, s1, 4
[1;34m[src/memory/paddr.c:97 mtrace_log] R: 0x80000e98 (len=4) data=0xff2412e3[0m
0x80000e98: ff 24 12 e3 bne	s0, s2, -0x1c
[1;34m[src/memory/paddr.c:97 mtrace_log] R: 0x80000e7c (len=4) data=0x0004a603[0m
[1;34m[src/memory/paddr.c:97 mtrace_log] R: 0x80002e70 (len=4) data=0x00000000[0m
0x80000e7c: 00 04 a6 03 lw	a2, 0(s1)
[1;34m[src/memory/paddr.c:97 mtrace_log] R: 0x80000e80 (len=4) data=0x00060863[0m
0x80000e80: 00 06 08 63 beqz	a2, 0x10
[1;34m[src/memory/paddr.c:97 mtrace_log] R: 0x80000e90 (len=4) data=0x00140413[0m
0x80000e90: 00 14 04 13 addi	s0, s0, 1
[1;34m[src/memory/paddr.c:97 mtrace_log] R: 0x80000e94 (len=4) data=0x00448493[0m
0x80000e94: 00 44 84 93 addi	s1, s1, 4
[1;34m[src/memory/paddr.c:97 mtrace_log] R: 0x80000e98 (len=4) data=0xff2412e3[0m
0x80000e98: ff 24 12 e3 bne	s0, s2, -0x1c
[1;34m[src/memory/paddr.c:97 mtrace_log] R: 0x80000e7c (len=4) data=0x0004a603[0m
[1;34m[src/memory/paddr.c:97 mtrace_log] R: 0x80002e74 (len=4) data=0x00000000[0m
0x80000e7c: 00 04 a6 03 lw	a2, 0(s1)
[1;34m[src/memory/paddr.c:97 mtrace_log] R: 0x80000e80 (len=4) data=0x00060863[0m
0x80000e80: 00 06 08 63 beqz	a2, 0x10
[1;34m[src/memory/paddr.c:97 mtrace_log] R: 0x80000e90 (len=4) data=0x00140413[0m
0x80000e90: 00 14 04 13 addi	s0, s0, 1
[1;34m[src/memory/paddr.c:97 mtrace_log] R: 0x80000e94 (len=4) data=0x00448493[0m
0x80000e94: 00 44 84 93 addi	s1, s1, 4
[1;34m[src/memory/paddr.c:97 mtrace_log] R: 0x80000e98 (len=4) data=0xff2412e3[0m
0x80000e98: ff 24 12 e3 bne	s0, s2, -0x1c
[1;34m[src/memory/paddr.c:97 mtrace_log] R: 0x80000e7c (len=4) data=0x0004a603[0m
[1;34m[src/memory/paddr.c:97 mtrace_log] R: 0x80002e78 (len=4) data=0x00000000[0m
0x80000e7c: 00 04 a6 03 lw	a2, 0(s1)
[1;34m[src/memory/paddr.c:97 mtrace_log] R: 0x80000e80 (len=4) data=0x00060863[0m
0x80000e80: 00 06 08 63 beqz	a2, 0x10
[1;34m[src/memory/paddr.c:97 mtrace_log] R: 0x80000e90 (len=4) data=0x00140413[0m
0x80000e90: 00 14 04 13 addi	s0, s0, 1
[1;34m[src/memory/paddr.c:97 mtrace_log] R: 0x80000e94 (len=4) data=0x00448493[0m
0x80000e94: 00 44 84 93 addi	s1, s1, 4
[1;34m[src/memory/paddr.c:97 mtrace_log] R: 0x80000e98 (len=4) data=0xff2412e3[0m
0x80000e98: ff 24 12 e3 bne	s0, s2, -0x1c
[1;34m[src/memory/paddr.c:97 mtrace_log] R: 0x80000e7c (len=4) data=0x0004a603[0m
[1;34m[src/memory/paddr.c:97 mtrace_log] R: 0x80002e7c (len=4) data=0x8000293c[0m
0x80000e7c: 00 04 a6 03 lw	a2, 0(s1)
[1;34m[src/memory/paddr.c:97 mtrace_log] R: 0x80000e80 (len=4) data=0x00060863[0m
0x80000e80: 00 06 08 63 beqz	a2, 0x10
[1;34m[src/memory/paddr.c:97 mtrace_log] R: 0x80000e84 (len=4) data=0x00040593[0m
0x80000e84: 00 04 05 93 mv	a1, s0
[1;34m[src/memory/paddr.c:97 mtrace_log] R: 0x80000e88 (len=4) data=0x00098513[0m
0x80000e88: 00 09 85 13 mv	a0, s3
[1;34m[src/memory/paddr.c:97 mtrace_log] R: 0x80000e8c (len=4) data=0x474010ef[0m
0x80000e8c: 47 40 10 ef jal	0x1474
[1;34m[src/memory/paddr.c:97 mtrace_log] R: 0x80002300 (len=4) data=0xfc010113[0m
0x80002300: fc 01 01 13 addi	sp, sp, -0x40
[1;34m[src/memory/paddr.c:97 mtrace_log] R: 0x80002304 (len=4) data=0x02410313[0m
0x80002304: 02 41 03 13 addi	t1, sp, 0x24
[1;34m[src/memory/paddr.c:97 mtrace_log] R: 0x80002308 (len=4) data=0x02b12223[0m
[1;34m[src/memory/paddr.c:97 mtrace_log] W: 0x8009dfb4 (len=4) data=0x00000061[0m
0x80002308: 02 b1 22 23 sw	a1, 0x24(sp)
[1;34m[src/memory/paddr.c:97 mtrace_log] R: 0x8000230c (len=4) data=0x02c12423[0m
[1;34m[src/memory/paddr.c:97 mtrace_log] W: 0x8009dfb8 (len=4) data=0x8000293c[0m
0x8000230c: 02 c1 24 23 sw	a2, 0x28(sp)
[1;34m[src/memory/paddr.c:97 mtrace_log] R: 0x80002310 (len=4) data=0x00050593[0m
0x80002310: 00 05 05 93 mv	a1, a0
[1;34m[src/memory/paddr.c:97 mtrace_log] R: 0x80002314 (len=4) data=0x00030613[0m
0x80002314: 00 03 06 13 mv	a2, t1
[1;34m[src/memory/paddr.c:97 mtrace_log] R: 0x80002318 (len=4) data=0x00093517[0m
0x80002318: 00 09 35 17 auipc	a0, 0x93
[1;34m[src/memory/paddr.c:97 mtrace_log] R: 0x8000231c (len=4) data=0x20450513[0m
0x8000231c: 20 45 05 13 addi	a0, a0, 0x204
[1;34m[src/memory/paddr.c:97 mtrace_log] R: 0x80002320 (len=4) data=0x02e12823[0m
[1;34m[src/memory/paddr.c:97 mtrace_log] W: 0x8009dfc0 (len=4) data=0x00000000[0m
0x80002320: 02 e1 28 23 sw	a4, 0x30(sp)
[1;34m[src/memory/paddr.c:97 mtrace_log] R: 0x80002324 (len=4) data=0x02f12a23[0m
[1;34m[src/memory/paddr.c:97 mtrace_log] W: 0x8009dfc4 (len=4) data=0x8009553b[0m
0x80002324: 02 f1 2a 23 sw	a5, 0x34(sp)
[1;34m[src/memory/paddr.c:97 mtrace_log] R: 0x80002328 (len=4) data=0x00112e23[0m
[1;34m[src/memory/paddr.c:97 mtrace_log] W: 0x8009dfac (len=4) data=0x80000e90[0m
0x80002328: 00 11 2e 23 sw	ra, 0x1c(sp)
[1;34m[src/memory/paddr.c:97 mtrace_log] R: 0x8000232c (len=4) data=0x02d12623[0m
[1;34m[src/memory/paddr.c:97 mtrace_log] W: 0x8009dfbc (len=4) data=0xa00003f8[0m
0x8000232c: 02 d1 26 23 sw	a3, 0x2c(sp)
[1;34m[src/memory/paddr.c:97 mtrace_log] R: 0x80002330 (len=4) data=0x03012c23[0m
[1;34m[src/memory/paddr.c:97 mtrace_log] W: 0x8009dfc8 (len=4) data=0x800032b4[0m
0x80002330: 03 01 2c 23 sw	a6, 0x38(sp)
[1;34m[src/memory/paddr.c:97 mtrace_log] R: 0x80002334 (len=4) data=0x03112e23[0m
[1;34m[src/memory/paddr.c:97 mtrace_log] W: 0x8009dfcc (len=4) data=0x00000000[0m
0x80002334: 03 11 2e 23 sw	a7, 0x3c(sp)
[1;34m[src/memory/paddr.c:97 mtrace_log] R: 0x80002338 (len=4) data=0x00612623[0m
[1;34m[src/memory/paddr.c:97 mtrace_log] W: 0x8009df9c (len=4) data=0x8009dfb4[0m
0x80002338: 00 61 26 23 sw	t1, 0xc(sp)
[1;34m[src/memory/paddr.c:97 mtrace_log] R: 0x8000233c (len=4) data=0xad5ff0ef[0m
0x8000233c: ad 5f f0 ef jal	-0x52c
[1;34m[src/memory/paddr.c:97 mtrace_log] R: 0x80001e10 (len=4) data=0xfb010113[0m
0x80001e10: fb 01 01 13 addi	sp, sp, -0x50
[1;34m[src/memory/paddr.c:97 mtrace_log] R: 0x80001e14 (len=4) data=0x03612823[0m
[1;34m[src/memory/paddr.c:97 mtrace_log] W: 0x8009df70 (len=4) data=0x00000000[0m
0x80001e14: 03 61 28 23 sw	s6, 0x30(sp)
[1;34m[src/memory/paddr.c:97 mtrace_log] R: 0x80001e18 (len=4) data=0x04112623[0m
[1;34m[src/memory/paddr.c:97 mtrace_log] W: 0x8009df8c (len=4) data=0x80002340[0m
0x80001e18: 04 11 26 23 sw	ra, 0x4c(sp)
[1;34m[src/memory/paddr.c:97 mtrace_log] R: 0x80001e1c (len=4) data=0x04912223[0m
[1;34m[src/memory/paddr.c:97 mtrace_log] W: 0x8009df84 (len=4) data=0x80002e7c[0m
0x80001e1c: 04 91 22 23 sw	s1, 0x44(sp)
[1;34m[src/memory/paddr.c:97 mtrace_log] R: 0x80001e20 (len=4) data=0x0005c783[0m
[1;34m[src/memory/paddr.c:97 mtrace_log] R: 0x80002914 (len=1) data=0x00000020[0m
0x80001e20: 00 05 c7 83 lbu	a5, 0(a1)
[1;34m[src/memory/paddr.c:97 mtrace_log] R: 0x80001e24 (len=4) data=0x00050b13[0m
0x80001e24: 00 05 0b 13 mv	s6, a0
[1;34m[src/memory/paddr.c:97 mtrace_log] R: 0x80001e28 (len=4) data=0x44078a63[0m
0x80001e28: 44 07 8a 63 beqz	a5, 0x454
[1;34m[src/memory/paddr.c:97 mtrace_log] R: 0x80001e2c (len=4) data=0x05212023[0m
[1;34m[src/memory/paddr.c:97 mtrace_log] W: 0x8009df80 (len=4) data=0x00000100[0m
0x80001e2c: 05 21 20 23 sw	s2, 0x40(sp)
[1;34m[src/memory/paddr.c:97 mtrace_log] R: 0x80001e30 (len=4) data=0x03312e23[0m
[1;34m[src/memory/paddr.c:97 mtrace_log] W: 0x8009df7c (len=4) data=0x80002914[0m
0x80001e30: 03 31 2e 23 sw	s3, 0x3c(sp)
[1;34m[src/memory/paddr.c:97 mtrace_log] R: 0x80001e34 (len=4) data=0x03412c23[0m
[1;34m[src/memory/paddr.c:97 mtrace_log] W: 0x8009df78 (len=4) data=0x00000000[0m
0x80001e34: 03 41 2c 23 sw	s4, 0x38(sp)
[1;34m[src/memory/paddr.c:97 mtrace_log] R: 0x80001e38 (len=4) data=0x03512a23[0m
[1;34m[src/memory/paddr.c:97 mtrace_log] W: 0x8009df74 (len=4) data=0x00000000[0m
0x80001e38: 03 51 2a 23 sw	s5, 0x34(sp)
[1;34m[src/memory/paddr.c:97 mtrace_log] R: 0x80001e3c (len=4) data=0x03712623[0m
[1;34m[src/memory/paddr.c:97 mtrace_log] W: 0x8009df6c (len=4) data=0x00000000[0m
0x80001e3c: 03 71 26 23 sw	s7, 0x2c(sp)
[1;34m[src/memory/paddr.c:97 mtrace_log] R: 0x80001e40 (len=4) data=0x03812423[0m
[1;34m[src/memory/paddr.c:97 mtrace_log] W: 0x8009df68 (len=4) data=0x00000000[0m
0x80001e40: 03 81 24 23 sw	s8, 0x28(sp)
[1;34m[src/memory/paddr.c:97 mtrace_log] R: 0x80001e44 (len=4) data=0x03912223[0m
[1;34m[src/memory/paddr.c:97 mtrace_log] W: 0x8009df64 (len=4) data=0x00000000[0m
0x80001e44: 03 91 22 23 sw	s9, 0x24(sp)
[1;34m[src/memory/paddr.c:97 mtrace_log] R: 0x80001e48 (len=4) data=0x03a12023[0m
[1;34m[src/memory/paddr.c:97 mtrace_log] W: 0x8009df60 (len=4) data=0x00000000[0m
0x80001e48: 03 a1 20 23 sw	s10, 0x20(sp)
[1;34m[src/memory/paddr.c:97 mtrace_log] R: 0x80001e4c (len=4) data=0x04812423[0m
[1;34m[src/memory/paddr.c:97 mtrace_log] W: 0x8009df88 (len=4) data=0x00000061[0m
0x80001e4c: 04 81 24 23 sw	s0, 0x48(sp)
[1;34m[src/memory/paddr.c:97 mtrace_log] R: 0x80001e50 (len=4) data=0x00060a13[0m
0x80001e50: 00 06 0a 13 mv	s4, a2
[1;34m[src/memory/paddr.c:97 mtrace_log] R: 0x80001e54 (len=4) data=0x00050493[0m
0x80001e54: 00 05 04 93 mv	s1, a0
[1;34m[src/memory/paddr.c:97 mtrace_log] R: 0x80001e58 (len=4) data=0x02500a93[0m
0x80001e58: 02 50 0a 93 addi	s5, zero, 0x25
[1;34m[src/memory/paddr.c:97 mtrace_log] R: 0x80001e5c (len=4) data=0x01000993[0m
0x80001e5c: 01 00 09 93 addi	s3, zero, 0x10
[1;34m[src/memory/paddr.c:97 mtrace_log] R: 0x80001e60 (len=4) data=0x00001917[0m
0x80001e60: 00 00 19 17 auipc	s2, 1
[1;34m[src/memory/paddr.c:97 mtrace_log] R: 0x80001e64 (len=4) data=0x2d890913[0m
0x80001e64: 2d 89 09 13 addi	s2, s2, 0x2d8
[1;34m[src/memory/paddr.c:97 mtrace_log] R: 0x80001e68 (len=4) data=0x00900d13[0m
0x80001e68: 00 90 0d 13 addi	s10, zero, 9
[1;34m[src/memory/paddr.c:97 mtrace_log] R: 0x80001e6c (len=4) data=0x02e00c93[0m
0x80001e6c: 02 e0 0c 93 addi	s9, zero, 0x2e
[1;34m[src/memory/paddr.c:97 mtrace_log] R: 0x80001e70 (len=4) data=0x06800c13[0m
0x80001e70: 06 80 0c 13 addi	s8, zero, 0x68
[1;34m[src/memory/paddr.c:97 mtrace_log] R: 0x80001e74 (len=4) data=0x00001b97[0m
0x80001e74: 00 00 1b 97 auipc	s7, 1
[1;34m[src/memory/paddr.c:97 mtrace_log] R: 0x80001e78 (len=4) data=0x308b8b93[0m
0x80001e78: 30 8b 8b 93 addi	s7, s7, 0x308
[1;34m[src/memory/paddr.c:97 mtrace_log] R: 0x80001e7c (len=4) data=0x05578c63[0m
0x80001e7c: 05 57 8c 63 beq	a5, s5, 0x58
[1;34m[src/memory/paddr.c:97 mtrace_log] R: 0x80001e80 (len=4) data=0x00f48023[0m
[1;34m[src/memory/paddr.c:97 mtrace_log] W: 0x8009551c (len=1) data=0x00000020[0m
0x80001e80: 00 f4 80 23 sb	a5, 0(s1)
[1;34m[src/memory/paddr.c:97 mtrace_log] R: 0x80001e84 (len=4) data=0x0015c783[0m
[1;34m[src/memory/paddr.c:97 mtrace_log] R: 0x80002915 (len=1) data=0x00000020[0m
0x80001e84: 00 15 c7 83 lbu	a5, 1(a1)
[1;34m[src/memory/paddr.c:97 mtrace_log] R: 0x80001e88 (len=4) data=0x00148493[0m
0x80001e88: 00 14 84 93 addi	s1, s1, 1
[1;34m[src/memory/paddr.c:97 mtrace_log] R: 0x80001e8c (len=4) data=0x00158593[0m
0x80001e8c: 00 15 85 93 addi	a1, a1, 1
[1;34m[src/memory/paddr.c:97 mtrace_log] R: 0x80001e90 (len=4) data=0xfe0796e3[0m
0x80001e90: fe 07 96 e3 bnez	a5, -0x14
[1;34m[src/memory/paddr.c:97 mtrace_log] R: 0x80001e7c (len=4) data=0x05578c63[0m
0x80001e7c: 05 57 8c 63 beq	a5, s5, 0x58
[1;34m[src/memory/paddr.c:97 mtrace_log] R: 0x80001e80 (len=4) data=0x00f48023[0m
[1;34m[src/memory/paddr.c:97 mtrace_log] W: 0x8009551d (len=1) data=0x00000020[0m
0x80001e80: 00 f4 80 23 sb	a5, 0(s1)
[1;34m[src/memory/paddr.c:97 mtrace_log] R: 0x80001e84 (len=4) data=0x0015c783[0m
[1;34m[src/memory/paddr.c:97 mtrace_log] R: 0x80002916 (len=1) data=0x00000025[0m
0x80001e84: 00 15 c7 83 lbu	a5, 1(a1)
[1;34m[src/memory/paddr.c:97 mtrace_log] R: 0x80001e88 (len=4) data=0x00148493[0m
0x80001e88: 00 14 84 93 addi	s1, s1, 1
[1;34m[src/memory/paddr.c:97 mtrace_log] R: 0x80001e8c (len=4) data=0x00158593[0m
0x80001e8c: 00 15 85 93 addi	a1, a1, 1
[1;34m[src/memory/paddr.c:97 mtrace_log] R: 0x80001e90 (len=4) data=0xfe0796e3[0m
0x80001e90: fe 07 96 e3 bnez	a5, -0x14
[1;34m[src/memory/paddr.c:97 mtrace_log] R: 0x80001e7c (len=4) data=0x05578c63[0m
0x80001e7c: 05 57 8c 63 beq	a5, s5, 0x58
[1;34m[src/memory/paddr.c:97 mtrace_log] R: 0x80001ed4 (len=4) data=0x00000793[0m
0x80001ed4: 00 00 07 93 mv	a5, zero
[1;34m[src/memory/paddr.c:97 mtrace_log] R: 0x80001ed8 (len=4) data=0x0015c803[0m
[1;34m[src/memory/paddr.c:97 mtrace_log] R: 0x80002917 (len=1) data=0x00000063[0m
0x80001ed8: 00 15 c8 03 lbu	a6, 1(a1)
[1;34m[src/memory/paddr.c:97 mtrace_log] R: 0x80001edc (len=4) data=0x00158413[0m
0x80001edc: 00 15 84 13 addi	s0, a1, 1
[1;34m[src/memory/paddr.c:97 mtrace_log] R: 0x80001ee0 (len=4) data=0xfe080713[0m
0x80001ee0: fe 08 07 13 addi	a4, a6, -0x20
[1;34m[src/memory/paddr.c:97 mtrace_log] R: 0x80001ee4 (len=4) data=0x0ff77713[0m
0x80001ee4: 0f f7 77 13 andi	a4, a4, 0xff
[1;34m[src/memory/paddr.c:97 mtrace_log] R: 0x80001ee8 (len=4) data=0x00e9ec63[0m
0x80001ee8: 00 e9 ec 63 bltu	s3, a4, 0x18
[1;34m[src/memory/paddr.c:97 mtrace_log] R: 0x80001f00 (len=4) data=0xfd080713[0m
0x80001f00: fd 08 07 13 addi	a4, a6, -0x30
[1;34m[src/memory/paddr.c:97 mtrace_log] R: 0x80001f04 (len=4) data=0x0ff77713[0m
0x80001f04: 0f f7 77 13 andi	a4, a4, 0xff
[1;34m[src/memory/paddr.c:97 mtrace_log] R: 0x80001f08 (len=4) data=0x0ced7263[0m
0x80001f08: 0c ed 72 63 bgeu	s10, a4, 0xc4
[1;34m[src/memory/paddr.c:97 mtrace_log] R: 0x80001f0c (len=4) data=0x02a00713[0m
0x80001f0c: 02 a0 07 13 addi	a4, zero, 0x2a
[1;34m[src/memory/paddr.c:97 mtrace_log] R: 0x80001f10 (len=4) data=0xfff00693[0m
0x80001f10: ff f0 06 93 addi	a3, zero, -1
[1;34m[src/memory/paddr.c:97 mtrace_log] R: 0x80001f14 (len=4) data=0x00e81a63[0m
0x80001f14: 00 e8 1a 63 bne	a6, a4, 0x14
[1;34m[src/memory/paddr.c:97 mtrace_log] R: 0x80001f28 (len=4) data=0xfff00713[0m
0x80001f28: ff f0 07 13 addi	a4, zero, -1
[1;34m[src/memory/paddr.c:97 mtrace_log] R: 0x80001f2c (len=4) data=0x07980a63[0m
0x80001f2c: 07 98 0a 63 beq	a6, s9, 0x74
[1;34m[src/memory/paddr.c:97 mtrace_log] R: 0x80001f30 (len=4) data=0x0fb87613[0m
0x80001f30: 0f b8 76 13 andi	a2, a6, 0xfb
[1;34m[src/memory/paddr.c:97 mtrace_log] R: 0x80001f34 (len=4) data=0x01861663[0m
0x80001f34: 01 86 16 63 bne	a2, s8, 0xc
[1;34m[src/memory/paddr.c:97 mtrace_log] R: 0x80001f40 (len=4) data=0xfdb80813[0m
0x80001f40: fd b8 08 13 addi	a6, a6, -0x25
[1;34m[src/memory/paddr.c:97 mtrace_log] R: 0x80001f44 (len=4) data=0x0ff87813[0m
0x80001f44: 0f f8 78 13 andi	a6, a6, 0xff
[1;34m[src/memory/paddr.c:97 mtrace_log] R: 0x80001f48 (len=4) data=0x05300613[0m
0x80001f48: 05 30 06 13 addi	a2, zero, 0x53
[1;34m[src/memory/paddr.c:97 mtrace_log] R: 0x80001f4c (len=4) data=0x0b066c63[0m
0x80001f4c: 0b 06 6c 63 bltu	a2, a6, 0xb8
[1;34m[src/memory/paddr.c:97 mtrace_log] R: 0x80001f50 (len=4) data=0x00281813[0m
0x80001f50: 00 28 18 13 slli	a6, a6, 2
[1;34m[src/memory/paddr.c:97 mtrace_log] R: 0x80001f54 (len=4) data=0x01780833[0m
0x80001f54: 01 78 08 33 add	a6, a6, s7
[1;34m[src/memory/paddr.c:97 mtrace_log] R: 0x80001f58 (len=4) data=0x00082603[0m
[1;34m[src/memory/paddr.c:97 mtrace_log] R: 0x80003274 (len=4) data=0xffffef08[0m
0x80001f58: 00 08 26 03 lw	a2, 0(a6)
[1;34m[src/memory/paddr.c:97 mtrace_log] R: 0x80001f5c (len=4) data=0x01760633[0m
0x80001f5c: 01 76 06 33 add	a2, a2, s7
[1;34m[src/memory/paddr.c:97 mtrace_log] R: 0x80001f60 (len=4) data=0x00060067[0m
0x80001f60: 00 06 00 67 jr	a2
[1;34m[src/memory/paddr.c:97 mtrace_log] R: 0x80002084 (len=4) data=0x0017f793[0m
0x80002084: 00 17 f7 93 andi	a5, a5, 1
[1;34m[src/memory/paddr.c:97 mtrace_log] R: 0x80002088 (len=4) data=0x004a0613[0m
0x80002088: 00 4a 06 13 addi	a2, s4, 4
[1;34m[src/memory/paddr.c:97 mtrace_log] R: 0x8000208c (len=4) data=0x00140593[0m
0x8000208c: 00 14 05 93 addi	a1, s0, 1
[1;34m[src/memory/paddr.c:97 mtrace_log] R: 0x80002090 (len=4) data=0x18078c63[0m
0x80002090: 18 07 8c 63 beqz	a5, 0x198
[1;34m[src/memory/paddr.c:97 mtrace_log] R: 0x80002228 (len=4) data=0x00100793[0m
0x80002228: 00 10 07 93 addi	a5, zero, 1
[1;34m[src/memory/paddr.c:97 mtrace_log] R: 0x8000222c (len=4) data=0x0ad7dc63[0m
0x8000222c: 0a d7 dc 63 bge	a5, a3, 0xb8
[1;34m[src/memory/paddr.c:97 mtrace_log] R: 0x800022e4 (len=4) data=0x000a2783[0m
[1;34m[src/memory/paddr.c:97 mtrace_log] R: 0x8009dfb4 (len=4) data=0x00000061[0m
0x800022e4: 00 0a 27 83 lw	a5, 0(s4)
[1;34m[src/memory/paddr.c:97 mtrace_log] R: 0x800022e8 (len=4) data=0x00148493[0m
0x800022e8: 00 14 84 93 addi	s1, s1, 1
[1;34m[src/memory/paddr.c:97 mtrace_log] R: 0x800022ec (len=4) data=0x00060a13[0m
0x800022ec: 00 06 0a 13 mv	s4, a2
[1;34m[src/memory/paddr.c:97 mtrace_log] R: 0x800022f0 (len=4) data=0xfef48fa3[0m
[1;34m[src/memory/paddr.c:97 mtrace_log] W: 0x8009551e (len=1) data=0x00000061[0m
0x800022f0: fe f4 8f a3 sb	a5, -1(s1)
[1;34m[src/memory/paddr.c:97 mtrace_log] R: 0x800022f4 (len=4) data=0x00144783[0m
[1;34m[src/memory/paddr.c:97 mtrace_log] R: 0x80002918 (len=1) data=0x0000003a[0m
0x800022f4: 00 14 47 83 lbu	a5, 1(s0)
[1;34m[src/memory/paddr.c:97 mtrace_log] R: 0x800022f8 (len=4) data=0xb80792e3[0m
0x800022f8: b8 07 92 e3 bnez	a5, -0x47c
[1;34m[src/memory/paddr.c:97 mtrace_log] R: 0x80001e7c (len=4) data=0x05578c63[0m
0x80001e7c: 05 57 8c 63 beq	a5, s5, 0x58
[1;34m[src/memory/paddr.c:97 mtrace_log] R: 0x80001e80 (len=4) data=0x00f48023[0m
[1;34m[src/memory/paddr.c:97 mtrace_log] W: 0x8009551f (len=1) data=0x0000003a[0m
0x80001e80: 00 f4 80 23 sb	a5, 0(s1)
[1;34m[src/memory/paddr.c:97 mtrace_log] R: 0x80001e84 (len=4) data=0x0015c783[0m
[1;34m[src/memory/paddr.c:97 mtrace_log] R: 0x80002919 (len=1) data=0x00000020[0m
0x80001e84: 00 15 c7 83 lbu	a5, 1(a1)
[1;34m[src/memory/paddr.c:97 mtrace_log] R: 0x80001e88 (len=4) data=0x00148493[0m
0x80001e88: 00 14 84 93 addi	s1, s1, 1
[1;34m[src/memory/paddr.c:97 mtrace_log] R: 0x80001e8c (len=4) data=0x00158593[0m
0x80001e8c: 00 15 85 93 addi	a1, a1, 1
[1;34m[src/memory/paddr.c:97 mtrace_log] R: 0x80001e90 (len=4) data=0xfe0796e3[0m
0x80001e90: fe 07 96 e3 bnez	a5, -0x14
[1;34m[src/memory/paddr.c:97 mtrace_log] R: 0x80001e7c (len=4) data=0x05578c63[0m
0x80001e7c: 05 57 8c 63 beq	a5, s5, 0x58
[1;34m[src/memory/paddr.c:97 mtrace_log] R: 0x80001e80 (len=4) data=0x00f48023[0m
[1;34m[src/memory/paddr.c:97 mtrace_log] W: 0x80095520 (len=1) data=0x00000020[0m
0x80001e80: 00 f4 80 23 sb	a5, 0(s1)
[1;34m[src/memory/paddr.c:97 mtrace_log] R: 0x80001e84 (len=4) data=0x0015c783[0m
[1;34m[src/memory/paddr.c:97 mtrace_log] R: 0x8000291a (len=1) data=0x00000025[0m
0x80001e84: 00 15 c7 83 lbu	a5, 1(a1)
[1;34m[src/memory/paddr.c:97 mtrace_log] R: 0x80001e88 (len=4) data=0x00148493[0m
0x80001e88: 00 14 84 93 addi	s1, s1, 1
[1;34m[src/memory/paddr.c:97 mtrace_log] R: 0x80001e8c (len=4) data=0x00158593[0m
0x80001e8c: 00 15 85 93 addi	a1, a1, 1
[1;34m[src/memory/paddr.c:97 mtrace_log] R: 0x80001e90 (len=4) data=0xfe0796e3[0m
0x80001e90: fe 07 96 e3 bnez	a5, -0x14
[1;34m[src/memory/paddr.c:97 mtrace_log] R: 0x80001e7c (len=4) data=0x05578c63[0m
0x80001e7c: 05 57 8c 63 beq	a5, s5, 0x58
[1;34m[src/memory/paddr.c:97 mtrace_log] R: 0x80001ed4 (len=4) data=0x00000793[0m
0x80001ed4: 00 00 07 93 mv	a5, zero
[1;34m[src/memory/paddr.c:97 mtrace_log] R: 0x80001ed8 (len=4) data=0x0015c803[0m
[1;34m[src/memory/paddr.c:97 mtrace_log] R: 0x8000291b (len=1) data=0x00000073[0m
0x80001ed8: 00 15 c8 03 lbu	a6, 1(a1)
[1;34m[src/memory/paddr.c:97 mtrace_log] R: 0x80001edc (len=4) data=0x00158413[0m
0x80001edc: 00 15 84 13 addi	s0, a1, 1
[1;34m[src/memory/paddr.c:97 mtrace_log] R: 0x80001ee0 (len=4) data=0xfe080713[0m
0x80001ee0: fe 08 07 13 addi	a4, a6, -0x20
[1;34m[src/memory/paddr.c:97 mtrace_log] R: 0x80001ee4 (len=4) data=0x0ff77713[0m
0x80001ee4: 0f f7 77 13 andi	a4, a4, 0xff
[1;34m[src/memory/paddr.c:97 mtrace_log] R: 0x80001ee8 (len=4) data=0x00e9ec63[0m
0x80001ee8: 00 e9 ec 63 bltu	s3, a4, 0x18
[1;34m[src/memory/paddr.c:97 mtrace_log] R: 0x80001f00 (len=4) data=0xfd080713[0m
0x80001f00: fd 08 07 13 addi	a4, a6, -0x30
[1;34m[src/memory/paddr.c:97 mtrace_log] R: 0x80001f04 (len=4) data=0x0ff77713[0m
0x80001f04: 0f f7 77 13 andi	a4, a4, 0xff
[1;34m[src/memory/paddr.c:97 mtrace_log] R: 0x80001f08 (len=4) data=0x0ced7263[0m
0x80001f08: 0c ed 72 63 bgeu	s10, a4, 0xc4
[1;34m[src/memory/paddr.c:97 mtrace_log] R: 0x80001f0c (len=4) data=0x02a00713[0m
0x80001f0c: 02 a0 07 13 addi	a4, zero, 0x2a
[1;34m[src/memory/paddr.c:97 mtrace_log] R: 0x80001f10 (len=4) data=0xfff00693[0m
0x80001f10: ff f0 06 93 addi	a3, zero, -1
[1;34m[src/memory/paddr.c:97 mtrace_log] R: 0x80001f14 (len=4) data=0x00e81a63[0m
0x80001f14: 00 e8 1a 63 bne	a6, a4, 0x14
[1;34m[src/memory/paddr.c:97 mtrace_log] R: 0x80001f28 (len=4) data=0xfff00713[0m
0x80001f28: ff f0 07 13 addi	a4, zero, -1
[1;34m[src/memory/paddr.c:97 mtrace_log] R: 0x80001f2c (len=4) data=0x07980a63[0m
0x80001f2c: 07 98 0a 63 beq	a6, s9, 0x74
[1;34m[src/memory/paddr.c:97 mtrace_log] R: 0x80001f30 (len=4) data=0x0fb87613[0m
0x80001f30: 0f b8 76 13 andi	a2, a6, 0xfb
[1;34m[src/memory/paddr.c:97 mtrace_log] R: 0x80001f34 (len=4) data=0x01861663[0m
0x80001f34: 01 86 16 63 bne	a2, s8, 0xc
[1;34m[src/memory/paddr.c:97 mtrace_log] R: 0x80001f40 (len=4) data=0xfdb80813[0m
0x80001f40: fd b8 08 13 addi	a6, a6, -0x25
[1;34m[src/memory/paddr.c:97 mtrace_log] R: 0x80001f44 (len=4) data=0x0ff87813[0m
0x80001f44: 0f f8 78 13 andi	a6, a6, 0xff
[1;34m[src/memory/paddr.c:97 mtrace_log] R: 0x80001f48 (len=4) data=0x05300613[0m
0x80001f48: 05 30 06 13 addi	a2, zero, 0x53
[1;34m[src/memory/paddr.c:97 mtrace_log] R: 0x80001f4c (len=4) data=0x0b066c63[0m
0x80001f4c: 0b 06 6c 63 bltu	a2, a6, 0xb8
[1;34m[src/memory/paddr.c:97 mtrace_log] R: 0x80001f50 (len=4) data=0x00281813[0m
0x80001f50: 00 28 18 13 slli	a6, a6, 2
[1;34m[src/memory/paddr.c:97 mtrace_log] R: 0x80001f54 (len=4) data=0x01780833[0m
0x80001f54: 01 78 08 33 add	a6, a6, s7
[1;34m[src/memory/paddr.c:97 mtrace_log] R: 0x80001f58 (len=4) data=0x00082603[0m
[1;34m[src/memory/paddr.c:97 mtrace_log] R: 0x800032b4 (len=4) data=0xffffef50[0m
0x80001f58: 00 08 26 03 lw	a2, 0(a6)
[1;34m[src/memory/paddr.c:97 mtrace_log] R: 0x80001f5c (len=4) data=0x01760633[0m
0x80001f5c: 01 76 06 33 add	a2, a2, s7
[1;34m[src/memory/paddr.c:97 mtrace_log] R: 0x80001f60 (len=4) data=0x00060067[0m
0x80001f60: 00 06 00 67 jr	a2
[1;34m[src/memory/paddr.c:97 mtrace_log] R: 0x800020cc (len=4) data=0x01b12e23[0m
[1;34m[src/memory/paddr.c:97 mtrace_log] W: 0x8009df5c (len=4) data=0x00000000[0m
0x800020cc: 01 b1 2e 23 sw	s11, 0x1c(sp)
[1;34m[src/memory/paddr.c:97 mtrace_log] R: 0x800020d0 (len=4) data=0x000a2d83[0m
[1;34m[src/memory/paddr.c:97 mtrace_log] R: 0x8009dfb8 (len=4) data=0x8000293c[0m
0x800020d0: 00 0a 2d 83 lw	s11, 0(s4)
[1;34m[src/memory/paddr.c:97 mtrace_log] R: 0x800020d4 (len=4) data=0x004a0a13[0m
0x800020d4: 00 4a 0a 13 addi	s4, s4, 4
[1;34m[src/memory/paddr.c:97 mtrace_log] R: 0x800020d8 (len=4) data=0x140d8263[0m
0x800020d8: 14 0d 82 63 beqz	s11, 0x144
[1;34m[src/memory/paddr.c:97 mtrace_log] R: 0x800020dc (len=4) data=0x000d8513[0m
0x800020dc: 00 0d 85 13 mv	a0, s11
[1;34m[src/memory/paddr.c:97 mtrace_log] R: 0x800020e0 (len=4) data=0x00d12623[0m
[1;34m[src/memory/paddr.c:97 mtrace_log] W: 0x8009df4c (len=4) data=0xffffffff[0m
0x800020e0: 00 d1 26 23 sw	a3, 0xc(sp)
[1;34m[src/memory/paddr.c:97 mtrace_log] R: 0x800020e4 (len=4) data=0x00f12423[0m
[1;34m[src/memory/paddr.c:97 mtrace_log] W: 0x8009df48 (len=4) data=0x00000000[0m
0x800020e4: 00 f1 24 23 sw	a5, 8(sp)
[1;34m[src/memory/paddr.c:97 mtrace_log] R: 0x800020e8 (len=4) data=0x00e12223[0m
[1;34m[src/memory/paddr.c:97 mtrace_log] W: 0x8009df44 (len=4) data=0xffffffff[0m
0x800020e8: 00 e1 22 23 sw	a4, 4(sp)
[1;34m[src/memory/paddr.c:97 mtrace_log] R: 0x800020ec (len=4) data=0x9c9ff0ef[0m
0x800020ec: 9c 9f f0 ef jal	-0x638
[1;34m[src/memory/paddr.c:97 mtrace_log] R: 0x80001ab4 (len=4) data=0x00054783[0m
[1;34m[src/memory/paddr.c:97 mtrace_log] R: 0x8000293c (len=1) data=0x00000061[0m
0x80001ab4: 00 05 47 83 lbu	a5, 0(a0)
[1;34m[src/memory/paddr.c:97 mtrace_log] R: 0x80001ab8 (len=4) data=0x00050713[0m
0x80001ab8: 00 05 07 13 mv	a4, a0
[1;34m[src/memory/paddr.c:97 mtrace_log] R: 0x80001abc (len=4) data=0x00000513[0m
0x80001abc: 00 00 05 13 mv	a0, zero
[1;34m[src/memory/paddr.c:97 mtrace_log] R: 0x80001ac0 (len=4) data=0x00078c63[0m
0x80001ac0: 00 07 8c 63 beqz	a5, 0x18
[1;34m[src/memory/paddr.c:97 mtrace_log] R: 0x80001ac4 (len=4) data=0x00150513[0m
0x80001ac4: 00 15 05 13 addi	a0, a0, 1
[1;34m[src/memory/paddr.c:97 mtrace_log] R: 0x80001ac8 (len=4) data=0x00a707b3[0m
0x80001ac8: 00 a7 07 b3 add	a5, a4, a0
[1;34m[src/memory/paddr.c:97 mtrace_log] R: 0x80001acc (len=4) data=0x0007c783[0m
[1;34m[src/memory/paddr.c:97 mtrace_log] R: 0x8000293d (len=1) data=0x00000075[0m
0x80001acc: 00 07 c7 83 lbu	a5, 0(a5)
[1;34m[src/memory/paddr.c:97 mtrace_log] R: 0x80001ad0 (len=4) data=0xfe079ae3[0m
0x80001ad0: fe 07 9a e3 bnez	a5, -0xc
[1;34m[src/memory/paddr.c:97 mtrace_log] R: 0x80001ac4 (len=4) data=0x00150513[0m
0x80001ac4: 00 15 05 13 addi	a0, a0, 1
[1;34m[src/memory/paddr.c:97 mtrace_log] R: 0x80001ac8 (len=4) data=0x00a707b3[0m
0x80001ac8: 00 a7 07 b3 add	a5, a4, a0
[1;34m[src/memory/paddr.c:97 mtrace_log] R: 0x80001acc (len=4) data=0x0007c783[0m
[1;34m[src/memory/paddr.c:97 mtrace_log] R: 0x8000293e (len=1) data=0x00000064[0m
0x80001acc: 00 07 c7 83 lbu	a5, 0(a5)
[1;34m[src/memory/paddr.c:97 mtrace_log] R: 0x80001ad0 (len=4) data=0xfe079ae3[0m
0x80001ad0: fe 07 9a e3 bnez	a5, -0xc
[1;34m[src/memory/paddr.c:97 mtrace_log] R: 0x80001ac4 (len=4) data=0x00150513[0m
0x80001ac4: 00 15 05 13 addi	a0, a0, 1
[1;34m[src/memory/paddr.c:97 mtrace_log] R: 0x80001ac8 (len=4) data=0x00a707b3[0m
0x80001ac8: 00 a7 07 b3 add	a5, a4, a0
[1;34m[src/memory/paddr.c:97 mtrace_log] R: 0x80001acc (len=4) data=0x0007c783[0m
[1;34m[src/memory/paddr.c:97 mtrace_log] R: 0x8000293f (len=1) data=0x00000069[0m
0x80001acc: 00 07 c7 83 lbu	a5, 0(a5)
[1;34m[src/memory/paddr.c:97 mtrace_log] R: 0x80001ad0 (len=4) data=0xfe079ae3[0m
0x80001ad0: fe 07 9a e3 bnez	a5, -0xc
[1;34m[src/memory/paddr.c:97 mtrace_log] R: 0x80001ac4 (len=4) data=0x00150513[0m
0x80001ac4: 00 15 05 13 addi	a0, a0, 1
[1;34m[src/memory/paddr.c:97 mtrace_log] R: 0x80001ac8 (len=4) data=0x00a707b3[0m
0x80001ac8: 00 a7 07 b3 add	a5, a4, a0
[1;34m[src/memory/paddr.c:97 mtrace_log] R: 0x80001acc (len=4) data=0x0007c783[0m
[1;34m[src/memory/paddr.c:97 mtrace_log] R: 0x80002940 (len=1) data=0x0000006f[0m
0x80001acc: 00 07 c7 83 lbu	a5, 0(a5)
[1;34m[src/memory/paddr.c:97 mtrace_log] R: 0x80001ad0 (len=4) data=0xfe079ae3[0m
0x80001ad0: fe 07 9a e3 bnez	a5, -0xc
[1;34m[src/memory/paddr.c:97 mtrace_log] R: 0x80001ac4 (len=4) data=0x00150513[0m
0x80001ac4: 00 15 05 13 addi	a0, a0, 1
[1;34m[src/memory/paddr.c:97 mtrace_log] R: 0x80001ac8 (len=4) data=0x00a707b3[0m
0x80001ac8: 00 a7 07 b3 add	a5, a4, a0
[1;34m[src/memory/paddr.c:97 mtrace_log] R: 0x80001acc (len=4) data=0x0007c783[0m
[1;34m[src/memory/paddr.c:97 mtrace_log] R: 0x80002941 (len=1) data=0x00000020[0m
0x80001acc: 00 07 c7 83 lbu	a5, 0(a5)
[1;34m[src/memory/paddr.c:97 mtrace_log] R: 0x80001ad0 (len=4) data=0xfe079ae3[0m
0x80001ad0: fe 07 9a e3 bnez	a5, -0xc
[1;34m[src/memory/paddr.c:97 mtrace_log] R: 0x80001ac4 (len=4) data=0x00150513[0m
0x80001ac4: 00 15 05 13 addi	a0, a0, 1
[1;34m[src/memory/paddr.c:97 mtrace_log] R: 0x80001ac8 (len=4) data=0x00a707b3[0m
0x80001ac8: 00 a7 07 b3 add	a5, a4, a0
[1;34m[src/memory/paddr.c:97 mtrace_log] R: 0x80001acc (len=4) data=0x0007c783[0m
[1;34m[src/memory/paddr.c:97 mtrace_log] R: 0x80002942 (len=1) data=0x00000074[0m
0x80001acc: 00 07 c7 83 lbu	a5, 0(a5)
[1;34m[src/memory/paddr.c:97 mtrace_log] R: 0x80001ad0 (len=4) data=0xfe079ae3[0m
0x80001ad0: fe 07 9a e3 bnez	a5, -0xc
[1;34m[src/memory/paddr.c:97 mtrace_log] R: 0x80001ac4 (len=4) data=0x00150513[0m
0x80001ac4: 00 15 05 13 addi	a0, a0, 1
[1;34m[src/memory/paddr.c:97 mtrace_log] R: 0x80001ac8 (len=4) data=0x00a707b3[0m
0x80001ac8: 00 a7 07 b3 add	a5, a4, a0
[1;34m[src/memory/paddr.c:97 mtrace_log] R: 0x80001acc (len=4) data=0x0007c783[0m
[1;34m[src/memory/paddr.c:97 mtrace_log] R: 0x80002943 (len=1) data=0x00000065[0m
0x80001acc: 00 07 c7 83 lbu	a5, 0(a5)
[1;34m[src/memory/paddr.c:97 mtrace_log] R: 0x80001ad0 (len=4) data=0xfe079ae3[0m
0x80001ad0: fe 07 9a e3 bnez	a5, -0xc
[1;34m[src/memory/paddr.c:97 mtrace_log] R: 0x80001ac4 (len=4) data=0x00150513[0m
0x80001ac4: 00 15 05 13 addi	a0, a0, 1
[1;34m[src/memory/paddr.c:97 mtrace_log] R: 0x80001ac8 (len=4) data=0x00a707b3[0m
0x80001ac8: 00 a7 07 b3 add	a5, a4, a0
[1;34m[src/memory/paddr.c:97 mtrace_log] R: 0x80001acc (len=4) data=0x0007c783[0m
[1;34m[src/memory/paddr.c:97 mtrace_log] R: 0x80002944 (len=1) data=0x00000073[0m
0x80001acc: 00 07 c7 83 lbu	a5, 0(a5)
[1;34m[src/memory/paddr.c:97 mtrace_log] R: 0x80001ad0 (len=4) data=0xfe079ae3[0m
0x80001ad0: fe 07 9a e3 bnez	a5, -0xc
[1;34m[src/memory/paddr.c:97 mtrace_log] R: 0x80001ac4 (len=4) data=0x00150513[0m
0x80001ac4: 00 15 05 13 addi	a0, a0, 1
[1;34m[src/memory/paddr.c:97 mtrace_log] R: 0x80001ac8 (len=4) data=0x00a707b3[0m
0x80001ac8: 00 a7 07 b3 add	a5, a4, a0
[1;34m[src/memory/paddr.c:97 mtrace_log] R: 0x80001acc (len=4) data=0x0007c783[0m
[1;34m[src/memory/paddr.c:97 mtrace_log] R: 0x80002945 (len=1) data=0x00000074[0m
0x80001acc: 00 07 c7 83 lbu	a5, 0(a5)
[1;34m[src/memory/paddr.c:97 mtrace_log] R: 0x80001ad0 (len=4) data=0xfe079ae3[0m
0x80001ad0: fe 07 9a e3 bnez	a5, -0xc
[1;34m[src/memory/paddr.c:97 mtrace_log] R: 0x80001ac4 (len=4) data=0x00150513[0m
0x80001ac4: 00 15 05 13 addi	a0, a0, 1
[1;34m[src/memory/paddr.c:97 mtrace_log] R: 0x80001ac8 (len=4) data=0x00a707b3[0m
0x80001ac8: 00 a7 07 b3 add	a5, a4, a0
[1;34m[src/memory/paddr.c:97 mtrace_log] R: 0x80001acc (len=4) data=0x0007c783[0m
[1;34m[src/memory/paddr.c:97 mtrace_log] R: 0x80002946 (len=1) data=0x00000000[0m
0x80001acc: 00 07 c7 83 lbu	a5, 0(a5)
[1;34m[src/memory/paddr.c:97 mtrace_log] R: 0x80001ad0 (len=4) data=0xfe079ae3[0m
0x80001ad0: fe 07 9a e3 bnez	a5, -0xc
[1;34m[src/memory/paddr.c:97 mtrace_log] R: 0x80001ad4 (len=4) data=0x00008067[0m
0x80001ad4: 00 00 80 67 ret
[1;34m[src/memory/paddr.c:97 mtrace_log] R: 0x800020f0 (len=4) data=0x00412703[0m
[1;34m[src/memory/paddr.c:97 mtrace_log] R: 0x8009df44 (len=4) data=0xffffffff[0m
0x800020f0: 00 41 27 03 lw	a4, 4(sp)
[1;34m[src/memory/paddr.c:97 mtrace_log] R: 0x800020f4 (len=4) data=0xfff00613[0m
0x800020f4: ff f0 06 13 addi	a2, zero, -1
[1;34m[src/memory/paddr.c:97 mtrace_log] R: 0x800020f8 (len=4) data=0x00812783[0m
[1;34m[src/memory/paddr.c:97 mtrace_log] R: 0x8009df48 (len=4) data=0x00000000[0m
0x800020f8: 00 81 27 83 lw	a5, 8(sp)
[1;34m[src/memory/paddr.c:97 mtrace_log] R: 0x800020fc (len=4) data=0x00c12683[0m
[1;34m[src/memory/paddr.c:97 mtrace_log] R: 0x8009df4c (len=4) data=0xffffffff[0m
0x800020fc: 00 c1 26 83 lw	a3, 0xc(sp)
[1;34m[src/memory/paddr.c:97 mtrace_log] R: 0x80002100 (len=4) data=0x00c70663[0m
0x80002100: 00 c7 06 63 beq	a4, a2, 0xc
[1;34m[src/memory/paddr.c:97 mtrace_log] R: 0x8000210c (len=4) data=0x0017f793[0m
0x8000210c: 00 17 f7 93 andi	a5, a5, 1
[1;34m[src/memory/paddr.c:97 mtrace_log] R: 0x80002110 (len=4) data=0x14078063[0m
0x80002110: 14 07 80 63 beqz	a5, 0x140
[1;34m[src/memory/paddr.c:97 mtrace_log] R: 0x80002250 (len=4) data=0xfff68613[0m
0x80002250: ff f6 86 13 addi	a2, a3, -1
[1;34m[src/memory/paddr.c:97 mtrace_log] R: 0x80002254 (len=4) data=0x08d55463[0m
0x80002254: 08 d5 54 63 bge	a0, a3, 0x88
[1;34m[src/memory/paddr.c:97 mtrace_log] R: 0x800022dc (len=4) data=0x00060693[0m
0x800022dc: 00 06 06 93 mv	a3, a2
[1;34m[src/memory/paddr.c:97 mtrace_log] R: 0x800022e0 (len=4) data=0xe35ff06f[0m
0x800022e0: e3 5f f0 6f j	-0x1cc
[1;34m[src/memory/paddr.c:97 mtrace_log] R: 0x80002114 (len=4) data=0x1aa05663[0m
0x80002114: 1a a0 56 63 blez	a0, 0x1ac
[1;34m[src/memory/paddr.c:97 mtrace_log] R: 0x80002118 (len=4) data=0x00a48733[0m
0x80002118: 00 a4 87 33 add	a4, s1, a0
[1;34m[src/memory/paddr.c:97 mtrace_log] R: 0x8000211c (len=4) data=0x000dc783[0m
[1;34m[src/memory/paddr.c:97 mtrace_log] R: 0x8000293c (len=1) data=0x00000061[0m
0x8000211c: 00 0d c7 83 lbu	a5, 0(s11)
[1;34m[src/memory/paddr.c:97 mtrace_log] R: 0x80002120 (len=4) data=0x00148493[0m
0x80002120: 00 14 84 93 addi	s1, s1, 1
[1;34m[src/memory/paddr.c:97 mtrace_log] R: 0x80002124 (len=4) data=0x001d8d93[0m
0x80002124: 00 1d 8d 93 addi	s11, s11, 1
[1;34m[src/memory/paddr.c:97 mtrace_log] R: 0x80002128 (len=4) data=0xfef48fa3[0m
[1;34m[src/memory/paddr.c:97 mtrace_log] W: 0x80095521 (len=1) data=0x00000061[0m
0x80002128: fe f4 8f a3 sb	a5, -1(s1)
[1;34m[src/memory/paddr.c:97 mtrace_log] R: 0x8000212c (len=4) data=0xfe9718e3[0m
0x8000212c: fe 97 18 e3 bne	a4, s1, -0x10
[1;34m[src/memory/paddr.c:97 mtrace_log] R: 0x8000211c (len=4) data=0x000dc783[0m
[1;34m[src/memory/paddr.c:97 mtrace_log] R: 0x8000293d (len=1) data=0x00000075[0m
0x8000211c: 00 0d c7 83 lbu	a5, 0(s11)
[1;34m[src/memory/paddr.c:97 mtrace_log] R: 0x80002120 (len=4) data=0x00148493[0m
0x80002120: 00 14 84 93 addi	s1, s1, 1
[1;34m[src/memory/paddr.c:97 mtrace_log] R: 0x80002124 (len=4) data=0x001d8d93[0m
0x80002124: 00 1d 8d 93 addi	s11, s11, 1
[1;34m[src/memory/paddr.c:97 mtrace_log] R: 0x80002128 (len=4) data=0xfef48fa3[0m
[1;34m[src/memory/paddr.c:97 mtrace_log] W: 0x80095522 (len=1) data=0x00000075[0m
0x80002128: fe f4 8f a3 sb	a5, -1(s1)
[1;34m[src/memory/paddr.c:97 mtrace_log] R: 0x8000212c (len=4) data=0xfe9718e3[0m
0x8000212c: fe 97 18 e3 bne	a4, s1, -0x10
[1;34m[src/memory/paddr.c:97 mtrace_log] R: 0x8000211c (len=4) data=0x000dc783[0m
[1;34m[src/memory/paddr.c:97 mtrace_log] R: 0x8000293e (len=1) data=0x00000064[0m
0x8000211c: 00 0d c7 83 lbu	a5, 0(s11)
[1;34m[src/memory/paddr.c:97 mtrace_log] R: 0x80002120 (len=4) data=0x00148493[0m
0x80002120: 00 14 84 93 addi	s1, s1, 1
[1;34m[src/memory/paddr.c:97 mtrace_log] R: 0x80002124 (len=4) data=0x001d8d93[0m
0x80002124: 00 1d 8d 93 addi	s11, s11, 1
[1;34m[src/memory/paddr.c:97 mtrace_log] R: 0x80002128 (len=4) data=0xfef48fa3[0m
[1;34m[src/memory/paddr.c:97 mtrace_log] W: 0x80095523 (len=1) data=0x00000064[0m
0x80002128: fe f4 8f a3 sb	a5, -1(s1)
[1;34m[src/memory/paddr.c:97 mtrace_log] R: 0x8000212c (len=4) data=0xfe9718e3[0m
0x8000212c: fe 97 18 e3 bne	a4, s1, -0x10
[1;34m[src/memory/paddr.c:97 mtrace_log] R: 0x8000211c (len=4) data=0x000dc783[0m
[1;34m[src/memory/paddr.c:97 mtrace_log] R: 0x8000293f (len=1) data=0x00000069[0m
0x8000211c: 00 0d c7 83 lbu	a5, 0(s11)
[1;34m[src/memory/paddr.c:97 mtrace_log] R: 0x80002120 (len=4) data=0x00148493[0m
0x80002120: 00 14 84 93 addi	s1, s1, 1
[1;34m[src/memory/paddr.c:97 mtrace_log] R: 0x80002124 (len=4) data=0x001d8d93[0m
0x80002124: 00 1d 8d 93 addi	s11, s11, 1
[1;34m[src/memory/paddr.c:97 mtrace_log] R: 0x80002128 (len=4) data=0xfef48fa3[0m
[1;34m[src/memory/paddr.c:97 mtrace_log] W: 0x80095524 (len=1) data=0x00000069[0m
0x80002128: fe f4 8f a3 sb	a5, -1(s1)
[1;34m[src/memory/paddr.c:97 mtrace_log] R: 0x8000212c (len=4) data=0xfe9718e3[0m
0x8000212c: fe 97 18 e3 bne	a4, s1, -0x10
[1;34m[src/memory/paddr.c:97 mtrace_log] R: 0x8000211c (len=4) data=0x000dc783[0m
[1;34m[src/memory/paddr.c:97 mtrace_log] R: 0x80002940 (len=1) data=0x0000006f[0m
0x8000211c: 00 0d c7 83 lbu	a5, 0(s11)
[1;34m[src/memory/paddr.c:97 mtrace_log] R: 0x80002120 (len=4) data=0x00148493[0m
0x80002120: 00 14 84 93 addi	s1, s1, 1
[1;34m[src/memory/paddr.c:97 mtrace_log] R: 0x80002124 (len=4) data=0x001d8d93[0m
0x80002124: 00 1d 8d 93 addi	s11, s11, 1
[1;34m[src/memory/paddr.c:97 mtrace_log] R: 0x80002128 (len=4) data=0xfef48fa3[0m
[1;34m[src/memory/paddr.c:97 mtrace_log] W: 0x80095525 (len=1) data=0x0000006f[0m
0x80002128: fe f4 8f a3 sb	a5, -1(s1)
[1;34m[src/memory/paddr.c:97 mtrace_log] R: 0x8000212c (len=4) data=0xfe9718e3[0m
0x8000212c: fe 97 18 e3 bne	a4, s1, -0x10
[1;34m[src/memory/paddr.c:97 mtrace_log] R: 0x8000211c (len=4) data=0x000dc783[0m
[1;34m[src/memory/paddr.c:97 mtrace_log] R: 0x80002941 (len=1) data=0x00000020[0m
0x8000211c: 00 0d c7 83 lbu	a5, 0(s11)
[1;34m[src/memory/paddr.c:97 mtrace_log] R: 0x80002120 (len=4) data=0x00148493[0m
0x80002120: 00 14 84 93 addi	s1, s1, 1
[1;34m[src/memory/paddr.c:97 mtrace_log] R: 0x80002124 (len=4) data=0x001d8d93[0m
0x80002124: 00 1d 8d 93 addi	s11, s11, 1
[1;34m[src/memory/paddr.c:97 mtrace_log] R: 0x80002128 (len=4) data=0xfef48fa3[0m
[1;34m[src/memory/paddr.c:97 mtrace_log] W: 0x80095526 (len=1) data=0x00000020[0m
0x80002128: fe f4 8f a3 sb	a5, -1(s1)
[1;34m[src/memory/paddr.c:97 mtrace_log] R: 0x8000212c (len=4) data=0xfe9718e3[0m
0x8000212c: fe 97 18 e3 bne	a4, s1, -0x10
[1;34m[src/memory/paddr.c:97 mtrace_log] R: 0x8000211c (len=4) data=0x000dc783[0m
[1;34m[src/memory/paddr.c:97 mtrace_log] R: 0x80002942 (len=1) data=0x00000074[0m
0x8000211c: 00 0d c7 83 lbu	a5, 0(s11)
[1;34m[src/memory/paddr.c:97 mtrace_log] R: 0x80002120 (len=4) data=0x00148493[0m
0x80002120: 00 14 84 93 addi	s1, s1, 1
[1;34m[src/memory/paddr.c:97 mtrace_log] R: 0x80002124 (len=4) data=0x001d8d93[0m
0x80002124: 00 1d 8d 93 addi	s11, s11, 1
[1;34m[src/memory/paddr.c:97 mtrace_log] R: 0x80002128 (len=4) data=0xfef48fa3[0m
[1;34m[src/memory/paddr.c:97 mtrace_log] W: 0x80095527 (len=1) data=0x00000074[0m
0x80002128: fe f4 8f a3 sb	a5, -1(s1)
[1;34m[src/memory/paddr.c:97 mtrace_log] R: 0x8000212c (len=4) data=0xfe9718e3[0m
0x8000212c: fe 97 18 e3 bne	a4, s1, -0x10
[1;34m[src/memory/paddr.c:97 mtrace_log] R: 0x8000211c (len=4) data=0x000dc783[0m
[1;34m[src/memory/paddr.c:97 mtrace_log] R: 0x80002943 (len=1) data=0x00000065[0m
0x8000211c: 00 0d c7 83 lbu	a5, 0(s11)
[1;34m[src/memory/paddr.c:97 mtrace_log] R: 0x80002120 (len=4) data=0x00148493[0m
0x80002120: 00 14 84 93 addi	s1, s1, 1
[1;34m[src/memory/paddr.c:97 mtrace_log] R: 0x80002124 (len=4) data=0x001d8d93[0m
0x80002124: 00 1d 8d 93 addi	s11, s11, 1
[1;34m[src/memory/paddr.c:97 mtrace_log] R: 0x80002128 (len=4) data=0xfef48fa3[0m
[1;34m[src/memory/paddr.c:97 mtrace_log] W: 0x80095528 (len=1) data=0x00000065[0m
0x80002128: fe f4 8f a3 sb	a5, -1(s1)
[1;34m[src/memory/paddr.c:97 mtrace_log] R: 0x8000212c (len=4) data=0xfe9718e3[0m
0x8000212c: fe 97 18 e3 bne	a4, s1, -0x10
[1;34m[src/memory/paddr.c:97 mtrace_log] R: 0x8000211c (len=4) data=0x000dc783[0m
[1;34m[src/memory/paddr.c:97 mtrace_log] R: 0x80002944 (len=1) data=0x00000073[0m
0x8000211c: 00 0d c7 83 lbu	a5, 0(s11)
[1;34m[src/memory/paddr.c:97 mtrace_log] R: 0x80002120 (len=4) data=0x00148493[0m
0x80002120: 00 14 84 93 addi	s1, s1, 1
[1;34m[src/memory/paddr.c:97 mtrace_log] R: 0x80002124 (len=4) data=0x001d8d93[0m
0x80002124: 00 1d 8d 93 addi	s11, s11, 1
[1;34m[src/memory/paddr.c:97 mtrace_log] R: 0x80002128 (len=4) data=0xfef48fa3[0m
[1;34m[src/memory/paddr.c:97 mtrace_log] W: 0x80095529 (len=1) data=0x00000073[0m
0x80002128: fe f4 8f a3 sb	a5, -1(s1)
[1;34m[src/memory/paddr.c:97 mtrace_log] R: 0x8000212c (len=4) data=0xfe9718e3[0m
0x8000212c: fe 97 18 e3 bne	a4, s1, -0x10
[1;34m[src/memory/paddr.c:97 mtrace_log] R: 0x8000211c (len=4) data=0x000dc783[0m
[1;34m[src/memory/paddr.c:97 mtrace_log] R: 0x80002945 (len=1) data=0x00000074[0m
0x8000211c: 00 0d c7 83 lbu	a5, 0(s11)
[1;34m[src/memory/paddr.c:97 mtrace_log] R: 0x80002120 (len=4) data=0x00148493[0m
0x80002120: 00 14 84 93 addi	s1, s1, 1
[1;34m[src/memory/paddr.c:97 mtrace_log] R: 0x80002124 (len=4) data=0x001d8d93[0m
0x80002124: 00 1d 8d 93 addi	s11, s11, 1
[1;34m[src/memory/paddr.c:97 mtrace_log] R: 0x80002128 (len=4) data=0xfef48fa3[0m
[1;34m[src/memory/paddr.c:97 mtrace_log] W: 0x8009552a (len=1) data=0x00000074[0m
0x80002128: fe f4 8f a3 sb	a5, -1(s1)
[1;34m[src/memory/paddr.c:97 mtrace_log] R: 0x8000212c (len=4) data=0xfe9718e3[0m
0x8000212c: fe 97 18 e3 bne	a4, s1, -0x10
[1;34m[src/memory/paddr.c:97 mtrace_log] R: 0x80002130 (len=4) data=0x40a684b3[0m
0x80002130: 40 a6 84 b3 sub	s1, a3, a0
[1;34m[src/memory/paddr.c:97 mtrace_log] R: 0x80002134 (len=4) data=0x00140593[0m
0x80002134: 00 14 05 93 addi	a1, s0, 1
[1;34m[src/memory/paddr.c:97 mtrace_log] R: 0x80002138 (len=4) data=0x009704b3[0m
0x80002138: 00 97 04 b3 add	s1, a4, s1
[1;34m[src/memory/paddr.c:97 mtrace_log] R: 0x8000213c (len=4) data=0x02000793[0m
0x8000213c: 02 00 07 93 addi	a5, zero, 0x20
[1;34m[src/memory/paddr.c:97 mtrace_log] R: 0x80002140 (len=4) data=0x16d55663[0m
0x80002140: 16 d5 56 63 bge	a0, a3, 0x16c
[1;34m[src/memory/paddr.c:97 mtrace_log] R: 0x800022ac (len=4) data=0x00144783[0m
[1;34m[src/memory/paddr.c:97 mtrace_log] R: 0x8000291c (len=1) data=0x0000000a[0m
0x800022ac: 00 14 47 83 lbu	a5, 1(s0)
[1;34m[src/memory/paddr.c:97 mtrace_log] R: 0x800022b0 (len=4) data=0x01c12d83[0m
[1;34m[src/memory/paddr.c:97 mtrace_log] R: 0x8009df5c (len=4) data=0x00000000[0m
0x800022b0: 01 c1 2d 83 lw	s11, 0x1c(sp)
[1;34m[src/memory/paddr.c:97 mtrace_log] R: 0x800022b4 (len=4) data=0x00070493[0m
0x800022b4: 00 07 04 93 mv	s1, a4
[1;34m[src/memory/paddr.c:97 mtrace_log] R: 0x800022b8 (len=4) data=0xbc0792e3[0m
0x800022b8: bc 07 92 e3 bnez	a5, -0x43c
[1;34m[src/memory/paddr.c:97 mtrace_log] R: 0x80001e7c (len=4) data=0x05578c63[0m
0x80001e7c: 05 57 8c 63 beq	a5, s5, 0x58
[1;34m[src/memory/paddr.c:97 mtrace_log] R: 0x80001e80 (len=4) data=0x00f48023[0m
[1;34m[src/memory/paddr.c:97 mtrace_log] W: 0x8009552b (len=1) data=0x0000000a[0m
0x80001e80: 00 f4 80 23 sb	a5, 0(s1)
[1;34m[src/memory/paddr.c:97 mtrace_log] R: 0x80001e84 (len=4) data=0x0015c783[0m
[1;34m[src/memory/paddr.c:97 mtrace_log] R: 0x8000291d (len=1) data=0x00000000[0m
0x80001e84: 00 15 c7 83 lbu	a5, 1(a1)
[1;34m[src/memory/paddr.c:97 mtrace_log] R: 0x80001e88 (len=4) data=0x00148493[0m
0x80001e88: 00 14 84 93 addi	s1, s1, 1
[1;34m[src/memory/paddr.c:97 mtrace_log] R: 0x80001e8c (len=4) data=0x00158593[0m
0x80001e8c: 00 15 85 93 addi	a1, a1, 1
[1;34m[src/memory/paddr.c:97 mtrace_log] R: 0x80001e90 (len=4) data=0xfe0796e3[0m
0x80001e90: fe 07 96 e3 bnez	a5, -0x14
[1;34m[src/memory/paddr.c:97 mtrace_log] R: 0x80001e94 (len=4) data=0x04812403[0m
[1;34m[src/memory/paddr.c:97 mtrace_log] R: 0x8009df88 (len=4) data=0x00000061[0m
0x80001e94: 04 81 24 03 lw	s0, 0x48(sp)
[1;34m[src/memory/paddr.c:97 mtrace_log] R: 0x80001e98 (len=4) data=0x04012903[0m
[1;34m[src/memory/paddr.c:97 mtrace_log] R: 0x8009df80 (len=4) data=0x00000100[0m
0x80001e98: 04 01 29 03 lw	s2, 0x40(sp)
[1;34m[src/memory/paddr.c:97 mtrace_log] R: 0x80001e9c (len=4) data=0x03c12983[0m
[1;34m[src/memory/paddr.c:97 mtrace_log] R: 0x8009df7c (len=4) data=0x80002914[0m
0x80001e9c: 03 c1 29 83 lw	s3, 0x3c(sp)
[1;34m[src/memory/paddr.c:97 mtrace_log] R: 0x80001ea0 (len=4) data=0x03812a03[0m
[1;34m[src/memory/paddr.c:97 mtrace_log] R: 0x8009df78 (len=4) data=0x00000000[0m
0x80001ea0: 03 81 2a 03 lw	s4, 0x38(sp)
[1;34m[src/memory/paddr.c:97 mtrace_log] R: 0x80001ea4 (len=4) data=0x03412a83[0m
[1;34m[src/memory/paddr.c:97 mtrace_log] R: 0x8009df74 (len=4) data=0x00000000[0m
0x80001ea4: 03 41 2a 83 lw	s5, 0x34(sp)
[1;34m[src/memory/paddr.c:97 mtrace_log] R: 0x80001ea8 (len=4) data=0x02c12b83[0m
[1;34m[src/memory/paddr.c:97 mtrace_log] R: 0x8009df6c (len=4) data=0x00000000[0m
0x80001ea8: 02 c1 2b 83 lw	s7, 0x2c(sp)
[1;34m[src/memory/paddr.c:97 mtrace_log] R: 0x80001eac (len=4) data=0x02812c03[0m
[1;34m[src/memory/paddr.c:97 mtrace_log] R: 0x8009df68 (len=4) data=0x00000000[0m
0x80001eac: 02 81 2c 03 lw	s8, 0x28(sp)
[1;34m[src/memory/paddr.c:97 mtrace_log] R: 0x80001eb0 (len=4) data=0x02412c83[0m
[1;34m[src/memory/paddr.c:97 mtrace_log] R: 0x8009df64 (len=4) data=0x00000000[0m
0x80001eb0: 02 41 2c 83 lw	s9, 0x24(sp)
[1;34m[src/memory/paddr.c:97 mtrace_log] R: 0x80001eb4 (len=4) data=0x02012d03[0m
[1;34m[src/memory/paddr.c:97 mtrace_log] R: 0x8009df60 (len=4) data=0x00000000[0m
0x80001eb4: 02 01 2d 03 lw	s10, 0x20(sp)
[1;34m[src/memory/paddr.c:97 mtrace_log] R: 0x80001eb8 (len=4) data=0x00048023[0m
[1;34m[src/memory/paddr.c:97 mtrace_log] W: 0x8009552c (len=1) data=0x00000000[0m
0x80001eb8: 00 04 80 23 sb	zero, 0(s1)
[1;34m[src/memory/paddr.c:97 mtrace_log] R: 0x80001ebc (len=4) data=0x04c12083[0m
[1;34m[src/memory/paddr.c:97 mtrace_log] R: 0x8009df8c (len=4) data=0x80002340[0m
0x80001ebc: 04 c1 20 83 lw	ra, 0x4c(sp)
[1;34m[src/memory/paddr.c:97 mtrace_log] R: 0x80001ec0 (len=4) data=0x41648533[0m
0x80001ec0: 41 64 85 33 sub	a0, s1, s6
[1;34m[src/memory/paddr.c:97 mtrace_log] R: 0x80001ec4 (len=4) data=0x04412483[0m
[1;34m[src/memory/paddr.c:97 mtrace_log] R: 0x8009df84 (len=4) data=0x80002e7c[0m
0x80001ec4: 04 41 24 83 lw	s1, 0x44(sp)
[1;34m[src/memory/paddr.c:97 mtrace_log] R: 0x80001ec8 (len=4) data=0x03012b03[0m
[1;34m[src/memory/paddr.c:97 mtrace_log] R: 0x8009df70 (len=4) data=0x00000000[0m
0x80001ec8: 03 01 2b 03 lw	s6, 0x30(sp)
[1;34m[src/memory/paddr.c:97 mtrace_log] R: 0x80001ecc (len=4) data=0x05010113[0m
0x80001ecc: 05 01 01 13 addi	sp, sp, 0x50
[1;34m[src/memory/paddr.c:97 mtrace_log] R: 0x80001ed0 (len=4) data=0x00008067[0m
0x80001ed0: 00 00 80 67 ret
[1;34m[src/memory/paddr.c:97 mtrace_log] R: 0x80002340 (len=4) data=0x00093797[0m
0x80002340: 00 09 37 97 auipc	a5, 0x93
[1;34m[src/memory/paddr.c:97 mtrace_log] R: 0x80002344 (len=4) data=0x1dc78793[0m
0x80002344: 1d c7 87 93 addi	a5, a5, 0x1dc
[1;34m[src/memory/paddr.c:97 mtrace_log] R: 0x80002348 (len=4) data=0x0007c703[0m
[1;34m[src/memory/paddr.c:97 mtrace_log] R: 0x8009551c (len=1) data=0x00000020[0m
0x80002348: 00 07 c7 03 lbu	a4, 0(a5)
[1;34m[src/memory/paddr.c:97 mtrace_log] R: 0x8000234c (len=4) data=0x00070e63[0m
0x8000234c: 00 07 0e 63 beqz	a4, 0x1c
[1;34m[src/memory/paddr.c:97 mtrace_log] R: 0x80002350 (len=4) data=0xa00006b7[0m
0x80002350: a0 00 06 b7 lui	a3, 0xa0000
[1;34m[src/memory/paddr.c:97 mtrace_log] R: 0x80002354 (len=4) data=0x3f868693[0m
0x80002354: 3f 86 86 93 addi	a3, a3, 0x3f8
[1;34m[src/memory/paddr.c:97 mtrace_log] R: 0x80002358 (len=4) data=0x00178793[0m
0x80002358: 00 17 87 93 addi	a5, a5, 1
[1;34m[src/memory/paddr.c:97 mtrace_log] R: 0x8000235c (len=4) data=0x00e68023[0m
[1;34m[src/memory/paddr.c:97 mtrace_log] W: 0xa00003f8 (len=1) data=0x00000020[0m
0x8000235c: 00 e6 80 23 sb	a4, 0(a3)
[1;34m[src/memory/paddr.c:97 mtrace_log] R: 0x80002360 (len=4) data=0x0007c703[0m
[1;34m[src/memory/paddr.c:97 mtrace_log] R: 0x8009551d (len=1) data=0x00000020[0m
0x80002360: 00 07 c7 03 lbu	a4, 0(a5)
[1;34m[src/memory/paddr.c:97 mtrace_log] R: 0x80002364 (len=4) data=0xfe071ae3[0m
0x80002364: fe 07 1a e3 bnez	a4, -0xc
[1;34m[src/memory/paddr.c:97 mtrace_log] R: 0x80002358 (len=4) data=0x00178793[0m
0x80002358: 00 17 87 93 addi	a5, a5, 1
[1;34m[src/memory/paddr.c:97 mtrace_log] R: 0x8000235c (len=4) data=0x00e68023[0m
[1;34m[src/memory/paddr.c:97 mtrace_log] W: 0xa00003f8 (len=1) data=0x00000020[0m
0x8000235c: 00 e6 80 23 sb	a4, 0(a3)
[1;34m[src/memory/paddr.c:97 mtrace_log] R: 0x80002360 (len=4) data=0x0007c703[0m
[1;34m[src/memory/paddr.c:97 mtrace_log] R: 0x8009551e (len=1) data=0x00000061[0m
0x80002360: 00 07 c7 03 lbu	a4, 0(a5)
[1;34m[src/memory/paddr.c:97 mtrace_log] R: 0x80002364 (len=4) data=0xfe071ae3[0m
0x80002364: fe 07 1a e3 bnez	a4, -0xc
[1;34m[src/memory/paddr.c:97 mtrace_log] R: 0x80002358 (len=4) data=0x00178793[0m
0x80002358: 00 17 87 93 addi	a5, a5, 1
[1;34m[src/memory/paddr.c:97 mtrace_log] R: 0x8000235c (len=4) data=0x00e68023[0m
[1;34m[src/memory/paddr.c:97 mtrace_log] W: 0xa00003f8 (len=1) data=0x00000061[0m
0x8000235c: 00 e6 80 23 sb	a4, 0(a3)
[1;34m[src/memory/paddr.c:97 mtrace_log] R: 0x80002360 (len=4) data=0x0007c703[0m
[1;34m[src/memory/paddr.c:97 mtrace_log] R: 0x8009551f (len=1) data=0x0000003a[0m
0x80002360: 00 07 c7 03 lbu	a4, 0(a5)
[1;34m[src/memory/paddr.c:97 mtrace_log] R: 0x80002364 (len=4) data=0xfe071ae3[0m
0x80002364: fe 07 1a e3 bnez	a4, -0xc
[1;34m[src/memory/paddr.c:97 mtrace_log] R: 0x80002358 (len=4) data=0x00178793[0m
0x80002358: 00 17 87 93 addi	a5, a5, 1
[1;34m[src/memory/paddr.c:97 mtrace_log] R: 0x8000235c (len=4) data=0x00e68023[0m
[1;34m[src/memory/paddr.c:97 mtrace_log] W: 0xa00003f8 (len=1) data=0x0000003a[0m
0x8000235c: 00 e6 80 23 sb	a4, 0(a3)
[1;34m[src/memory/paddr.c:97 mtrace_log] R: 0x80002360 (len=4) data=0x0007c703[0m
[1;34m[src/memory/paddr.c:97 mtrace_log] R: 0x80095520 (len=1) data=0x00000020[0m
0x80002360: 00 07 c7 03 lbu	a4, 0(a5)
[1;34m[src/memory/paddr.c:97 mtrace_log] R: 0x80002364 (len=4) data=0xfe071ae3[0m
0x80002364: fe 07 1a e3 bnez	a4, -0xc
[1;34m[src/memory/paddr.c:97 mtrace_log] R: 0x80002358 (len=4) data=0x00178793[0m
0x80002358: 00 17 87 93 addi	a5, a5, 1
[1;34m[src/memory/paddr.c:97 mtrace_log] R: 0x8000235c (len=4) data=0x00e68023[0m
[1;34m[src/memory/paddr.c:97 mtrace_log] W: 0xa00003f8 (len=1) data=0x00000020[0m
0x8000235c: 00 e6 80 23 sb	a4, 0(a3)
[1;34m[src/memory/paddr.c:97 mtrace_log] R: 0x80002360 (len=4) data=0x0007c703[0m
[1;34m[src/memory/paddr.c:97 mtrace_log] R: 0x80095521 (len=1) data=0x00000061[0m
0x80002360: 00 07 c7 03 lbu	a4, 0(a5)
[1;34m[src/memory/paddr.c:97 mtrace_log] R: 0x80002364 (len=4) data=0xfe071ae3[0m
0x80002364: fe 07 1a e3 bnez	a4, -0xc
[1;34m[src/memory/paddr.c:97 mtrace_log] R: 0x80002358 (len=4) data=0x00178793[0m
0x80002358: 00 17 87 93 addi	a5, a5, 1
[1;34m[src/memory/paddr.c:97 mtrace_log] R: 0x8000235c (len=4) data=0x00e68023[0m
[1;34m[src/memory/paddr.c:97 mtrace_log] W: 0xa00003f8 (len=1) data=0x00000061[0m
0x8000235c: 00 e6 80 23 sb	a4, 0(a3)
[1;34m[src/memory/paddr.c:97 mtrace_log] R: 0x80002360 (len=4) data=0x0007c703[0m
[1;34m[src/memory/paddr.c:97 mtrace_log] R: 0x80095522 (len=1) data=0x00000075[0m
0x80002360: 00 07 c7 03 lbu	a4, 0(a5)
[1;34m[src/memory/paddr.c:97 mtrace_log] R: 0x80002364 (len=4) data=0xfe071ae3[0m
0x80002364: fe 07 1a e3 bnez	a4, -0xc
[1;34m[src/memory/paddr.c:97 mtrace_log] R: 0x80002358 (len=4) data=0x00178793[0m
0x80002358: 00 17 87 93 addi	a5, a5, 1
[1;34m[src/memory/paddr.c:97 mtrace_log] R: 0x8000235c (len=4) data=0x00e68023[0m
[1;34m[src/memory/paddr.c:97 mtrace_log] W: 0xa00003f8 (len=1) data=0x00000075[0m
0x8000235c: 00 e6 80 23 sb	a4, 0(a3)
[1;34m[src/memory/paddr.c:97 mtrace_log] R: 0x80002360 (len=4) data=0x0007c703[0m
[1;34m[src/memory/paddr.c:97 mtrace_log] R: 0x80095523 (len=1) data=0x00000064[0m
0x80002360: 00 07 c7 03 lbu	a4, 0(a5)
[1;34m[src/memory/paddr.c:97 mtrace_log] R: 0x80002364 (len=4) data=0xfe071ae3[0m
0x80002364: fe 07 1a e3 bnez	a4, -0xc
[1;34m[src/memory/paddr.c:97 mtrace_log] R: 0x80002358 (len=4) data=0x00178793[0m
0x80002358: 00 17 87 93 addi	a5, a5, 1
[1;34m[src/memory/paddr.c:97 mtrace_log] R: 0x8000235c (len=4) data=0x00e68023[0m
[1;34m[src/memory/paddr.c:97 mtrace_log] W: 0xa00003f8 (len=1) data=0x00000064[0m
0x8000235c: 00 e6 80 23 sb	a4, 0(a3)
[1;34m[src/memory/paddr.c:97 mtrace_log] R: 0x80002360 (len=4) data=0x0007c703[0m
[1;34m[src/memory/paddr.c:97 mtrace_log] R: 0x80095524 (len=1) data=0x00000069[0m
0x80002360: 00 07 c7 03 lbu	a4, 0(a5)
[1;34m[src/memory/paddr.c:97 mtrace_log] R: 0x80002364 (len=4) data=0xfe071ae3[0m
0x80002364: fe 07 1a e3 bnez	a4, -0xc
[1;34m[src/memory/paddr.c:97 mtrace_log] R: 0x80002358 (len=4) data=0x00178793[0m
0x80002358: 00 17 87 93 addi	a5, a5, 1
[1;34m[src/memory/paddr.c:97 mtrace_log] R: 0x8000235c (len=4) data=0x00e68023[0m
[1;34m[src/memory/paddr.c:97 mtrace_log] W: 0xa00003f8 (len=1) data=0x00000069[0m
0x8000235c: 00 e6 80 23 sb	a4, 0(a3)
[1;34m[src/memory/paddr.c:97 mtrace_log] R: 0x80002360 (len=4) data=0x0007c703[0m
[1;34m[src/memory/paddr.c:97 mtrace_log] R: 0x80095525 (len=1) data=0x0000006f[0m
0x80002360: 00 07 c7 03 lbu	a4, 0(a5)
[1;34m[src/memory/paddr.c:97 mtrace_log] R: 0x80002364 (len=4) data=0xfe071ae3[0m
0x80002364: fe 07 1a e3 bnez	a4, -0xc
[1;34m[src/memory/paddr.c:97 mtrace_log] R: 0x80002358 (len=4) data=0x00178793[0m
0x80002358: 00 17 87 93 addi	a5, a5, 1
[1;34m[src/memory/paddr.c:97 mtrace_log] R: 0x8000235c (len=4) data=0x00e68023[0m
[1;34m[src/memory/paddr.c:97 mtrace_log] W: 0xa00003f8 (len=1) data=0x0000006f[0m
0x8000235c: 00 e6 80 23 sb	a4, 0(a3)
[1;34m[src/memory/paddr.c:97 mtrace_log] R: 0x80002360 (len=4) data=0x0007c703[0m
[1;34m[src/memory/paddr.c:97 mtrace_log] R: 0x80095526 (len=1) data=0x00000020[0m
0x80002360: 00 07 c7 03 lbu	a4, 0(a5)
[1;34m[src/memory/paddr.c:97 mtrace_log] R: 0x80002364 (len=4) data=0xfe071ae3[0m
0x80002364: fe 07 1a e3 bnez	a4, -0xc
[1;34m[src/memory/paddr.c:97 mtrace_log] R: 0x80002358 (len=4) data=0x00178793[0m
0x80002358: 00 17 87 93 addi	a5, a5, 1
[1;34m[src/memory/paddr.c:97 mtrace_log] R: 0x8000235c (len=4) data=0x00e68023[0m
[1;34m[src/memory/paddr.c:97 mtrace_log] W: 0xa00003f8 (len=1) data=0x00000020[0m
0x8000235c: 00 e6 80 23 sb	a4, 0(a3)
[1;34m[src/memory/paddr.c:97 mtrace_log] R: 0x80002360 (len=4) data=0x0007c703[0m
[1;34m[src/memory/paddr.c:97 mtrace_log] R: 0x80095527 (len=1) data=0x00000074[0m
0x80002360: 00 07 c7 03 lbu	a4, 0(a5)
[1;34m[src/memory/paddr.c:97 mtrace_log] R: 0x80002364 (len=4) data=0xfe071ae3[0m
0x80002364: fe 07 1a e3 bnez	a4, -0xc
[1;34m[src/memory/paddr.c:97 mtrace_log] R: 0x80002358 (len=4) data=0x00178793[0m
0x80002358: 00 17 87 93 addi	a5, a5, 1
[1;34m[src/memory/paddr.c:97 mtrace_log] R: 0x8000235c (len=4) data=0x00e68023[0m
[1;34m[src/memory/paddr.c:97 mtrace_log] W: 0xa00003f8 (len=1) data=0x00000074[0m
0x8000235c: 00 e6 80 23 sb	a4, 0(a3)
[1;34m[src/memory/paddr.c:97 mtrace_log] R: 0x80002360 (len=4) data=0x0007c703[0m
[1;34m[src/memory/paddr.c:97 mtrace_log] R: 0x80095528 (len=1) data=0x00000065[0m
0x80002360: 00 07 c7 03 lbu	a4, 0(a5)
[1;34m[src/memory/paddr.c:97 mtrace_log] R: 0x80002364 (len=4) data=0xfe071ae3[0m
0x80002364: fe 07 1a e3 bnez	a4, -0xc
[1;34m[src/memory/paddr.c:97 mtrace_log] R: 0x80002358 (len=4) data=0x00178793[0m
0x80002358: 00 17 87 93 addi	a5, a5, 1
[1;34m[src/memory/paddr.c:97 mtrace_log] R: 0x8000235c (len=4) data=0x00e68023[0m
[1;34m[src/memory/paddr.c:97 mtrace_log] W: 0xa00003f8 (len=1) data=0x00000065[0m
0x8000235c: 00 e6 80 23 sb	a4, 0(a3)
[1;34m[src/memory/paddr.c:97 mtrace_log] R: 0x80002360 (len=4) data=0x0007c703[0m
[1;34m[src/memory/paddr.c:97 mtrace_log] R: 0x80095529 (len=1) data=0x00000073[0m
0x80002360: 00 07 c7 03 lbu	a4, 0(a5)
[1;34m[src/memory/paddr.c:97 mtrace_log] R: 0x80002364 (len=4) data=0xfe071ae3[0m
0x80002364: fe 07 1a e3 bnez	a4, -0xc
[1;34m[src/memory/paddr.c:97 mtrace_log] R: 0x80002358 (len=4) data=0x00178793[0m
0x80002358: 00 17 87 93 addi	a5, a5, 1
[1;34m[src/memory/paddr.c:97 mtrace_log] R: 0x8000235c (len=4) data=0x00e68023[0m
[1;34m[src/memory/paddr.c:97 mtrace_log] W: 0xa00003f8 (len=1) data=0x00000073[0m
0x8000235c: 00 e6 80 23 sb	a4, 0(a3)
[1;34m[src/memory/paddr.c:97 mtrace_log] R: 0x80002360 (len=4) data=0x0007c703[0m
[1;34m[src/memory/paddr.c:97 mtrace_log] R: 0x8009552a (len=1) data=0x00000074[0m
0x80002360: 00 07 c7 03 lbu	a4, 0(a5)
[1;34m[src/memory/paddr.c:97 mtrace_log] R: 0x80002364 (len=4) data=0xfe071ae3[0m
0x80002364: fe 07 1a e3 bnez	a4, -0xc
[1;34m[src/memory/paddr.c:97 mtrace_log] R: 0x80002358 (len=4) data=0x00178793[0m
0x80002358: 00 17 87 93 addi	a5, a5, 1
[1;34m[src/memory/paddr.c:97 mtrace_log] R: 0x8000235c (len=4) data=0x00e68023[0m
[1;34m[src/memory/paddr.c:97 mtrace_log] W: 0xa00003f8 (len=1) data=0x00000074[0m
0x8000235c: 00 e6 80 23 sb	a4, 0(a3)
[1;34m[src/memory/paddr.c:97 mtrace_log] R: 0x80002360 (len=4) data=0x0007c703[0m
[1;34m[src/memory/paddr.c:97 mtrace_log] R: 0x8009552b (len=1) data=0x0000000a[0m
0x80002360: 00 07 c7 03 lbu	a4, 0(a5)
[1;34m[src/memory/paddr.c:97 mtrace_log] R: 0x80002364 (len=4) data=0xfe071ae3[0m
0x80002364: fe 07 1a e3 bnez	a4, -0xc
[1;34m[src/memory/paddr.c:97 mtrace_log] R: 0x80002358 (len=4) data=0x00178793[0m
0x80002358: 00 17 87 93 addi	a5, a5, 1
[1;34m[src/memory/paddr.c:97 mtrace_log] R: 0x8000235c (len=4) data=0x00e68023[0m
[1;34m[src/memory/paddr.c:97 mtrace_log] W: 0xa00003f8 (len=1) data=0x0000000a[0m
0x8000235c: 00 e6 80 23 sb	a4, 0(a3)
[1;34m[src/memory/paddr.c:97 mtrace_log] R: 0x80002360 (len=4) data=0x0007c703[0m
[1;34m[src/memory/paddr.c:97 mtrace_log] R: 0x8009552c (len=1) data=0x00000000[0m
0x80002360: 00 07 c7 03 lbu	a4, 0(a5)
[1;34m[src/memory/paddr.c:97 mtrace_log] R: 0x80002364 (len=4) data=0xfe071ae3[0m
0x80002364: fe 07 1a e3 bnez	a4, -0xc
[1;34m[src/memory/paddr.c:97 mtrace_log] R: 0x80002368 (len=4) data=0x01c12083[0m
[1;34m[src/memory/paddr.c:97 mtrace_log] R: 0x8009dfac (len=4) data=0x80000e90[0m
0x80002368: 01 c1 20 83 lw	ra, 0x1c(sp)
[1;34m[src/memory/paddr.c:97 mtrace_log] R: 0x8000236c (len=4) data=0x04010113[0m
0x8000236c: 04 01 01 13 addi	sp, sp, 0x40
[1;34m[src/memory/paddr.c:97 mtrace_log] R: 0x80002370 (len=4) data=0x00008067[0m
0x80002370: 00 00 80 67 ret
[1;34m[src/memory/paddr.c:97 mtrace_log] R: 0x80000e90 (len=4) data=0x00140413[0m
0x80000e90: 00 14 04 13 addi	s0, s0, 1
[1;34m[src/memory/paddr.c:97 mtrace_log] R: 0x80000e94 (len=4) data=0x00448493[0m
0x80000e94: 00 44 84 93 addi	s1, s1, 4
[1;34m[src/memory/paddr.c:97 mtrace_log] R: 0x80000e98 (len=4) data=0xff2412e3[0m
0x80000e98: ff 24 12 e3 bne	s0, s2, -0x1c
[1;34m[src/memory/paddr.c:97 mtrace_log] R: 0x80000e7c (len=4) data=0x0004a603[0m
[1;34m[src/memory/paddr.c:97 mtrace_log] R: 0x80002e80 (len=4) data=0x00000000[0m
0x80000e7c: 00 04 a6 03 lw	a2, 0(s1)
[1;34m[src/memory/paddr.c:97 mtrace_log] R: 0x80000e80 (len=4) data=0x00060863[0m
0x80000e80: 00 06 08 63 beqz	a2, 0x10
[1;34m[src/memory/paddr.c:97 mtrace_log] R: 0x80000e90 (len=4) data=0x00140413[0m
0x80000e90: 00 14 04 13 addi	s0, s0, 1
[1;34m[src/memory/paddr.c:97 mtrace_log] R: 0x80000e94 (len=4) data=0x00448493[0m
0x80000e94: 00 44 84 93 addi	s1, s1, 4
[1;34m[src/memory/paddr.c:97 mtrace_log] R: 0x80000e98 (len=4) data=0xff2412e3[0m
0x80000e98: ff 24 12 e3 bne	s0, s2, -0x1c
[1;34m[src/memory/paddr.c:97 mtrace_log] R: 0x80000e7c (len=4) data=0x0004a603[0m
[1;34m[src/memory/paddr.c:97 mtrace_log] R: 0x80002e84 (len=4) data=0x00000000[0m
0x80000e7c: 00 04 a6 03 lw	a2, 0(s1)
[1;34m[src/memory/paddr.c:97 mtrace_log] R: 0x80000e80 (len=4) data=0x00060863[0m
0x80000e80: 00 06 08 63 beqz	a2, 0x10
[1;34m[src/memory/paddr.c:97 mtrace_log] R: 0x80000e90 (len=4) data=0x00140413[0m
0x80000e90: 00 14 04 13 addi	s0, s0, 1
[1;34m[src/memory/paddr.c:97 mtrace_log] R: 0x80000e94 (len=4) data=0x00448493[0m
0x80000e94: 00 44 84 93 addi	s1, s1, 4
[1;34m[src/memory/paddr.c:97 mtrace_log] R: 0x80000e98 (len=4) data=0xff2412e3[0m
0x80000e98: ff 24 12 e3 bne	s0, s2, -0x1c
[1;34m[src/memory/paddr.c:97 mtrace_log] R: 0x80000e7c (len=4) data=0x0004a603[0m
[1;34m[src/memory/paddr.c:97 mtrace_log] R: 0x80002e88 (len=4) data=0x80002948[0m
0x80000e7c: 00 04 a6 03 lw	a2, 0(s1)
[1;34m[src/memory/paddr.c:97 mtrace_log] R: 0x80000e80 (len=4) data=0x00060863[0m
0x80000e80: 00 06 08 63 beqz	a2, 0x10
[1;34m[src/memory/paddr.c:97 mtrace_log] R: 0x80000e84 (len=4) data=0x00040593[0m
0x80000e84: 00 04 05 93 mv	a1, s0
[1;34m[src/memory/paddr.c:97 mtrace_log] R: 0x80000e88 (len=4) data=0x00098513[0m
0x80000e88: 00 09 85 13 mv	a0, s3
[1;34m[src/memory/paddr.c:97 mtrace_log] R: 0x80000e8c (len=4) data=0x474010ef[0m
0x80000e8c: 47 40 10 ef jal	0x1474
[1;34m[src/memory/paddr.c:97 mtrace_log] R: 0x80002300 (len=4) data=0xfc010113[0m
0x80002300: fc 01 01 13 addi	sp, sp, -0x40
[1;34m[src/memory/paddr.c:97 mtrace_log] R: 0x80002304 (len=4) data=0x02410313[0m
0x80002304: 02 41 03 13 addi	t1, sp, 0x24
[1;34m[src/memory/paddr.c:97 mtrace_log] R: 0x80002308 (len=4) data=0x02b12223[0m
[1;34m[src/memory/paddr.c:97 mtrace_log] W: 0x8009dfb4 (len=4) data=0x00000064[0m
0x80002308: 02 b1 22 23 sw	a1, 0x24(sp)
[1;34m[src/memory/paddr.c:97 mtrace_log] R: 0x8000230c (len=4) data=0x02c12423[0m
[1;34m[src/memory/paddr.c:97 mtrace_log] W: 0x8009dfb8 (len=4) data=0x80002948[0m
0x8000230c: 02 c1 24 23 sw	a2, 0x28(sp)
[1;34m[src/memory/paddr.c:97 mtrace_log] R: 0x80002310 (len=4) data=0x00050593[0m
0x80002310: 00 05 05 93 mv	a1, a0
[1;34m[src/memory/paddr.c:97 mtrace_log] R: 0x80002314 (len=4) data=0x00030613[0m
0x80002314: 00 03 06 13 mv	a2, t1
[1;34m[src/memory/paddr.c:97 mtrace_log] R: 0x80002318 (len=4) data=0x00093517[0m
0x80002318: 00 09 35 17 auipc	a0, 0x93
[1;34m[src/memory/paddr.c:97 mtrace_log] R: 0x8000231c (len=4) data=0x20450513[0m
0x8000231c: 20 45 05 13 addi	a0, a0, 0x204
[1;34m[src/memory/paddr.c:97 mtrace_log] R: 0x80002320 (len=4) data=0x02e12823[0m
[1;34m[src/memory/paddr.c:97 mtrace_log] W: 0x8009dfc0 (len=4) data=0x00000000[0m
0x80002320: 02 e1 28 23 sw	a4, 0x30(sp)
[1;34m[src/memory/paddr.c:97 mtrace_log] R: 0x80002324 (len=4) data=0x02f12a23[0m
[1;34m[src/memory/paddr.c:97 mtrace_log] W: 0x8009dfc4 (len=4) data=0x8009552c[0m
0x80002324: 02 f1 2a 23 sw	a5, 0x34(sp)
[1;34m[src/memory/paddr.c:97 mtrace_log] R: 0x80002328 (len=4) data=0x00112e23[0m
[1;34m[src/memory/paddr.c:97 mtrace_log] W: 0x8009dfac (len=4) data=0x80000e90[0m
0x80002328: 00 11 2e 23 sw	ra, 0x1c(sp)
[1;34m[src/memory/paddr.c:97 mtrace_log] R: 0x8000232c (len=4) data=0x02d12623[0m
[1;34m[src/memory/paddr.c:97 mtrace_log] W: 0x8009dfbc (len=4) data=0xa00003f8[0m
0x8000232c: 02 d1 26 23 sw	a3, 0x2c(sp)
[1;34m[src/memory/paddr.c:97 mtrace_log] R: 0x80002330 (len=4) data=0x03012c23[0m
[1;34m[src/memory/paddr.c:97 mtrace_log] W: 0x8009dfc8 (len=4) data=0x800032b4[0m
0x80002330: 03 01 2c 23 sw	a6, 0x38(sp)
[1;34m[src/memory/paddr.c:97 mtrace_log] R: 0x80002334 (len=4) data=0x03112e23[0m
[1;34m[src/memory/paddr.c:97 mtrace_log] W: 0x8009dfcc (len=4) data=0x00000000[0m
0x80002334: 03 11 2e 23 sw	a7, 0x3c(sp)
[1;34m[src/memory/paddr.c:97 mtrace_log] R: 0x80002338 (len=4) data=0x00612623[0m
[1;34m[src/memory/paddr.c:97 mtrace_log] W: 0x8009df9c (len=4) data=0x8009dfb4[0m
0x80002338: 00 61 26 23 sw	t1, 0xc(sp)
[1;34m[src/memory/paddr.c:97 mtrace_log] R: 0x8000233c (len=4) data=0xad5ff0ef[0m
0x8000233c: ad 5f f0 ef jal	-0x52c
[1;34m[src/memory/paddr.c:97 mtrace_log] R: 0x80001e10 (len=4) data=0xfb010113[0m
0x80001e10: fb 01 01 13 addi	sp, sp, -0x50
[1;34m[src/memory/paddr.c:97 mtrace_log] R: 0x80001e14 (len=4) data=0x03612823[0m
[1;34m[src/memory/paddr.c:97 mtrace_log] W: 0x8009df70 (len=4) data=0x00000000[0m
0x80001e14: 03 61 28 23 sw	s6, 0x30(sp)
[1;34m[src/memory/paddr.c:97 mtrace_log] R: 0x80001e18 (len=4) data=0x04112623[0m
[1;34m[src/memory/paddr.c:97 mtrace_log] W: 0x8009df8c (len=4) data=0x80002340[0m
0x80001e18: 04 11 26 23 sw	ra, 0x4c(sp)
[1;34m[src/memory/paddr.c:97 mtrace_log] R: 0x80001e1c (len=4) data=0x04912223[0m
[1;34m[src/memory/paddr.c:97 mtrace_log] W: 0x8009df84 (len=4) data=0x80002e88[0m
0x80001e1c: 04 91 22 23 sw	s1, 0x44(sp)
[1;34m[src/memory/paddr.c:97 mtrace_log] R: 0x80001e20 (len=4) data=0x0005c783[0m
[1;34m[src/memory/paddr.c:97 mtrace_log] R: 0x80002914 (len=1) data=0x00000020[0m
0x80001e20: 00 05 c7 83 lbu	a5, 0(a1)
[1;34m[src/memory/paddr.c:97 mtrace_log] R: 0x80001e24 (len=4) data=0x00050b13[0m
0x80001e24: 00 05 0b 13 mv	s6, a0
[1;34m[src/memory/paddr.c:97 mtrace_log] R: 0x80001e28 (len=4) data=0x44078a63[0m
0x80001e28: 44 07 8a 63 beqz	a5, 0x454
[1;34m[src/memory/paddr.c:97 mtrace_log] R: 0x80001e2c (len=4) data=0x05212023[0m
[1;34m[src/memory/paddr.c:97 mtrace_log] W: 0x8009df80 (len=4) data=0x00000100[0m
0x80001e2c: 05 21 20 23 sw	s2, 0x40(sp)
[1;34m[src/memory/paddr.c:97 mtrace_log] R: 0x80001e30 (len=4) data=0x03312e23[0m
[1;34m[src/memory/paddr.c:97 mtrace_log] W: 0x8009df7c (len=4) data=0x80002914[0m
0x80001e30: 03 31 2e 23 sw	s3, 0x3c(sp)
[1;34m[src/memory/paddr.c:97 mtrace_log] R: 0x80001e34 (len=4) data=0x03412c23[0m
[1;34m[src/memory/paddr.c:97 mtrace_log] W: 0x8009df78 (len=4) data=0x00000000[0m
0x80001e34: 03 41 2c 23 sw	s4, 0x38(sp)
[1;34m[src/memory/paddr.c:97 mtrace_log] R: 0x80001e38 (len=4) data=0x03512a23[0m
[1;34m[src/memory/paddr.c:97 mtrace_log] W: 0x8009df74 (len=4) data=0x00000000[0m
0x80001e38: 03 51 2a 23 sw	s5, 0x34(sp)
[1;34m[src/memory/paddr.c:97 mtrace_log] R: 0x80001e3c (len=4) data=0x03712623[0m
[1;34m[src/memory/paddr.c:97 mtrace_log] W: 0x8009df6c (len=4) data=0x00000000[0m
0x80001e3c: 03 71 26 23 sw	s7, 0x2c(sp)
[1;34m[src/memory/paddr.c:97 mtrace_log] R: 0x80001e40 (len=4) data=0x03812423[0m
[1;34m[src/memory/paddr.c:97 mtrace_log] W: 0x8009df68 (len=4) data=0x00000000[0m
0x80001e40: 03 81 24 23 sw	s8, 0x28(sp)
[1;34m[src/memory/paddr.c:97 mtrace_log] R: 0x80001e44 (len=4) data=0x03912223[0m
[1;34m[src/memory/paddr.c:97 mtrace_log] W: 0x8009df64 (len=4) data=0x00000000[0m
0x80001e44: 03 91 22 23 sw	s9, 0x24(sp)
[1;34m[src/memory/paddr.c:97 mtrace_log] R: 0x80001e48 (len=4) data=0x03a12023[0m
[1;34m[src/memory/paddr.c:97 mtrace_log] W: 0x8009df60 (len=4) data=0x00000000[0m
0x80001e48: 03 a1 20 23 sw	s10, 0x20(sp)
[1;34m[src/memory/paddr.c:97 mtrace_log] R: 0x80001e4c (len=4) data=0x04812423[0m
[1;34m[src/memory/paddr.c:97 mtrace_log] W: 0x8009df88 (len=4) data=0x00000064[0m
0x80001e4c: 04 81 24 23 sw	s0, 0x48(sp)
[1;34m[src/memory/paddr.c:97 mtrace_log] R: 0x80001e50 (len=4) data=0x00060a13[0m
0x80001e50: 00 06 0a 13 mv	s4, a2
[1;34m[src/memory/paddr.c:97 mtrace_log] R: 0x80001e54 (len=4) data=0x00050493[0m
0x80001e54: 00 05 04 93 mv	s1, a0
[1;34m[src/memory/paddr.c:97 mtrace_log] R: 0x80001e58 (len=4) data=0x02500a93[0m
0x80001e58: 02 50 0a 93 addi	s5, zero, 0x25
[1;34m[src/memory/paddr.c:97 mtrace_log] R: 0x80001e5c (len=4) data=0x01000993[0m
0x80001e5c: 01 00 09 93 addi	s3, zero, 0x10
[1;34m[src/memory/paddr.c:97 mtrace_log] R: 0x80001e60 (len=4) data=0x00001917[0m
0x80001e60: 00 00 19 17 auipc	s2, 1
[1;34m[src/memory/paddr.c:97 mtrace_log] R: 0x80001e64 (len=4) data=0x2d890913[0m
0x80001e64: 2d 89 09 13 addi	s2, s2, 0x2d8
[1;34m[src/memory/paddr.c:97 mtrace_log] R: 0x80001e68 (len=4) data=0x00900d13[0m
0x80001e68: 00 90 0d 13 addi	s10, zero, 9
[1;34m[src/memory/paddr.c:97 mtrace_log] R: 0x80001e6c (len=4) data=0x02e00c93[0m
0x80001e6c: 02 e0 0c 93 addi	s9, zero, 0x2e
[1;34m[src/memory/paddr.c:97 mtrace_log] R: 0x80001e70 (len=4) data=0x06800c13[0m
0x80001e70: 06 80 0c 13 addi	s8, zero, 0x68
[1;34m[src/memory/paddr.c:97 mtrace_log] R: 0x80001e74 (len=4) data=0x00001b97[0m
0x80001e74: 00 00 1b 97 auipc	s7, 1
[1;34m[src/memory/paddr.c:97 mtrace_log] R: 0x80001e78 (len=4) data=0x308b8b93[0m
0x80001e78: 30 8b 8b 93 addi	s7, s7, 0x308
[1;34m[src/memory/paddr.c:97 mtrace_log] R: 0x80001e7c (len=4) data=0x05578c63[0m
0x80001e7c: 05 57 8c 63 beq	a5, s5, 0x58
[1;34m[src/memory/paddr.c:97 mtrace_log] R: 0x80001e80 (len=4) data=0x00f48023[0m
[1;34m[src/memory/paddr.c:97 mtrace_log] W: 0x8009551c (len=1) data=0x00000020[0m
0x80001e80: 00 f4 80 23 sb	a5, 0(s1)
[1;34m[src/memory/paddr.c:97 mtrace_log] R: 0x80001e84 (len=4) data=0x0015c783[0m
[1;34m[src/memory/paddr.c:97 mtrace_log] R: 0x80002915 (len=1) data=0x00000020[0m
0x80001e84: 00 15 c7 83 lbu	a5, 1(a1)
[1;34m[src/memory/paddr.c:97 mtrace_log] R: 0x80001e88 (len=4) data=0x00148493[0m
0x80001e88: 00 14 84 93 addi	s1, s1, 1
[1;34m[src/memory/paddr.c:97 mtrace_log] R: 0x80001e8c (len=4) data=0x00158593[0m
0x80001e8c: 00 15 85 93 addi	a1, a1, 1
[1;34m[src/memory/paddr.c:97 mtrace_log] R: 0x80001e90 (len=4) data=0xfe0796e3[0m
0x80001e90: fe 07 96 e3 bnez	a5, -0x14
[1;34m[src/memory/paddr.c:97 mtrace_log] R: 0x80001e7c (len=4) data=0x05578c63[0m
0x80001e7c: 05 57 8c 63 beq	a5, s5, 0x58
[1;34m[src/memory/paddr.c:97 mtrace_log] R: 0x80001e80 (len=4) data=0x00f48023[0m
[1;34m[src/memory/paddr.c:97 mtrace_log] W: 0x8009551d (len=1) data=0x00000020[0m
0x80001e80: 00 f4 80 23 sb	a5, 0(s1)
[1;34m[src/memory/paddr.c:97 mtrace_log] R: 0x80001e84 (len=4) data=0x0015c783[0m
[1;34m[src/memory/paddr.c:97 mtrace_log] R: 0x80002916 (len=1) data=0x00000025[0m
0x80001e84: 00 15 c7 83 lbu	a5, 1(a1)
[1;34m[src/memory/paddr.c:97 mtrace_log] R: 0x80001e88 (len=4) data=0x00148493[0m
0x80001e88: 00 14 84 93 addi	s1, s1, 1
[1;34m[src/memory/paddr.c:97 mtrace_log] R: 0x80001e8c (len=4) data=0x00158593[0m
0x80001e8c: 00 15 85 93 addi	a1, a1, 1
[1;34m[src/memory/paddr.c:97 mtrace_log] R: 0x80001e90 (len=4) data=0xfe0796e3[0m
0x80001e90: fe 07 96 e3 bnez	a5, -0x14
[1;34m[src/memory/paddr.c:97 mtrace_log] R: 0x80001e7c (len=4) data=0x05578c63[0m
0x80001e7c: 05 57 8c 63 beq	a5, s5, 0x58
[1;34m[src/memory/paddr.c:97 mtrace_log] R: 0x80001ed4 (len=4) data=0x00000793[0m
0x80001ed4: 00 00 07 93 mv	a5, zero
[1;34m[src/memory/paddr.c:97 mtrace_log] R: 0x80001ed8 (len=4) data=0x0015c803[0m
[1;34m[src/memory/paddr.c:97 mtrace_log] R: 0x80002917 (len=1) data=0x00000063[0m
0x80001ed8: 00 15 c8 03 lbu	a6, 1(a1)
[1;34m[src/memory/paddr.c:97 mtrace_log] R: 0x80001edc (len=4) data=0x00158413[0m
0x80001edc: 00 15 84 13 addi	s0, a1, 1
[1;34m[src/memory/paddr.c:97 mtrace_log] R: 0x80001ee0 (len=4) data=0xfe080713[0m
0x80001ee0: fe 08 07 13 addi	a4, a6, -0x20
[1;34m[src/memory/paddr.c:97 mtrace_log] R: 0x80001ee4 (len=4) data=0x0ff77713[0m
0x80001ee4: 0f f7 77 13 andi	a4, a4, 0xff
[1;34m[src/memory/paddr.c:97 mtrace_log] R: 0x80001ee8 (len=4) data=0x00e9ec63[0m
0x80001ee8: 00 e9 ec 63 bltu	s3, a4, 0x18
[1;34m[src/memory/paddr.c:97 mtrace_log] R: 0x80001f00 (len=4) data=0xfd080713[0m
0x80001f00: fd 08 07 13 addi	a4, a6, -0x30
[1;34m[src/memory/paddr.c:97 mtrace_log] R: 0x80001f04 (len=4) data=0x0ff77713[0m
0x80001f04: 0f f7 77 13 andi	a4, a4, 0xff
[1;34m[src/memory/paddr.c:97 mtrace_log] R: 0x80001f08 (len=4) data=0x0ced7263[0m
0x80001f08: 0c ed 72 63 bgeu	s10, a4, 0xc4
[1;34m[src/memory/paddr.c:97 mtrace_log] R: 0x80001f0c (len=4) data=0x02a00713[0m
0x80001f0c: 02 a0 07 13 addi	a4, zero, 0x2a
[1;34m[src/memory/paddr.c:97 mtrace_log] R: 0x80001f10 (len=4) data=0xfff00693[0m
0x80001f10: ff f0 06 93 addi	a3, zero, -1
[1;34m[src/memory/paddr.c:97 mtrace_log] R: 0x80001f14 (len=4) data=0x00e81a63[0m
0x80001f14: 00 e8 1a 63 bne	a6, a4, 0x14
[1;34m[src/memory/paddr.c:97 mtrace_log] R: 0x80001f28 (len=4) data=0xfff00713[0m
0x80001f28: ff f0 07 13 addi	a4, zero, -1
[1;34m[src/memory/paddr.c:97 mtrace_log] R: 0x80001f2c (len=4) data=0x07980a63[0m
0x80001f2c: 07 98 0a 63 beq	a6, s9, 0x74
[1;34m[src/memory/paddr.c:97 mtrace_log] R: 0x80001f30 (len=4) data=0x0fb87613[0m
0x80001f30: 0f b8 76 13 andi	a2, a6, 0xfb
[1;34m[src/memory/paddr.c:97 mtrace_log] R: 0x80001f34 (len=4) data=0x01861663[0m
0x80001f34: 01 86 16 63 bne	a2, s8, 0xc
[1;34m[src/memory/paddr.c:97 mtrace_log] R: 0x80001f40 (len=4) data=0xfdb80813[0m
0x80001f40: fd b8 08 13 addi	a6, a6, -0x25
[1;34m[src/memory/paddr.c:97 mtrace_log] R: 0x80001f44 (len=4) data=0x0ff87813[0m
0x80001f44: 0f f8 78 13 andi	a6, a6, 0xff
[1;34m[src/memory/paddr.c:97 mtrace_log] R: 0x80001f48 (len=4) data=0x05300613[0m
0x80001f48: 05 30 06 13 addi	a2, zero, 0x53
[1;34m[src/memory/paddr.c:97 mtrace_log] R: 0x80001f4c (len=4) data=0x0b066c63[0m
0x80001f4c: 0b 06 6c 63 bltu	a2, a6, 0xb8
[1;34m[src/memory/paddr.c:97 mtrace_log] R: 0x80001f50 (len=4) data=0x00281813[0m
0x80001f50: 00 28 18 13 slli	a6, a6, 2
[1;34m[src/memory/paddr.c:97 mtrace_log] R: 0x80001f54 (len=4) data=0x01780833[0m
0x80001f54: 01 78 08 33 add	a6, a6, s7
[1;34m[src/memory/paddr.c:97 mtrace_log] R: 0x80001f58 (len=4) data=0x00082603[0m
[1;34m[src/memory/paddr.c:97 mtrace_log] R: 0x80003274 (len=4) data=0xffffef08[0m
0x80001f58: 00 08 26 03 lw	a2, 0(a6)
[1;34m[src/memory/paddr.c:97 mtrace_log] R: 0x80001f5c (len=4) data=0x01760633[0m
0x80001f5c: 01 76 06 33 add	a2, a2, s7
[1;34m[src/memory/paddr.c:97 mtrace_log] R: 0x80001f60 (len=4) data=0x00060067[0m
0x80001f60: 00 06 00 67 jr	a2
[1;34m[src/memory/paddr.c:97 mtrace_log] R: 0x80002084 (len=4) data=0x0017f793[0m
0x80002084: 00 17 f7 93 andi	a5, a5, 1
[1;34m[src/memory/paddr.c:97 mtrace_log] R: 0x80002088 (len=4) data=0x004a0613[0m
0x80002088: 00 4a 06 13 addi	a2, s4, 4
[1;34m[src/memory/paddr.c:97 mtrace_log] R: 0x8000208c (len=4) data=0x00140593[0m
0x8000208c: 00 14 05 93 addi	a1, s0, 1
[1;34m[src/memory/paddr.c:97 mtrace_log] R: 0x80002090 (len=4) data=0x18078c63[0m
0x80002090: 18 07 8c 63 beqz	a5, 0x198
[1;34m[src/memory/paddr.c:97 mtrace_log] R: 0x80002228 (len=4) data=0x00100793[0m
0x80002228: 00 10 07 93 addi	a5, zero, 1
[1;34m[src/memory/paddr.c:97 mtrace_log] R: 0x8000222c (len=4) data=0x0ad7dc63[0m
0x8000222c: 0a d7 dc 63 bge	a5, a3, 0xb8
[1;34m[src/memory/paddr.c:97 mtrace_log] R: 0x800022e4 (len=4) data=0x000a2783[0m
[1;34m[src/memory/paddr.c:97 mtrace_log] R: 0x8009dfb4 (len=4) data=0x00000064[0m
0x800022e4: 00 0a 27 83 lw	a5, 0(s4)
[1;34m[src/memory/paddr.c:97 mtrace_log] R: 0x800022e8 (len=4) data=0x00148493[0m
0x800022e8: 00 14 84 93 addi	s1, s1, 1
[1;34m[src/memory/paddr.c:97 mtrace_log] R: 0x800022ec (len=4) data=0x00060a13[0m
0x800022ec: 00 06 0a 13 mv	s4, a2
[1;34m[src/memory/paddr.c:97 mtrace_log] R: 0x800022f0 (len=4) data=0xfef48fa3[0m
[1;34m[src/memory/paddr.c:97 mtrace_log] W: 0x8009551e (len=1) data=0x00000064[0m
0x800022f0: fe f4 8f a3 sb	a5, -1(s1)
[1;34m[src/memory/paddr.c:97 mtrace_log] R: 0x800022f4 (len=4) data=0x00144783[0m
[1;34m[src/memory/paddr.c:97 mtrace_log] R: 0x80002918 (len=1) data=0x0000003a[0m
0x800022f4: 00 14 47 83 lbu	a5, 1(s0)
[1;34m[src/memory/paddr.c:97 mtrace_log] R: 0x800022f8 (len=4) data=0xb80792e3[0m
0x800022f8: b8 07 92 e3 bnez	a5, -0x47c
[1;34m[src/memory/paddr.c:97 mtrace_log] R: 0x80001e7c (len=4) data=0x05578c63[0m
0x80001e7c: 05 57 8c 63 beq	a5, s5, 0x58
[1;34m[src/memory/paddr.c:97 mtrace_log] R: 0x80001e80 (len=4) data=0x00f48023[0m
[1;34m[src/memory/paddr.c:97 mtrace_log] W: 0x8009551f (len=1) data=0x0000003a[0m
0x80001e80: 00 f4 80 23 sb	a5, 0(s1)
[1;34m[src/memory/paddr.c:97 mtrace_log] R: 0x80001e84 (len=4) data=0x0015c783[0m
[1;34m[src/memory/paddr.c:97 mtrace_log] R: 0x80002919 (len=1) data=0x00000020[0m
0x80001e84: 00 15 c7 83 lbu	a5, 1(a1)
[1;34m[src/memory/paddr.c:97 mtrace_log] R: 0x80001e88 (len=4) data=0x00148493[0m
0x80001e88: 00 14 84 93 addi	s1, s1, 1
[1;34m[src/memory/paddr.c:97 mtrace_log] R: 0x80001e8c (len=4) data=0x00158593[0m
0x80001e8c: 00 15 85 93 addi	a1, a1, 1
[1;34m[src/memory/paddr.c:97 mtrace_log] R: 0x80001e90 (len=4) data=0xfe0796e3[0m
0x80001e90: fe 07 96 e3 bnez	a5, -0x14
[1;34m[src/memory/paddr.c:97 mtrace_log] R: 0x80001e7c (len=4) data=0x05578c63[0m
0x80001e7c: 05 57 8c 63 beq	a5, s5, 0x58
[1;34m[src/memory/paddr.c:97 mtrace_log] R: 0x80001e80 (len=4) data=0x00f48023[0m
[1;34m[src/memory/paddr.c:97 mtrace_log] W: 0x80095520 (len=1) data=0x00000020[0m
0x80001e80: 00 f4 80 23 sb	a5, 0(s1)
[1;34m[src/memory/paddr.c:97 mtrace_log] R: 0x80001e84 (len=4) data=0x0015c783[0m
[1;34m[src/memory/paddr.c:97 mtrace_log] R: 0x8000291a (len=1) data=0x00000025[0m
0x80001e84: 00 15 c7 83 lbu	a5, 1(a1)
[1;34m[src/memory/paddr.c:97 mtrace_log] R: 0x80001e88 (len=4) data=0x00148493[0m
0x80001e88: 00 14 84 93 addi	s1, s1, 1
[1;34m[src/memory/paddr.c:97 mtrace_log] R: 0x80001e8c (len=4) data=0x00158593[0m
0x80001e8c: 00 15 85 93 addi	a1, a1, 1
[1;34m[src/memory/paddr.c:97 mtrace_log] R: 0x80001e90 (len=4) data=0xfe0796e3[0m
0x80001e90: fe 07 96 e3 bnez	a5, -0x14
[1;34m[src/memory/paddr.c:97 mtrace_log] R: 0x80001e7c (len=4) data=0x05578c63[0m
0x80001e7c: 05 57 8c 63 beq	a5, s5, 0x58
[1;34m[src/memory/paddr.c:97 mtrace_log] R: 0x80001ed4 (len=4) data=0x00000793[0m
0x80001ed4: 00 00 07 93 mv	a5, zero
[1;34m[src/memory/paddr.c:97 mtrace_log] R: 0x80001ed8 (len=4) data=0x0015c803[0m
[1;34m[src/memory/paddr.c:97 mtrace_log] R: 0x8000291b (len=1) data=0x00000073[0m
0x80001ed8: 00 15 c8 03 lbu	a6, 1(a1)
[1;34m[src/memory/paddr.c:97 mtrace_log] R: 0x80001edc (len=4) data=0x00158413[0m
0x80001edc: 00 15 84 13 addi	s0, a1, 1
[1;34m[src/memory/paddr.c:97 mtrace_log] R: 0x80001ee0 (len=4) data=0xfe080713[0m
0x80001ee0: fe 08 07 13 addi	a4, a6, -0x20
[1;34m[src/memory/paddr.c:97 mtrace_log] R: 0x80001ee4 (len=4) data=0x0ff77713[0m
0x80001ee4: 0f f7 77 13 andi	a4, a4, 0xff
[1;34m[src/memory/paddr.c:97 mtrace_log] R: 0x80001ee8 (len=4) data=0x00e9ec63[0m
0x80001ee8: 00 e9 ec 63 bltu	s3, a4, 0x18
[1;34m[src/memory/paddr.c:97 mtrace_log] R: 0x80001f00 (len=4) data=0xfd080713[0m
0x80001f00: fd 08 07 13 addi	a4, a6, -0x30
[1;34m[src/memory/paddr.c:97 mtrace_log] R: 0x80001f04 (len=4) data=0x0ff77713[0m
0x80001f04: 0f f7 77 13 andi	a4, a4, 0xff
[1;34m[src/memory/paddr.c:97 mtrace_log] R: 0x80001f08 (len=4) data=0x0ced7263[0m
0x80001f08: 0c ed 72 63 bgeu	s10, a4, 0xc4
[1;34m[src/memory/paddr.c:97 mtrace_log] R: 0x80001f0c (len=4) data=0x02a00713[0m
0x80001f0c: 02 a0 07 13 addi	a4, zero, 0x2a
[1;34m[src/memory/paddr.c:97 mtrace_log] R: 0x80001f10 (len=4) data=0xfff00693[0m
0x80001f10: ff f0 06 93 addi	a3, zero, -1
[1;34m[src/memory/paddr.c:97 mtrace_log] R: 0x80001f14 (len=4) data=0x00e81a63[0m
0x80001f14: 00 e8 1a 63 bne	a6, a4, 0x14
[1;34m[src/memory/paddr.c:97 mtrace_log] R: 0x80001f28 (len=4) data=0xfff00713[0m
0x80001f28: ff f0 07 13 addi	a4, zero, -1
[1;34m[src/memory/paddr.c:97 mtrace_log] R: 0x80001f2c (len=4) data=0x07980a63[0m
0x80001f2c: 07 98 0a 63 beq	a6, s9, 0x74
[1;34m[src/memory/paddr.c:97 mtrace_log] R: 0x80001f30 (len=4) data=0x0fb87613[0m
0x80001f30: 0f b8 76 13 andi	a2, a6, 0xfb
[1;34m[src/memory/paddr.c:97 mtrace_log] R: 0x80001f34 (len=4) data=0x01861663[0m
0x80001f34: 01 86 16 63 bne	a2, s8, 0xc
[1;34m[src/memory/paddr.c:97 mtrace_log] R: 0x80001f40 (len=4) data=0xfdb80813[0m
0x80001f40: fd b8 08 13 addi	a6, a6, -0x25
[1;34m[src/memory/paddr.c:97 mtrace_log] R: 0x80001f44 (len=4) data=0x0ff87813[0m
0x80001f44: 0f f8 78 13 andi	a6, a6, 0xff
[1;34m[src/memory/paddr.c:97 mtrace_log] R: 0x80001f48 (len=4) data=0x05300613[0m
0x80001f48: 05 30 06 13 addi	a2, zero, 0x53
[1;34m[src/memory/paddr.c:97 mtrace_log] R: 0x80001f4c (len=4) data=0x0b066c63[0m
0x80001f4c: 0b 06 6c 63 bltu	a2, a6, 0xb8
[1;34m[src/memory/paddr.c:97 mtrace_log] R: 0x80001f50 (len=4) data=0x00281813[0m
0x80001f50: 00 28 18 13 slli	a6, a6, 2
[1;34m[src/memory/paddr.c:97 mtrace_log] R: 0x80001f54 (len=4) data=0x01780833[0m
0x80001f54: 01 78 08 33 add	a6, a6, s7
[1;34m[src/memory/paddr.c:97 mtrace_log] R: 0x80001f58 (len=4) data=0x00082603[0m
[1;34m[src/memory/paddr.c:97 mtrace_log] R: 0x800032b4 (len=4) data=0xffffef50[0m
0x80001f58: 00 08 26 03 lw	a2, 0(a6)
[1;34m[src/memory/paddr.c:97 mtrace_log] R: 0x80001f5c (len=4) data=0x01760633[0m
0x80001f5c: 01 76 06 33 add	a2, a2, s7
[1;34m[src/memory/paddr.c:97 mtrace_log] R: 0x80001f60 (len=4) data=0x00060067[0m
0x80001f60: 00 06 00 67 jr	a2
[1;34m[src/memory/paddr.c:97 mtrace_log] R: 0x800020cc (len=4) data=0x01b12e23[0m
[1;34m[src/memory/paddr.c:97 mtrace_log] W: 0x8009df5c (len=4) data=0x00000000[0m
0x800020cc: 01 b1 2e 23 sw	s11, 0x1c(sp)
[1;34m[src/memory/paddr.c:97 mtrace_log] R: 0x800020d0 (len=4) data=0x000a2d83[0m
[1;34m[src/memory/paddr.c:97 mtrace_log] R: 0x8009dfb8 (len=4) data=0x80002948[0m
0x800020d0: 00 0a 2d 83 lw	s11, 0(s4)
[1;34m[src/memory/paddr.c:97 mtrace_log] R: 0x800020d4 (len=4) data=0x004a0a13[0m
0x800020d4: 00 4a 0a 13 addi	s4, s4, 4
[1;34m[src/memory/paddr.c:97 mtrace_log] R: 0x800020d8 (len=4) data=0x140d8263[0m
0x800020d8: 14 0d 82 63 beqz	s11, 0x144
[1;34m[src/memory/paddr.c:97 mtrace_log] R: 0x800020dc (len=4) data=0x000d8513[0m
0x800020dc: 00 0d 85 13 mv	a0, s11
[1;34m[src/memory/paddr.c:97 mtrace_log] R: 0x800020e0 (len=4) data=0x00d12623[0m
[1;34m[src/memory/paddr.c:97 mtrace_log] W: 0x8009df4c (len=4) data=0xffffffff[0m
0x800020e0: 00 d1 26 23 sw	a3, 0xc(sp)
[1;34m[src/memory/paddr.c:97 mtrace_log] R: 0x800020e4 (len=4) data=0x00f12423[0m
[1;34m[src/memory/paddr.c:97 mtrace_log] W: 0x8009df48 (len=4) data=0x00000000[0m
0x800020e4: 00 f1 24 23 sw	a5, 8(sp)
[1;34m[src/memory/paddr.c:97 mtrace_log] R: 0x800020e8 (len=4) data=0x00e12223[0m
[1;34m[src/memory/paddr.c:97 mtrace_log] W: 0x8009df44 (len=4) data=0xffffffff[0m
0x800020e8: 00 e1 22 23 sw	a4, 4(sp)
[1;34m[src/memory/paddr.c:97 mtrace_log] R: 0x800020ec (len=4) data=0x9c9ff0ef[0m
0x800020ec: 9c 9f f0 ef jal	-0x638
[1;34m[src/memory/paddr.c:97 mtrace_log] R: 0x80001ab4 (len=4) data=0x00054783[0m
[1;34m[src/memory/paddr.c:97 mtrace_log] R: 0x80002948 (len=1) data=0x00000073[0m
0x80001ab4: 00 05 47 83 lbu	a5, 0(a0)
[1;34m[src/memory/paddr.c:97 mtrace_log] R: 0x80001ab8 (len=4) data=0x00050713[0m
0x80001ab8: 00 05 07 13 mv	a4, a0
[1;34m[src/memory/paddr.c:97 mtrace_log] R: 0x80001abc (len=4) data=0x00000513[0m
0x80001abc: 00 00 05 13 mv	a0, zero
[1;34m[src/memory/paddr.c:97 mtrace_log] R: 0x80001ac0 (len=4) data=0x00078c63[0m
0x80001ac0: 00 07 8c 63 beqz	a5, 0x18
[1;34m[src/memory/paddr.c:97 mtrace_log] R: 0x80001ac4 (len=4) data=0x00150513[0m
0x80001ac4: 00 15 05 13 addi	a0, a0, 1
[1;34m[src/memory/paddr.c:97 mtrace_log] R: 0x80001ac8 (len=4) data=0x00a707b3[0m
0x80001ac8: 00 a7 07 b3 add	a5, a4, a0
[1;34m[src/memory/paddr.c:97 mtrace_log] R: 0x80001acc (len=4) data=0x0007c783[0m
[1;34m[src/memory/paddr.c:97 mtrace_log] R: 0x80002949 (len=1) data=0x00000063[0m
0x80001acc: 00 07 c7 83 lbu	a5, 0(a5)
[1;34m[src/memory/paddr.c:97 mtrace_log] R: 0x80001ad0 (len=4) data=0xfe079ae3[0m
0x80001ad0: fe 07 9a e3 bnez	a5, -0xc
[1;34m[src/memory/paddr.c:97 mtrace_log] R: 0x80001ac4 (len=4) data=0x00150513[0m
0x80001ac4: 00 15 05 13 addi	a0, a0, 1
[1;34m[src/memory/paddr.c:97 mtrace_log] R: 0x80001ac8 (len=4) data=0x00a707b3[0m
0x80001ac8: 00 a7 07 b3 add	a5, a4, a0
[1;34m[src/memory/paddr.c:97 mtrace_log] R: 0x80001acc (len=4) data=0x0007c783[0m
[1;34m[src/memory/paddr.c:97 mtrace_log] R: 0x8000294a (len=1) data=0x00000061[0m
0x80001acc: 00 07 c7 83 lbu	a5, 0(a5)
[1;34m[src/memory/paddr.c:97 mtrace_log] R: 0x80001ad0 (len=4) data=0xfe079ae3[0m
0x80001ad0: fe 07 9a e3 bnez	a5, -0xc
[1;34m[src/memory/paddr.c:97 mtrace_log] R: 0x80001ac4 (len=4) data=0x00150513[0m
0x80001ac4: 00 15 05 13 addi	a0, a0, 1
[1;34m[src/memory/paddr.c:97 mtrace_log] R: 0x80001ac8 (len=4) data=0x00a707b3[0m
0x80001ac8: 00 a7 07 b3 add	a5, a4, a0
[1;34m[src/memory/paddr.c:97 mtrace_log] R: 0x80001acc (len=4) data=0x0007c783[0m
[1;34m[src/memory/paddr.c:97 mtrace_log] R: 0x8000294b (len=1) data=0x0000006e[0m
0x80001acc: 00 07 c7 83 lbu	a5, 0(a5)
[1;34m[src/memory/paddr.c:97 mtrace_log] R: 0x80001ad0 (len=4) data=0xfe079ae3[0m
0x80001ad0: fe 07 9a e3 bnez	a5, -0xc
[1;34m[src/memory/paddr.c:97 mtrace_log] R: 0x80001ac4 (len=4) data=0x00150513[0m
0x80001ac4: 00 15 05 13 addi	a0, a0, 1
[1;34m[src/memory/paddr.c:97 mtrace_log] R: 0x80001ac8 (len=4) data=0x00a707b3[0m
0x80001ac8: 00 a7 07 b3 add	a5, a4, a0
[1;34m[src/memory/paddr.c:97 mtrace_log] R: 0x80001acc (len=4) data=0x0007c783[0m
[1;34m[src/memory/paddr.c:97 mtrace_log] R: 0x8000294c (len=1) data=0x00000020[0m
0x80001acc: 00 07 c7 83 lbu	a5, 0(a5)
[1;34m[src/memory/paddr.c:97 mtrace_log] R: 0x80001ad0 (len=4) data=0xfe079ae3[0m
0x80001ad0: fe 07 9a e3 bnez	a5, -0xc
[1;34m[src/memory/paddr.c:97 mtrace_log] R: 0x80001ac4 (len=4) data=0x00150513[0m
0x80001ac4: 00 15 05 13 addi	a0, a0, 1
[1;34m[src/memory/paddr.c:97 mtrace_log] R: 0x80001ac8 (len=4) data=0x00a707b3[0m
0x80001ac8: 00 a7 07 b3 add	a5, a4, a0
[1;34m[src/memory/paddr.c:97 mtrace_log] R: 0x80001acc (len=4) data=0x0007c783[0m
[1;34m[src/memory/paddr.c:97 mtrace_log] R: 0x8000294d (len=1) data=0x00000064[0m
0x80001acc: 00 07 c7 83 lbu	a5, 0(a5)
[1;34m[src/memory/paddr.c:97 mtrace_log] R: 0x80001ad0 (len=4) data=0xfe079ae3[0m
0x80001ad0: fe 07 9a e3 bnez	a5, -0xc
[1;34m[src/memory/paddr.c:97 mtrace_log] R: 0x80001ac4 (len=4) data=0x00150513[0m
0x80001ac4: 00 15 05 13 addi	a0, a0, 1
[1;34m[src/memory/paddr.c:97 mtrace_log] R: 0x80001ac8 (len=4) data=0x00a707b3[0m
0x80001ac8: 00 a7 07 b3 add	a5, a4, a0
[1;34m[src/memory/paddr.c:97 mtrace_log] R: 0x80001acc (len=4) data=0x0007c783[0m
[1;34m[src/memory/paddr.c:97 mtrace_log] R: 0x8000294e (len=1) data=0x00000065[0m
0x80001acc: 00 07 c7 83 lbu	a5, 0(a5)
[1;34m[src/memory/paddr.c:97 mtrace_log] R: 0x80001ad0 (len=4) data=0xfe079ae3[0m
0x80001ad0: fe 07 9a e3 bnez	a5, -0xc
[1;34m[src/memory/paddr.c:97 mtrace_log] R: 0x80001ac4 (len=4) data=0x00150513[0m
0x80001ac4: 00 15 05 13 addi	a0, a0, 1
[1;34m[src/memory/paddr.c:97 mtrace_log] R: 0x80001ac8 (len=4) data=0x00a707b3[0m
0x80001ac8: 00 a7 07 b3 add	a5, a4, a0
[1;34m[src/memory/paddr.c:97 mtrace_log] R: 0x80001acc (len=4) data=0x0007c783[0m
[1;34m[src/memory/paddr.c:97 mtrace_log] R: 0x8000294f (len=1) data=0x00000076[0m
0x80001acc: 00 07 c7 83 lbu	a5, 0(a5)
[1;34m[src/memory/paddr.c:97 mtrace_log] R: 0x80001ad0 (len=4) data=0xfe079ae3[0m
0x80001ad0: fe 07 9a e3 bnez	a5, -0xc
[1;34m[src/memory/paddr.c:97 mtrace_log] R: 0x80001ac4 (len=4) data=0x00150513[0m
0x80001ac4: 00 15 05 13 addi	a0, a0, 1
[1;34m[src/memory/paddr.c:97 mtrace_log] R: 0x80001ac8 (len=4) data=0x00a707b3[0m
0x80001ac8: 00 a7 07 b3 add	a5, a4, a0
[1;34m[src/memory/paddr.c:97 mtrace_log] R: 0x80001acc (len=4) data=0x0007c783[0m
[1;34m[src/memory/paddr.c:97 mtrace_log] R: 0x80002950 (len=1) data=0x00000069[0m
0x80001acc: 00 07 c7 83 lbu	a5, 0(a5)
[1;34m[src/memory/paddr.c:97 mtrace_log] R: 0x80001ad0 (len=4) data=0xfe079ae3[0m
0x80001ad0: fe 07 9a e3 bnez	a5, -0xc
[1;34m[src/memory/paddr.c:97 mtrace_log] R: 0x80001ac4 (len=4) data=0x00150513[0m
0x80001ac4: 00 15 05 13 addi	a0, a0, 1
[1;34m[src/memory/paddr.c:97 mtrace_log] R: 0x80001ac8 (len=4) data=0x00a707b3[0m
0x80001ac8: 00 a7 07 b3 add	a5, a4, a0
[1;34m[src/memory/paddr.c:97 mtrace_log] R: 0x80001acc (len=4) data=0x0007c783[0m
[1;34m[src/memory/paddr.c:97 mtrace_log] R: 0x80002951 (len=1) data=0x00000063[0m
0x80001acc: 00 07 c7 83 lbu	a5, 0(a5)
[1;34m[src/memory/paddr.c:97 mtrace_log] R: 0x80001ad0 (len=4) data=0xfe079ae3[0m
0x80001ad0: fe 07 9a e3 bnez	a5, -0xc
[1;34m[src/memory/paddr.c:97 mtrace_log] R: 0x80001ac4 (len=4) data=0x00150513[0m
0x80001ac4: 00 15 05 13 addi	a0, a0, 1
[1;34m[src/memory/paddr.c:97 mtrace_log] R: 0x80001ac8 (len=4) data=0x00a707b3[0m
0x80001ac8: 00 a7 07 b3 add	a5, a4, a0
[1;34m[src/memory/paddr.c:97 mtrace_log] R: 0x80001acc (len=4) data=0x0007c783[0m
[1;34m[src/memory/paddr.c:97 mtrace_log] R: 0x80002952 (len=1) data=0x00000065[0m
0x80001acc: 00 07 c7 83 lbu	a5, 0(a5)
[1;34m[src/memory/paddr.c:97 mtrace_log] R: 0x80001ad0 (len=4) data=0xfe079ae3[0m
0x80001ad0: fe 07 9a e3 bnez	a5, -0xc
[1;34m[src/memory/paddr.c:97 mtrace_log] R: 0x80001ac4 (len=4) data=0x00150513[0m
0x80001ac4: 00 15 05 13 addi	a0, a0, 1
[1;34m[src/memory/paddr.c:97 mtrace_log] R: 0x80001ac8 (len=4) data=0x00a707b3[0m
0x80001ac8: 00 a7 07 b3 add	a5, a4, a0
[1;34m[src/memory/paddr.c:97 mtrace_log] R: 0x80001acc (len=4) data=0x0007c783[0m
[1;34m[src/memory/paddr.c:97 mtrace_log] R: 0x80002953 (len=1) data=0x00000073[0m
0x80001acc: 00 07 c7 83 lbu	a5, 0(a5)
[1;34m[src/memory/paddr.c:97 mtrace_log] R: 0x80001ad0 (len=4) data=0xfe079ae3[0m
0x80001ad0: fe 07 9a e3 bnez	a5, -0xc
[1;34m[src/memory/paddr.c:97 mtrace_log] R: 0x80001ac4 (len=4) data=0x00150513[0m
0x80001ac4: 00 15 05 13 addi	a0, a0, 1
[1;34m[src/memory/paddr.c:97 mtrace_log] R: 0x80001ac8 (len=4) data=0x00a707b3[0m
0x80001ac8: 00 a7 07 b3 add	a5, a4, a0
[1;34m[src/memory/paddr.c:97 mtrace_log] R: 0x80001acc (len=4) data=0x0007c783[0m
[1;34m[src/memory/paddr.c:97 mtrace_log] R: 0x80002954 (len=1) data=0x00000000[0m
0x80001acc: 00 07 c7 83 lbu	a5, 0(a5)
[1;34m[src/memory/paddr.c:97 mtrace_log] R: 0x80001ad0 (len=4) data=0xfe079ae3[0m
0x80001ad0: fe 07 9a e3 bnez	a5, -0xc
[1;34m[src/memory/paddr.c:97 mtrace_log] R: 0x80001ad4 (len=4) data=0x00008067[0m
0x80001ad4: 00 00 80 67 ret
[1;34m[src/memory/paddr.c:97 mtrace_log] R: 0x800020f0 (len=4) data=0x00412703[0m
[1;34m[src/memory/paddr.c:97 mtrace_log] R: 0x8009df44 (len=4) data=0xffffffff[0m
0x800020f0: 00 41 27 03 lw	a4, 4(sp)
[1;34m[src/memory/paddr.c:97 mtrace_log] R: 0x800020f4 (len=4) data=0xfff00613[0m
0x800020f4: ff f0 06 13 addi	a2, zero, -1
[1;34m[src/memory/paddr.c:97 mtrace_log] R: 0x800020f8 (len=4) data=0x00812783[0m
[1;34m[src/memory/paddr.c:97 mtrace_log] R: 0x8009df48 (len=4) data=0x00000000[0m
0x800020f8: 00 81 27 83 lw	a5, 8(sp)
[1;34m[src/memory/paddr.c:97 mtrace_log] R: 0x800020fc (len=4) data=0x00c12683[0m
[1;34m[src/memory/paddr.c:97 mtrace_log] R: 0x8009df4c (len=4) data=0xffffffff[0m
0x800020fc: 00 c1 26 83 lw	a3, 0xc(sp)
[1;34m[src/memory/paddr.c:97 mtrace_log] R: 0x80002100 (len=4) data=0x00c70663[0m
0x80002100: 00 c7 06 63 beq	a4, a2, 0xc
[1;34m[src/memory/paddr.c:97 mtrace_log] R: 0x8000210c (len=4) data=0x0017f793[0m
0x8000210c: 00 17 f7 93 andi	a5, a5, 1
[1;34m[src/memory/paddr.c:97 mtrace_log] R: 0x80002110 (len=4) data=0x14078063[0m
0x80002110: 14 07 80 63 beqz	a5, 0x140
[1;34m[src/memory/paddr.c:97 mtrace_log] R: 0x80002250 (len=4) data=0xfff68613[0m
0x80002250: ff f6 86 13 addi	a2, a3, -1
[1;34m[src/memory/paddr.c:97 mtrace_log] R: 0x80002254 (len=4) data=0x08d55463[0m
0x80002254: 08 d5 54 63 bge	a0, a3, 0x88
[1;34m[src/memory/paddr.c:97 mtrace_log] R: 0x800022dc (len=4) data=0x00060693[0m
0x800022dc: 00 06 06 93 mv	a3, a2
[1;34m[src/memory/paddr.c:97 mtrace_log] R: 0x800022e0 (len=4) data=0xe35ff06f[0m
0x800022e0: e3 5f f0 6f j	-0x1cc
[1;34m[src/memory/paddr.c:97 mtrace_log] R: 0x80002114 (len=4) data=0x1aa05663[0m
0x80002114: 1a a0 56 63 blez	a0, 0x1ac
[1;34m[src/memory/paddr.c:97 mtrace_log] R: 0x80002118 (len=4) data=0x00a48733[0m
0x80002118: 00 a4 87 33 add	a4, s1, a0
[1;34m[src/memory/paddr.c:97 mtrace_log] R: 0x8000211c (len=4) data=0x000dc783[0m
[1;34m[src/memory/paddr.c:97 mtrace_log] R: 0x80002948 (len=1) data=0x00000073[0m
0x8000211c: 00 0d c7 83 lbu	a5, 0(s11)
[1;34m[src/memory/paddr.c:97 mtrace_log] R: 0x80002120 (len=4) data=0x00148493[0m
0x80002120: 00 14 84 93 addi	s1, s1, 1
[1;34m[src/memory/paddr.c:97 mtrace_log] R: 0x80002124 (len=4) data=0x001d8d93[0m
0x80002124: 00 1d 8d 93 addi	s11, s11, 1
[1;34m[src/memory/paddr.c:97 mtrace_log] R: 0x80002128 (len=4) data=0xfef48fa3[0m
[1;34m[src/memory/paddr.c:97 mtrace_log] W: 0x80095521 (len=1) data=0x00000073[0m
0x80002128: fe f4 8f a3 sb	a5, -1(s1)
[1;34m[src/memory/paddr.c:97 mtrace_log] R: 0x8000212c (len=4) data=0xfe9718e3[0m
0x8000212c: fe 97 18 e3 bne	a4, s1, -0x10
[1;34m[src/memory/paddr.c:97 mtrace_log] R: 0x8000211c (len=4) data=0x000dc783[0m
[1;34m[src/memory/paddr.c:97 mtrace_log] R: 0x80002949 (len=1) data=0x00000063[0m
0x8000211c: 00 0d c7 83 lbu	a5, 0(s11)
[1;34m[src/memory/paddr.c:97 mtrace_log] R: 0x80002120 (len=4) data=0x00148493[0m
0x80002120: 00 14 84 93 addi	s1, s1, 1
[1;34m[src/memory/paddr.c:97 mtrace_log] R: 0x80002124 (len=4) data=0x001d8d93[0m
0x80002124: 00 1d 8d 93 addi	s11, s11, 1
[1;34m[src/memory/paddr.c:97 mtrace_log] R: 0x80002128 (len=4) data=0xfef48fa3[0m
[1;34m[src/memory/paddr.c:97 mtrace_log] W: 0x80095522 (len=1) data=0x00000063[0m
0x80002128: fe f4 8f a3 sb	a5, -1(s1)
[1;34m[src/memory/paddr.c:97 mtrace_log] R: 0x8000212c (len=4) data=0xfe9718e3[0m
0x8000212c: fe 97 18 e3 bne	a4, s1, -0x10
[1;34m[src/memory/paddr.c:97 mtrace_log] R: 0x8000211c (len=4) data=0x000dc783[0m
[1;34m[src/memory/paddr.c:97 mtrace_log] R: 0x8000294a (len=1) data=0x00000061[0m
0x8000211c: 00 0d c7 83 lbu	a5, 0(s11)
[1;34m[src/memory/paddr.c:97 mtrace_log] R: 0x80002120 (len=4) data=0x00148493[0m
0x80002120: 00 14 84 93 addi	s1, s1, 1
[1;34m[src/memory/paddr.c:97 mtrace_log] R: 0x80002124 (len=4) data=0x001d8d93[0m
0x80002124: 00 1d 8d 93 addi	s11, s11, 1
[1;34m[src/memory/paddr.c:97 mtrace_log] R: 0x80002128 (len=4) data=0xfef48fa3[0m
[1;34m[src/memory/paddr.c:97 mtrace_log] W: 0x80095523 (len=1) data=0x00000061[0m
0x80002128: fe f4 8f a3 sb	a5, -1(s1)
[1;34m[src/memory/paddr.c:97 mtrace_log] R: 0x8000212c (len=4) data=0xfe9718e3[0m
0x8000212c: fe 97 18 e3 bne	a4, s1, -0x10
[1;34m[src/memory/paddr.c:97 mtrace_log] R: 0x8000211c (len=4) data=0x000dc783[0m
[1;34m[src/memory/paddr.c:97 mtrace_log] R: 0x8000294b (len=1) data=0x0000006e[0m
0x8000211c: 00 0d c7 83 lbu	a5, 0(s11)
[1;34m[src/memory/paddr.c:97 mtrace_log] R: 0x80002120 (len=4) data=0x00148493[0m
0x80002120: 00 14 84 93 addi	s1, s1, 1
[1;34m[src/memory/paddr.c:97 mtrace_log] R: 0x80002124 (len=4) data=0x001d8d93[0m
0x80002124: 00 1d 8d 93 addi	s11, s11, 1
[1;34m[src/memory/paddr.c:97 mtrace_log] R: 0x80002128 (len=4) data=0xfef48fa3[0m
[1;34m[src/memory/paddr.c:97 mtrace_log] W: 0x80095524 (len=1) data=0x0000006e[0m
0x80002128: fe f4 8f a3 sb	a5, -1(s1)
[1;34m[src/memory/paddr.c:97 mtrace_log] R: 0x8000212c (len=4) data=0xfe9718e3[0m
0x8000212c: fe 97 18 e3 bne	a4, s1, -0x10
[1;34m[src/memory/paddr.c:97 mtrace_log] R: 0x8000211c (len=4) data=0x000dc783[0m
[1;34m[src/memory/paddr.c:97 mtrace_log] R: 0x8000294c (len=1) data=0x00000020[0m
0x8000211c: 00 0d c7 83 lbu	a5, 0(s11)
[1;34m[src/memory/paddr.c:97 mtrace_log] R: 0x80002120 (len=4) data=0x00148493[0m
0x80002120: 00 14 84 93 addi	s1, s1, 1
[1;34m[src/memory/paddr.c:97 mtrace_log] R: 0x80002124 (len=4) data=0x001d8d93[0m
0x80002124: 00 1d 8d 93 addi	s11, s11, 1
[1;34m[src/memory/paddr.c:97 mtrace_log] R: 0x80002128 (len=4) data=0xfef48fa3[0m
[1;34m[src/memory/paddr.c:97 mtrace_log] W: 0x80095525 (len=1) data=0x00000020[0m
0x80002128: fe f4 8f a3 sb	a5, -1(s1)
[1;34m[src/memory/paddr.c:97 mtrace_log] R: 0x8000212c (len=4) data=0xfe9718e3[0m
0x8000212c: fe 97 18 e3 bne	a4, s1, -0x10
[1;34m[src/memory/paddr.c:97 mtrace_log] R: 0x8000211c (len=4) data=0x000dc783[0m
[1;34m[src/memory/paddr.c:97 mtrace_log] R: 0x8000294d (len=1) data=0x00000064[0m
0x8000211c: 00 0d c7 83 lbu	a5, 0(s11)
[1;34m[src/memory/paddr.c:97 mtrace_log] R: 0x80002120 (len=4) data=0x00148493[0m
0x80002120: 00 14 84 93 addi	s1, s1, 1
[1;34m[src/memory/paddr.c:97 mtrace_log] R: 0x80002124 (len=4) data=0x001d8d93[0m
0x80002124: 00 1d 8d 93 addi	s11, s11, 1
[1;34m[src/memory/paddr.c:97 mtrace_log] R: 0x80002128 (len=4) data=0xfef48fa3[0m
[1;34m[src/memory/paddr.c:97 mtrace_log] W: 0x80095526 (len=1) data=0x00000064[0m
0x80002128: fe f4 8f a3 sb	a5, -1(s1)
[1;34m[src/memory/paddr.c:97 mtrace_log] R: 0x8000212c (len=4) data=0xfe9718e3[0m
0x8000212c: fe 97 18 e3 bne	a4, s1, -0x10
[1;34m[src/memory/paddr.c:97 mtrace_log] R: 0x8000211c (len=4) data=0x000dc783[0m
[1;34m[src/memory/paddr.c:97 mtrace_log] R: 0x8000294e (len=1) data=0x00000065[0m
0x8000211c: 00 0d c7 83 lbu	a5, 0(s11)
[1;34m[src/memory/paddr.c:97 mtrace_log] R: 0x80002120 (len=4) data=0x00148493[0m
0x80002120: 00 14 84 93 addi	s1, s1, 1
[1;34m[src/memory/paddr.c:97 mtrace_log] R: 0x80002124 (len=4) data=0x001d8d93[0m
0x80002124: 00 1d 8d 93 addi	s11, s11, 1
[1;34m[src/memory/paddr.c:97 mtrace_log] R: 0x80002128 (len=4) data=0xfef48fa3[0m
[1;34m[src/memory/paddr.c:97 mtrace_log] W: 0x80095527 (len=1) data=0x00000065[0m
0x80002128: fe f4 8f a3 sb	a5, -1(s1)
[1;34m[src/memory/paddr.c:97 mtrace_log] R: 0x8000212c (len=4) data=0xfe9718e3[0m
0x8000212c: fe 97 18 e3 bne	a4, s1, -0x10
[1;34m[src/memory/paddr.c:97 mtrace_log] R: 0x8000211c (len=4) data=0x000dc783[0m
[1;34m[src/memory/paddr.c:97 mtrace_log] R: 0x8000294f (len=1) data=0x00000076[0m
0x8000211c: 00 0d c7 83 lbu	a5, 0(s11)
[1;34m[src/memory/paddr.c:97 mtrace_log] R: 0x80002120 (len=4) data=0x00148493[0m
0x80002120: 00 14 84 93 addi	s1, s1, 1
[1;34m[src/memory/paddr.c:97 mtrace_log] R: 0x80002124 (len=4) data=0x001d8d93[0m
0x80002124: 00 1d 8d 93 addi	s11, s11, 1
[1;34m[src/memory/paddr.c:97 mtrace_log] R: 0x80002128 (len=4) data=0xfef48fa3[0m
[1;34m[src/memory/paddr.c:97 mtrace_log] W: 0x80095528 (len=1) data=0x00000076[0m
0x80002128: fe f4 8f a3 sb	a5, -1(s1)
[1;34m[src/memory/paddr.c:97 mtrace_log] R: 0x8000212c (len=4) data=0xfe9718e3[0m
0x8000212c: fe 97 18 e3 bne	a4, s1, -0x10
[1;34m[src/memory/paddr.c:97 mtrace_log] R: 0x8000211c (len=4) data=0x000dc783[0m
[1;34m[src/memory/paddr.c:97 mtrace_log] R: 0x80002950 (len=1) data=0x00000069[0m
0x8000211c: 00 0d c7 83 lbu	a5, 0(s11)
[1;34m[src/memory/paddr.c:97 mtrace_log] R: 0x80002120 (len=4) data=0x00148493[0m
0x80002120: 00 14 84 93 addi	s1, s1, 1
[1;34m[src/memory/paddr.c:97 mtrace_log] R: 0x80002124 (len=4) data=0x001d8d93[0m
0x80002124: 00 1d 8d 93 addi	s11, s11, 1
[1;34m[src/memory/paddr.c:97 mtrace_log] R: 0x80002128 (len=4) data=0xfef48fa3[0m
[1;34m[src/memory/paddr.c:97 mtrace_log] W: 0x80095529 (len=1) data=0x00000069[0m
0x80002128: fe f4 8f a3 sb	a5, -1(s1)
[1;34m[src/memory/paddr.c:97 mtrace_log] R: 0x8000212c (len=4) data=0xfe9718e3[0m
0x8000212c: fe 97 18 e3 bne	a4, s1, -0x10
[1;34m[src/memory/paddr.c:97 mtrace_log] R: 0x8000211c (len=4) data=0x000dc783[0m
[1;34m[src/memory/paddr.c:97 mtrace_log] R: 0x80002951 (len=1) data=0x00000063[0m
0x8000211c: 00 0d c7 83 lbu	a5, 0(s11)
[1;34m[src/memory/paddr.c:97 mtrace_log] R: 0x80002120 (len=4) data=0x00148493[0m
0x80002120: 00 14 84 93 addi	s1, s1, 1
[1;34m[src/memory/paddr.c:97 mtrace_log] R: 0x80002124 (len=4) data=0x001d8d93[0m
0x80002124: 00 1d 8d 93 addi	s11, s11, 1
[1;34m[src/memory/paddr.c:97 mtrace_log] R: 0x80002128 (len=4) data=0xfef48fa3[0m
[1;34m[src/memory/paddr.c:97 mtrace_log] W: 0x8009552a (len=1) data=0x00000063[0m
0x80002128: fe f4 8f a3 sb	a5, -1(s1)
[1;34m[src/memory/paddr.c:97 mtrace_log] R: 0x8000212c (len=4) data=0xfe9718e3[0m
0x8000212c: fe 97 18 e3 bne	a4, s1, -0x10
[1;34m[src/memory/paddr.c:97 mtrace_log] R: 0x8000211c (len=4) data=0x000dc783[0m
[1;34m[src/memory/paddr.c:97 mtrace_log] R: 0x80002952 (len=1) data=0x00000065[0m
0x8000211c: 00 0d c7 83 lbu	a5, 0(s11)
[1;34m[src/memory/paddr.c:97 mtrace_log] R: 0x80002120 (len=4) data=0x00148493[0m
0x80002120: 00 14 84 93 addi	s1, s1, 1
[1;34m[src/memory/paddr.c:97 mtrace_log] R: 0x80002124 (len=4) data=0x001d8d93[0m
0x80002124: 00 1d 8d 93 addi	s11, s11, 1
[1;34m[src/memory/paddr.c:97 mtrace_log] R: 0x80002128 (len=4) data=0xfef48fa3[0m
[1;34m[src/memory/paddr.c:97 mtrace_log] W: 0x8009552b (len=1) data=0x00000065[0m
0x80002128: fe f4 8f a3 sb	a5, -1(s1)
[1;34m[src/memory/paddr.c:97 mtrace_log] R: 0x8000212c (len=4) data=0xfe9718e3[0m
0x8000212c: fe 97 18 e3 bne	a4, s1, -0x10
[1;34m[src/memory/paddr.c:97 mtrace_log] R: 0x8000211c (len=4) data=0x000dc783[0m
[1;34m[src/memory/paddr.c:97 mtrace_log] R: 0x80002953 (len=1) data=0x00000073[0m
0x8000211c: 00 0d c7 83 lbu	a5, 0(s11)
[1;34m[src/memory/paddr.c:97 mtrace_log] R: 0x80002120 (len=4) data=0x00148493[0m
0x80002120: 00 14 84 93 addi	s1, s1, 1
[1;34m[src/memory/paddr.c:97 mtrace_log] R: 0x80002124 (len=4) data=0x001d8d93[0m
0x80002124: 00 1d 8d 93 addi	s11, s11, 1
[1;34m[src/memory/paddr.c:97 mtrace_log] R: 0x80002128 (len=4) data=0xfef48fa3[0m
[1;34m[src/memory/paddr.c:97 mtrace_log] W: 0x8009552c (len=1) data=0x00000073[0m
0x80002128: fe f4 8f a3 sb	a5, -1(s1)
[1;34m[src/memory/paddr.c:97 mtrace_log] R: 0x8000212c (len=4) data=0xfe9718e3[0m
0x8000212c: fe 97 18 e3 bne	a4, s1, -0x10
[1;34m[src/memory/paddr.c:97 mtrace_log] R: 0x80002130 (len=4) data=0x40a684b3[0m
0x80002130: 40 a6 84 b3 sub	s1, a3, a0
[1;34m[src/memory/paddr.c:97 mtrace_log] R: 0x80002134 (len=4) data=0x00140593[0m
0x80002134: 00 14 05 93 addi	a1, s0, 1
[1;34m[src/memory/paddr.c:97 mtrace_log] R: 0x80002138 (len=4) data=0x009704b3[0m
0x80002138: 00 97 04 b3 add	s1, a4, s1
[1;34m[src/memory/paddr.c:97 mtrace_log] R: 0x8000213c (len=4) data=0x02000793[0m
0x8000213c: 02 00 07 93 addi	a5, zero, 0x20
[1;34m[src/memory/paddr.c:97 mtrace_log] R: 0x80002140 (len=4) data=0x16d55663[0m
0x80002140: 16 d5 56 63 bge	a0, a3, 0x16c
[1;34m[src/memory/paddr.c:97 mtrace_log] R: 0x800022ac (len=4) data=0x00144783[0m
[1;34m[src/memory/paddr.c:97 mtrace_log] R: 0x8000291c (len=1) data=0x0000000a[0m
0x800022ac: 00 14 47 83 lbu	a5, 1(s0)
[1;34m[src/memory/paddr.c:97 mtrace_log] R: 0x800022b0 (len=4) data=0x01c12d83[0m
[1;34m[src/memory/paddr.c:97 mtrace_log] R: 0x8009df5c (len=4) data=0x00000000[0m
0x800022b0: 01 c1 2d 83 lw	s11, 0x1c(sp)
[1;34m[src/memory/paddr.c:97 mtrace_log] R: 0x800022b4 (len=4) data=0x00070493[0m
0x800022b4: 00 07 04 93 mv	s1, a4
[1;34m[src/memory/paddr.c:97 mtrace_log] R: 0x800022b8 (len=4) data=0xbc0792e3[0m
0x800022b8: bc 07 92 e3 bnez	a5, -0x43c
[1;34m[src/memory/paddr.c:97 mtrace_log] R: 0x80001e7c (len=4) data=0x05578c63[0m
0x80001e7c: 05 57 8c 63 beq	a5, s5, 0x58
[1;34m[src/memory/paddr.c:97 mtrace_log] R: 0x80001e80 (len=4) data=0x00f48023[0m
[1;34m[src/memory/paddr.c:97 mtrace_log] W: 0x8009552d (len=1) data=0x0000000a[0m
0x80001e80: 00 f4 80 23 sb	a5, 0(s1)
[1;34m[src/memory/paddr.c:97 mtrace_log] R: 0x80001e84 (len=4) data=0x0015c783[0m
[1;34m[src/memory/paddr.c:97 mtrace_log] R: 0x8000291d (len=1) data=0x00000000[0m
0x80001e84: 00 15 c7 83 lbu	a5, 1(a1)
[1;34m[src/memory/paddr.c:97 mtrace_log] R: 0x80001e88 (len=4) data=0x00148493[0m
0x80001e88: 00 14 84 93 addi	s1, s1, 1
[1;34m[src/memory/paddr.c:97 mtrace_log] R: 0x80001e8c (len=4) data=0x00158593[0m
0x80001e8c: 00 15 85 93 addi	a1, a1, 1
[1;34m[src/memory/paddr.c:97 mtrace_log] R: 0x80001e90 (len=4) data=0xfe0796e3[0m
0x80001e90: fe 07 96 e3 bnez	a5, -0x14
[1;34m[src/memory/paddr.c:97 mtrace_log] R: 0x80001e94 (len=4) data=0x04812403[0m
[1;34m[src/memory/paddr.c:97 mtrace_log] R: 0x8009df88 (len=4) data=0x00000064[0m
0x80001e94: 04 81 24 03 lw	s0, 0x48(sp)
[1;34m[src/memory/paddr.c:97 mtrace_log] R: 0x80001e98 (len=4) data=0x04012903[0m
[1;34m[src/memory/paddr.c:97 mtrace_log] R: 0x8009df80 (len=4) data=0x00000100[0m
0x80001e98: 04 01 29 03 lw	s2, 0x40(sp)
[1;34m[src/memory/paddr.c:97 mtrace_log] R: 0x80001e9c (len=4) data=0x03c12983[0m
[1;34m[src/memory/paddr.c:97 mtrace_log] R: 0x8009df7c (len=4) data=0x80002914[0m
0x80001e9c: 03 c1 29 83 lw	s3, 0x3c(sp)
[1;34m[src/memory/paddr.c:97 mtrace_log] R: 0x80001ea0 (len=4) data=0x03812a03[0m
[1;34m[src/memory/paddr.c:97 mtrace_log] R: 0x8009df78 (len=4) data=0x00000000[0m
0x80001ea0: 03 81 2a 03 lw	s4, 0x38(sp)
[1;34m[src/memory/paddr.c:97 mtrace_log] R: 0x80001ea4 (len=4) data=0x03412a83[0m
[1;34m[src/memory/paddr.c:97 mtrace_log] R: 0x8009df74 (len=4) data=0x00000000[0m
0x80001ea4: 03 41 2a 83 lw	s5, 0x34(sp)
[1;34m[src/memory/paddr.c:97 mtrace_log] R: 0x80001ea8 (len=4) data=0x02c12b83[0m
[1;34m[src/memory/paddr.c:97 mtrace_log] R: 0x8009df6c (len=4) data=0x00000000[0m
0x80001ea8: 02 c1 2b 83 lw	s7, 0x2c(sp)
[1;34m[src/memory/paddr.c:97 mtrace_log] R: 0x80001eac (len=4) data=0x02812c03[0m
[1;34m[src/memory/paddr.c:97 mtrace_log] R: 0x8009df68 (len=4) data=0x00000000[0m
0x80001eac: 02 81 2c 03 lw	s8, 0x28(sp)
[1;34m[src/memory/paddr.c:97 mtrace_log] R: 0x80001eb0 (len=4) data=0x02412c83[0m
[1;34m[src/memory/paddr.c:97 mtrace_log] R: 0x8009df64 (len=4) data=0x00000000[0m
0x80001eb0: 02 41 2c 83 lw	s9, 0x24(sp)
[1;34m[src/memory/paddr.c:97 mtrace_log] R: 0x80001eb4 (len=4) data=0x02012d03[0m
[1;34m[src/memory/paddr.c:97 mtrace_log] R: 0x8009df60 (len=4) data=0x00000000[0m
0x80001eb4: 02 01 2d 03 lw	s10, 0x20(sp)
[1;34m[src/memory/paddr.c:97 mtrace_log] R: 0x80001eb8 (len=4) data=0x00048023[0m
[1;34m[src/memory/paddr.c:97 mtrace_log] W: 0x8009552e (len=1) data=0x00000000[0m
0x80001eb8: 00 04 80 23 sb	zero, 0(s1)
[1;34m[src/memory/paddr.c:97 mtrace_log] R: 0x80001ebc (len=4) data=0x04c12083[0m
[1;34m[src/memory/paddr.c:97 mtrace_log] R: 0x8009df8c (len=4) data=0x80002340[0m
0x80001ebc: 04 c1 20 83 lw	ra, 0x4c(sp)
[1;34m[src/memory/paddr.c:97 mtrace_log] R: 0x80001ec0 (len=4) data=0x41648533[0m
0x80001ec0: 41 64 85 33 sub	a0, s1, s6
[1;34m[src/memory/paddr.c:97 mtrace_log] R: 0x80001ec4 (len=4) data=0x04412483[0m
[1;34m[src/memory/paddr.c:97 mtrace_log] R: 0x8009df84 (len=4) data=0x80002e88[0m
0x80001ec4: 04 41 24 83 lw	s1, 0x44(sp)
[1;34m[src/memory/paddr.c:97 mtrace_log] R: 0x80001ec8 (len=4) data=0x03012b03[0m
[1;34m[src/memory/paddr.c:97 mtrace_log] R: 0x8009df70 (len=4) data=0x00000000[0m
0x80001ec8: 03 01 2b 03 lw	s6, 0x30(sp)
[1;34m[src/memory/paddr.c:97 mtrace_log] R: 0x80001ecc (len=4) data=0x05010113[0m
0x80001ecc: 05 01 01 13 addi	sp, sp, 0x50
[1;34m[src/memory/paddr.c:97 mtrace_log] R: 0x80001ed0 (len=4) data=0x00008067[0m
0x80001ed0: 00 00 80 67 ret
[1;34m[src/memory/paddr.c:97 mtrace_log] R: 0x80002340 (len=4) data=0x00093797[0m
0x80002340: 00 09 37 97 auipc	a5, 0x93
[1;34m[src/memory/paddr.c:97 mtrace_log] R: 0x80002344 (len=4) data=0x1dc78793[0m
0x80002344: 1d c7 87 93 addi	a5, a5, 0x1dc
[1;34m[src/memory/paddr.c:97 mtrace_log] R: 0x80002348 (len=4) data=0x0007c703[0m
[1;34m[src/memory/paddr.c:97 mtrace_log] R: 0x8009551c (len=1) data=0x00000020[0m
0x80002348: 00 07 c7 03 lbu	a4, 0(a5)
[1;34m[src/memory/paddr.c:97 mtrace_log] R: 0x8000234c (len=4) data=0x00070e63[0m
0x8000234c: 00 07 0e 63 beqz	a4, 0x1c
[1;34m[src/memory/paddr.c:97 mtrace_log] R: 0x80002350 (len=4) data=0xa00006b7[0m
0x80002350: a0 00 06 b7 lui	a3, 0xa0000
[1;34m[src/memory/paddr.c:97 mtrace_log] R: 0x80002354 (len=4) data=0x3f868693[0m
0x80002354: 3f 86 86 93 addi	a3, a3, 0x3f8
[1;34m[src/memory/paddr.c:97 mtrace_log] R: 0x80002358 (len=4) data=0x00178793[0m
0x80002358: 00 17 87 93 addi	a5, a5, 1
[1;34m[src/memory/paddr.c:97 mtrace_log] R: 0x8000235c (len=4) data=0x00e68023[0m
[1;34m[src/memory/paddr.c:97 mtrace_log] W: 0xa00003f8 (len=1) data=0x00000020[0m
0x8000235c: 00 e6 80 23 sb	a4, 0(a3)
[1;34m[src/memory/paddr.c:97 mtrace_log] R: 0x80002360 (len=4) data=0x0007c703[0m
[1;34m[src/memory/paddr.c:97 mtrace_log] R: 0x8009551d (len=1) data=0x00000020[0m
0x80002360: 00 07 c7 03 lbu	a4, 0(a5)
[1;34m[src/memory/paddr.c:97 mtrace_log] R: 0x80002364 (len=4) data=0xfe071ae3[0m
0x80002364: fe 07 1a e3 bnez	a4, -0xc
[1;34m[src/memory/paddr.c:97 mtrace_log] R: 0x80002358 (len=4) data=0x00178793[0m
0x80002358: 00 17 87 93 addi	a5, a5, 1
[1;34m[src/memory/paddr.c:97 mtrace_log] R: 0x8000235c (len=4) data=0x00e68023[0m
[1;34m[src/memory/paddr.c:97 mtrace_log] W: 0xa00003f8 (len=1) data=0x00000020[0m
0x8000235c: 00 e6 80 23 sb	a4, 0(a3)
[1;34m[src/memory/paddr.c:97 mtrace_log] R: 0x80002360 (len=4) data=0x0007c703[0m
[1;34m[src/memory/paddr.c:97 mtrace_log] R: 0x8009551e (len=1) data=0x00000064[0m
0x80002360: 00 07 c7 03 lbu	a4, 0(a5)
[1;34m[src/memory/paddr.c:97 mtrace_log] R: 0x80002364 (len=4) data=0xfe071ae3[0m
0x80002364: fe 07 1a e3 bnez	a4, -0xc
[1;34m[src/memory/paddr.c:97 mtrace_log] R: 0x80002358 (len=4) data=0x00178793[0m
0x80002358: 00 17 87 93 addi	a5, a5, 1
[1;34m[src/memory/paddr.c:97 mtrace_log] R: 0x8000235c (len=4) data=0x00e68023[0m
[1;34m[src/memory/paddr.c:97 mtrace_log] W: 0xa00003f8 (len=1) data=0x00000064[0m
0x8000235c: 00 e6 80 23 sb	a4, 0(a3)
[1;34m[src/memory/paddr.c:97 mtrace_log] R: 0x80002360 (len=4) data=0x0007c703[0m
[1;34m[src/memory/paddr.c:97 mtrace_log] R: 0x8009551f (len=1) data=0x0000003a[0m
0x80002360: 00 07 c7 03 lbu	a4, 0(a5)
[1;34m[src/memory/paddr.c:97 mtrace_log] R: 0x80002364 (len=4) data=0xfe071ae3[0m
0x80002364: fe 07 1a e3 bnez	a4, -0xc
[1;34m[src/memory/paddr.c:97 mtrace_log] R: 0x80002358 (len=4) data=0x00178793[0m
0x80002358: 00 17 87 93 addi	a5, a5, 1
[1;34m[src/memory/paddr.c:97 mtrace_log] R: 0x8000235c (len=4) data=0x00e68023[0m
[1;34m[src/memory/paddr.c:97 mtrace_log] W: 0xa00003f8 (len=1) data=0x0000003a[0m
0x8000235c: 00 e6 80 23 sb	a4, 0(a3)
[1;34m[src/memory/paddr.c:97 mtrace_log] R: 0x80002360 (len=4) data=0x0007c703[0m
[1;34m[src/memory/paddr.c:97 mtrace_log] R: 0x80095520 (len=1) data=0x00000020[0m
0x80002360: 00 07 c7 03 lbu	a4, 0(a5)
[1;34m[src/memory/paddr.c:97 mtrace_log] R: 0x80002364 (len=4) data=0xfe071ae3[0m
0x80002364: fe 07 1a e3 bnez	a4, -0xc
[1;34m[src/memory/paddr.c:97 mtrace_log] R: 0x80002358 (len=4) data=0x00178793[0m
0x80002358: 00 17 87 93 addi	a5, a5, 1
[1;34m[src/memory/paddr.c:97 mtrace_log] R: 0x8000235c (len=4) data=0x00e68023[0m
[1;34m[src/memory/paddr.c:97 mtrace_log] W: 0xa00003f8 (len=1) data=0x00000020[0m
0x8000235c: 00 e6 80 23 sb	a4, 0(a3)
[1;34m[src/memory/paddr.c:97 mtrace_log] R: 0x80002360 (len=4) data=0x0007c703[0m
[1;34m[src/memory/paddr.c:97 mtrace_log] R: 0x80095521 (len=1) data=0x00000073[0m
0x80002360: 00 07 c7 03 lbu	a4, 0(a5)
[1;34m[src/memory/paddr.c:97 mtrace_log] R: 0x80002364 (len=4) data=0xfe071ae3[0m
0x80002364: fe 07 1a e3 bnez	a4, -0xc
[1;34m[src/memory/paddr.c:97 mtrace_log] R: 0x80002358 (len=4) data=0x00178793[0m
0x80002358: 00 17 87 93 addi	a5, a5, 1
[1;34m[src/memory/paddr.c:97 mtrace_log] R: 0x8000235c (len=4) data=0x00e68023[0m
[1;34m[src/memory/paddr.c:97 mtrace_log] W: 0xa00003f8 (len=1) data=0x00000073[0m
0x8000235c: 00 e6 80 23 sb	a4, 0(a3)
[1;34m[src/memory/paddr.c:97 mtrace_log] R: 0x80002360 (len=4) data=0x0007c703[0m
[1;34m[src/memory/paddr.c:97 mtrace_log] R: 0x80095522 (len=1) data=0x00000063[0m
0x80002360: 00 07 c7 03 lbu	a4, 0(a5)
[1;34m[src/memory/paddr.c:97 mtrace_log] R: 0x80002364 (len=4) data=0xfe071ae3[0m
0x80002364: fe 07 1a e3 bnez	a4, -0xc
[1;34m[src/memory/paddr.c:97 mtrace_log] R: 0x80002358 (len=4) data=0x00178793[0m
0x80002358: 00 17 87 93 addi	a5, a5, 1
[1;34m[src/memory/paddr.c:97 mtrace_log] R: 0x8000235c (len=4) data=0x00e68023[0m
[1;34m[src/memory/paddr.c:97 mtrace_log] W: 0xa00003f8 (len=1) data=0x00000063[0m
0x8000235c: 00 e6 80 23 sb	a4, 0(a3)
[1;34m[src/memory/paddr.c:97 mtrace_log] R: 0x80002360 (len=4) data=0x0007c703[0m
[1;34m[src/memory/paddr.c:97 mtrace_log] R: 0x80095523 (len=1) data=0x00000061[0m
0x80002360: 00 07 c7 03 lbu	a4, 0(a5)
[1;34m[src/memory/paddr.c:97 mtrace_log] R: 0x80002364 (len=4) data=0xfe071ae3[0m
0x80002364: fe 07 1a e3 bnez	a4, -0xc
[1;34m[src/memory/paddr.c:97 mtrace_log] R: 0x80002358 (len=4) data=0x00178793[0m
0x80002358: 00 17 87 93 addi	a5, a5, 1
[1;34m[src/memory/paddr.c:97 mtrace_log] R: 0x8000235c (len=4) data=0x00e68023[0m
[1;34m[src/memory/paddr.c:97 mtrace_log] W: 0xa00003f8 (len=1) data=0x00000061[0m
0x8000235c: 00 e6 80 23 sb	a4, 0(a3)
[1;34m[src/memory/paddr.c:97 mtrace_log] R: 0x80002360 (len=4) data=0x0007c703[0m
[1;34m[src/memory/paddr.c:97 mtrace_log] R: 0x80095524 (len=1) data=0x0000006e[0m
0x80002360: 00 07 c7 03 lbu	a4, 0(a5)
[1;34m[src/memory/paddr.c:97 mtrace_log] R: 0x80002364 (len=4) data=0xfe071ae3[0m
0x80002364: fe 07 1a e3 bnez	a4, -0xc
[1;34m[src/memory/paddr.c:97 mtrace_log] R: 0x80002358 (len=4) data=0x00178793[0m
0x80002358: 00 17 87 93 addi	a5, a5, 1
[1;34m[src/memory/paddr.c:97 mtrace_log] R: 0x8000235c (len=4) data=0x00e68023[0m
[1;34m[src/memory/paddr.c:97 mtrace_log] W: 0xa00003f8 (len=1) data=0x0000006e[0m
0x8000235c: 00 e6 80 23 sb	a4, 0(a3)
[1;34m[src/memory/paddr.c:97 mtrace_log] R: 0x80002360 (len=4) data=0x0007c703[0m
[1;34m[src/memory/paddr.c:97 mtrace_log] R: 0x80095525 (len=1) data=0x00000020[0m
0x80002360: 00 07 c7 03 lbu	a4, 0(a5)
[1;34m[src/memory/paddr.c:97 mtrace_log] R: 0x80002364 (len=4) data=0xfe071ae3[0m
0x80002364: fe 07 1a e3 bnez	a4, -0xc
[1;34m[src/memory/paddr.c:97 mtrace_log] R: 0x80002358 (len=4) data=0x00178793[0m
0x80002358: 00 17 87 93 addi	a5, a5, 1
[1;34m[src/memory/paddr.c:97 mtrace_log] R: 0x8000235c (len=4) data=0x00e68023[0m
[1;34m[src/memory/paddr.c:97 mtrace_log] W: 0xa00003f8 (len=1) data=0x00000020[0m
0x8000235c: 00 e6 80 23 sb	a4, 0(a3)
[1;34m[src/memory/paddr.c:97 mtrace_log] R: 0x80002360 (len=4) data=0x0007c703[0m
[1;34m[src/memory/paddr.c:97 mtrace_log] R: 0x80095526 (len=1) data=0x00000064[0m
0x80002360: 00 07 c7 03 lbu	a4, 0(a5)
[1;34m[src/memory/paddr.c:97 mtrace_log] R: 0x80002364 (len=4) data=0xfe071ae3[0m
0x80002364: fe 07 1a e3 bnez	a4, -0xc
[1;34m[src/memory/paddr.c:97 mtrace_log] R: 0x80002358 (len=4) data=0x00178793[0m
0x80002358: 00 17 87 93 addi	a5, a5, 1
[1;34m[src/memory/paddr.c:97 mtrace_log] R: 0x8000235c (len=4) data=0x00e68023[0m
[1;34m[src/memory/paddr.c:97 mtrace_log] W: 0xa00003f8 (len=1) data=0x00000064[0m
0x8000235c: 00 e6 80 23 sb	a4, 0(a3)
[1;34m[src/memory/paddr.c:97 mtrace_log] R: 0x80002360 (len=4) data=0x0007c703[0m
[1;34m[src/memory/paddr.c:97 mtrace_log] R: 0x80095527 (len=1) data=0x00000065[0m
0x80002360: 00 07 c7 03 lbu	a4, 0(a5)
[1;34m[src/memory/paddr.c:97 mtrace_log] R: 0x80002364 (len=4) data=0xfe071ae3[0m
0x80002364: fe 07 1a e3 bnez	a4, -0xc
[1;34m[src/memory/paddr.c:97 mtrace_log] R: 0x80002358 (len=4) data=0x00178793[0m
0x80002358: 00 17 87 93 addi	a5, a5, 1
[1;34m[src/memory/paddr.c:97 mtrace_log] R: 0x8000235c (len=4) data=0x00e68023[0m
[1;34m[src/memory/paddr.c:97 mtrace_log] W: 0xa00003f8 (len=1) data=0x00000065[0m
0x8000235c: 00 e6 80 23 sb	a4, 0(a3)
[1;34m[src/memory/paddr.c:97 mtrace_log] R: 0x80002360 (len=4) data=0x0007c703[0m
[1;34m[src/memory/paddr.c:97 mtrace_log] R: 0x80095528 (len=1) data=0x00000076[0m
0x80002360: 00 07 c7 03 lbu	a4, 0(a5)
[1;34m[src/memory/paddr.c:97 mtrace_log] R: 0x80002364 (len=4) data=0xfe071ae3[0m
0x80002364: fe 07 1a e3 bnez	a4, -0xc
[1;34m[src/memory/paddr.c:97 mtrace_log] R: 0x80002358 (len=4) data=0x00178793[0m
0x80002358: 00 17 87 93 addi	a5, a5, 1
[1;34m[src/memory/paddr.c:97 mtrace_log] R: 0x8000235c (len=4) data=0x00e68023[0m
[1;34m[src/memory/paddr.c:97 mtrace_log] W: 0xa00003f8 (len=1) data=0x00000076[0m
0x8000235c: 00 e6 80 23 sb	a4, 0(a3)
[1;34m[src/memory/paddr.c:97 mtrace_log] R: 0x80002360 (len=4) data=0x0007c703[0m
[1;34m[src/memory/paddr.c:97 mtrace_log] R: 0x80095529 (len=1) data=0x00000069[0m
0x80002360: 00 07 c7 03 lbu	a4, 0(a5)
[1;34m[src/memory/paddr.c:97 mtrace_log] R: 0x80002364 (len=4) data=0xfe071ae3[0m
0x80002364: fe 07 1a e3 bnez	a4, -0xc
[1;34m[src/memory/paddr.c:97 mtrace_log] R: 0x80002358 (len=4) data=0x00178793[0m
0x80002358: 00 17 87 93 addi	a5, a5, 1
[1;34m[src/memory/paddr.c:97 mtrace_log] R: 0x8000235c (len=4) data=0x00e68023[0m
[1;34m[src/memory/paddr.c:97 mtrace_log] W: 0xa00003f8 (len=1) data=0x00000069[0m
0x8000235c: 00 e6 80 23 sb	a4, 0(a3)
[1;34m[src/memory/paddr.c:97 mtrace_log] R: 0x80002360 (len=4) data=0x0007c703[0m
[1;34m[src/memory/paddr.c:97 mtrace_log] R: 0x8009552a (len=1) data=0x00000063[0m
0x80002360: 00 07 c7 03 lbu	a4, 0(a5)
[1;34m[src/memory/paddr.c:97 mtrace_log] R: 0x80002364 (len=4) data=0xfe071ae3[0m
0x80002364: fe 07 1a e3 bnez	a4, -0xc
[1;34m[src/memory/paddr.c:97 mtrace_log] R: 0x80002358 (len=4) data=0x00178793[0m
0x80002358: 00 17 87 93 addi	a5, a5, 1
[1;34m[src/memory/paddr.c:97 mtrace_log] R: 0x8000235c (len=4) data=0x00e68023[0m
[1;34m[src/memory/paddr.c:97 mtrace_log] W: 0xa00003f8 (len=1) data=0x00000063[0m
0x8000235c: 00 e6 80 23 sb	a4, 0(a3)
[1;34m[src/memory/paddr.c:97 mtrace_log] R: 0x80002360 (len=4) data=0x0007c703[0m
[1;34m[src/memory/paddr.c:97 mtrace_log] R: 0x8009552b (len=1) data=0x00000065[0m
0x80002360: 00 07 c7 03 lbu	a4, 0(a5)
[1;34m[src/memory/paddr.c:97 mtrace_log] R: 0x80002364 (len=4) data=0xfe071ae3[0m
0x80002364: fe 07 1a e3 bnez	a4, -0xc
[1;34m[src/memory/paddr.c:97 mtrace_log] R: 0x80002358 (len=4) data=0x00178793[0m
0x80002358: 00 17 87 93 addi	a5, a5, 1
[1;34m[src/memory/paddr.c:97 mtrace_log] R: 0x8000235c (len=4) data=0x00e68023[0m
[1;34m[src/memory/paddr.c:97 mtrace_log] W: 0xa00003f8 (len=1) data=0x00000065[0m
0x8000235c: 00 e6 80 23 sb	a4, 0(a3)
[1;34m[src/memory/paddr.c:97 mtrace_log] R: 0x80002360 (len=4) data=0x0007c703[0m
[1;34m[src/memory/paddr.c:97 mtrace_log] R: 0x8009552c (len=1) data=0x00000073[0m
0x80002360: 00 07 c7 03 lbu	a4, 0(a5)
[1;34m[src/memory/paddr.c:97 mtrace_log] R: 0x80002364 (len=4) data=0xfe071ae3[0m
0x80002364: fe 07 1a e3 bnez	a4, -0xc
[1;34m[src/memory/paddr.c:97 mtrace_log] R: 0x80002358 (len=4) data=0x00178793[0m
0x80002358: 00 17 87 93 addi	a5, a5, 1
[1;34m[src/memory/paddr.c:97 mtrace_log] R: 0x8000235c (len=4) data=0x00e68023[0m
[1;34m[src/memory/paddr.c:97 mtrace_log] W: 0xa00003f8 (len=1) data=0x00000073[0m
0x8000235c: 00 e6 80 23 sb	a4, 0(a3)
[1;34m[src/memory/paddr.c:97 mtrace_log] R: 0x80002360 (len=4) data=0x0007c703[0m
[1;34m[src/memory/paddr.c:97 mtrace_log] R: 0x8009552d (len=1) data=0x0000000a[0m
0x80002360: 00 07 c7 03 lbu	a4, 0(a5)
[1;34m[src/memory/paddr.c:97 mtrace_log] R: 0x80002364 (len=4) data=0xfe071ae3[0m
0x80002364: fe 07 1a e3 bnez	a4, -0xc
[1;34m[src/memory/paddr.c:97 mtrace_log] R: 0x80002358 (len=4) data=0x00178793[0m
0x80002358: 00 17 87 93 addi	a5, a5, 1
[1;34m[src/memory/paddr.c:97 mtrace_log] R: 0x8000235c (len=4) data=0x00e68023[0m
[1;34m[src/memory/paddr.c:97 mtrace_log] W: 0xa00003f8 (len=1) data=0x0000000a[0m
0x8000235c: 00 e6 80 23 sb	a4, 0(a3)
[1;34m[src/memory/paddr.c:97 mtrace_log] R: 0x80002360 (len=4) data=0x0007c703[0m
[1;34m[src/memory/paddr.c:97 mtrace_log] R: 0x8009552e (len=1) data=0x00000000[0m
0x80002360: 00 07 c7 03 lbu	a4, 0(a5)
[1;34m[src/memory/paddr.c:97 mtrace_log] R: 0x80002364 (len=4) data=0xfe071ae3[0m
0x80002364: fe 07 1a e3 bnez	a4, -0xc
[1;34m[src/memory/paddr.c:97 mtrace_log] R: 0x80002368 (len=4) data=0x01c12083[0m
[1;34m[src/memory/paddr.c:97 mtrace_log] R: 0x8009dfac (len=4) data=0x80000e90[0m
0x80002368: 01 c1 20 83 lw	ra, 0x1c(sp)
[1;34m[src/memory/paddr.c:97 mtrace_log] R: 0x8000236c (len=4) data=0x04010113[0m
0x8000236c: 04 01 01 13 addi	sp, sp, 0x40
[1;34m[src/memory/paddr.c:97 mtrace_log] R: 0x80002370 (len=4) data=0x00008067[0m
0x80002370: 00 00 80 67 ret
[1;34m[src/memory/paddr.c:97 mtrace_log] R: 0x80000e90 (len=4) data=0x00140413[0m
0x80000e90: 00 14 04 13 addi	s0, s0, 1
[1;34m[src/memory/paddr.c:97 mtrace_log] R: 0x80000e94 (len=4) data=0x00448493[0m
0x80000e94: 00 44 84 93 addi	s1, s1, 4
[1;34m[src/memory/paddr.c:97 mtrace_log] R: 0x80000e98 (len=4) data=0xff2412e3[0m
0x80000e98: ff 24 12 e3 bne	s0, s2, -0x1c
[1;34m[src/memory/paddr.c:97 mtrace_log] R: 0x80000e7c (len=4) data=0x0004a603[0m
[1;34m[src/memory/paddr.c:97 mtrace_log] R: 0x80002e8c (len=4) data=0x00000000[0m
0x80000e7c: 00 04 a6 03 lw	a2, 0(s1)
[1;34m[src/memory/paddr.c:97 mtrace_log] R: 0x80000e80 (len=4) data=0x00060863[0m
0x80000e80: 00 06 08 63 beqz	a2, 0x10
[1;34m[src/memory/paddr.c:97 mtrace_log] R: 0x80000e90 (len=4) data=0x00140413[0m
0x80000e90: 00 14 04 13 addi	s0, s0, 1
[1;34m[src/memory/paddr.c:97 mtrace_log] R: 0x80000e94 (len=4) data=0x00448493[0m
0x80000e94: 00 44 84 93 addi	s1, s1, 4
[1;34m[src/memory/paddr.c:97 mtrace_log] R: 0x80000e98 (len=4) data=0xff2412e3[0m
0x80000e98: ff 24 12 e3 bne	s0, s2, -0x1c
[1;34m[src/memory/paddr.c:97 mtrace_log] R: 0x80000e7c (len=4) data=0x0004a603[0m
[1;34m[src/memory/paddr.c:97 mtrace_log] R: 0x80002e90 (len=4) data=0x00000000[0m
0x80000e7c: 00 04 a6 03 lw	a2, 0(s1)
[1;34m[src/memory/paddr.c:97 mtrace_log] R: 0x80000e80 (len=4) data=0x00060863[0m
0x80000e80: 00 06 08 63 beqz	a2, 0x10
[1;34m[src/memory/paddr.c:97 mtrace_log] R: 0x80000e90 (len=4) data=0x00140413[0m
0x80000e90: 00 14 04 13 addi	s0, s0, 1
[1;34m[src/memory/paddr.c:97 mtrace_log] R: 0x80000e94 (len=4) data=0x00448493[0m
0x80000e94: 00 44 84 93 addi	s1, s1, 4
[1;34m[src/memory/paddr.c:97 mtrace_log] R: 0x80000e98 (len=4) data=0xff2412e3[0m
0x80000e98: ff 24 12 e3 bne	s0, s2, -0x1c
[1;34m[src/memory/paddr.c:97 mtrace_log] R: 0x80000e7c (len=4) data=0x0004a603[0m
[1;34m[src/memory/paddr.c:97 mtrace_log] R: 0x80002e94 (len=4) data=0x00000000[0m
0x80000e7c: 00 04 a6 03 lw	a2, 0(s1)
[1;34m[src/memory/paddr.c:97 mtrace_log] R: 0x80000e80 (len=4) data=0x00060863[0m
0x80000e80: 00 06 08 63 beqz	a2, 0x10
[1;34m[src/memory/paddr.c:97 mtrace_log] R: 0x80000e90 (len=4) data=0x00140413[0m
0x80000e90: 00 14 04 13 addi	s0, s0, 1
[1;34m[src/memory/paddr.c:97 mtrace_log] R: 0x80000e94 (len=4) data=0x00448493[0m
0x80000e94: 00 44 84 93 addi	s1, s1, 4
[1;34m[src/memory/paddr.c:97 mtrace_log] R: 0x80000e98 (len=4) data=0xff2412e3[0m
0x80000e98: ff 24 12 e3 bne	s0, s2, -0x1c
[1;34m[src/memory/paddr.c:97 mtrace_log] R: 0x80000e7c (len=4) data=0x0004a603[0m
[1;34m[src/memory/paddr.c:97 mtrace_log] R: 0x80002e98 (len=4) data=0x80002958[0m
0x80000e7c: 00 04 a6 03 lw	a2, 0(s1)
[1;34m[src/memory/paddr.c:97 mtrace_log] R: 0x80000e80 (len=4) data=0x00060863[0m
0x80000e80: 00 06 08 63 beqz	a2, 0x10
[1;34m[src/memory/paddr.c:97 mtrace_log] R: 0x80000e84 (len=4) data=0x00040593[0m
0x80000e84: 00 04 05 93 mv	a1, s0
[1;34m[src/memory/paddr.c:97 mtrace_log] R: 0x80000e88 (len=4) data=0x00098513[0m
0x80000e88: 00 09 85 13 mv	a0, s3
[1;34m[src/memory/paddr.c:97 mtrace_log] R: 0x80000e8c (len=4) data=0x474010ef[0m
0x80000e8c: 47 40 10 ef jal	0x1474
[1;34m[src/memory/paddr.c:97 mtrace_log] R: 0x80002300 (len=4) data=0xfc010113[0m
0x80002300: fc 01 01 13 addi	sp, sp, -0x40
[1;34m[src/memory/paddr.c:97 mtrace_log] R: 0x80002304 (len=4) data=0x02410313[0m
0x80002304: 02 41 03 13 addi	t1, sp, 0x24
[1;34m[src/memory/paddr.c:97 mtrace_log] R: 0x80002308 (len=4) data=0x02b12223[0m
[1;34m[src/memory/paddr.c:97 mtrace_log] W: 0x8009dfb4 (len=4) data=0x00000068[0m
0x80002308: 02 b1 22 23 sw	a1, 0x24(sp)
[1;34m[src/memory/paddr.c:97 mtrace_log] R: 0x8000230c (len=4) data=0x02c12423[0m
[1;34m[src/memory/paddr.c:97 mtrace_log] W: 0x8009dfb8 (len=4) data=0x80002958[0m
0x8000230c: 02 c1 24 23 sw	a2, 0x28(sp)
[1;34m[src/memory/paddr.c:97 mtrace_log] R: 0x80002310 (len=4) data=0x00050593[0m
0x80002310: 00 05 05 93 mv	a1, a0
[1;34m[src/memory/paddr.c:97 mtrace_log] R: 0x80002314 (len=4) data=0x00030613[0m
0x80002314: 00 03 06 13 mv	a2, t1
[1;34m[src/memory/paddr.c:97 mtrace_log] R: 0x80002318 (len=4) data=0x00093517[0m
0x80002318: 00 09 35 17 auipc	a0, 0x93
[1;34m[src/memory/paddr.c:97 mtrace_log] R: 0x8000231c (len=4) data=0x20450513[0m
0x8000231c: 20 45 05 13 addi	a0, a0, 0x204
[1;34m[src/memory/paddr.c:97 mtrace_log] R: 0x80002320 (len=4) data=0x02e12823[0m
[1;34m[src/memory/paddr.c:97 mtrace_log] W: 0x8009dfc0 (len=4) data=0x00000000[0m
0x80002320: 02 e1 28 23 sw	a4, 0x30(sp)
[1;34m[src/memory/paddr.c:97 mtrace_log] R: 0x80002324 (len=4) data=0x02f12a23[0m
[1;34m[src/memory/paddr.c:97 mtrace_log] W: 0x8009dfc4 (len=4) data=0x8009552e[0m
0x80002324: 02 f1 2a 23 sw	a5, 0x34(sp)
[1;34m[src/memory/paddr.c:97 mtrace_log] R: 0x80002328 (len=4) data=0x00112e23[0m
[1;34m[src/memory/paddr.c:97 mtrace_log] W: 0x8009dfac (len=4) data=0x80000e90[0m
0x80002328: 00 11 2e 23 sw	ra, 0x1c(sp)
[1;34m[src/memory/paddr.c:97 mtrace_log] R: 0x8000232c (len=4) data=0x02d12623[0m
[1;34m[src/memory/paddr.c:97 mtrace_log] W: 0x8009dfbc (len=4) data=0xa00003f8[0m
0x8000232c: 02 d1 26 23 sw	a3, 0x2c(sp)
[1;34m[src/memory/paddr.c:97 mtrace_log] R: 0x80002330 (len=4) data=0x03012c23[0m
[1;34m[src/memory/paddr.c:97 mtrace_log] W: 0x8009dfc8 (len=4) data=0x800032b4[0m
0x80002330: 03 01 2c 23 sw	a6, 0x38(sp)
[1;34m[src/memory/paddr.c:97 mtrace_log] R: 0x80002334 (len=4) data=0x03112e23[0m
[1;34m[src/memory/paddr.c:97 mtrace_log] W: 0x8009dfcc (len=4) data=0x00000000[0m
0x80002334: 03 11 2e 23 sw	a7, 0x3c(sp)
[1;34m[src/memory/paddr.c:97 mtrace_log] R: 0x80002338 (len=4) data=0x00612623[0m
[1;34m[src/memory/paddr.c:97 mtrace_log] W: 0x8009df9c (len=4) data=0x8009dfb4[0m
0x80002338: 00 61 26 23 sw	t1, 0xc(sp)
[1;34m[src/memory/paddr.c:97 mtrace_log] R: 0x8000233c (len=4) data=0xad5ff0ef[0m
0x8000233c: ad 5f f0 ef jal	-0x52c
[1;34m[src/memory/paddr.c:97 mtrace_log] R: 0x80001e10 (len=4) data=0xfb010113[0m
0x80001e10: fb 01 01 13 addi	sp, sp, -0x50
[1;34m[src/memory/paddr.c:97 mtrace_log] R: 0x80001e14 (len=4) data=0x03612823[0m
[1;34m[src/memory/paddr.c:97 mtrace_log] W: 0x8009df70 (len=4) data=0x00000000[0m
0x80001e14: 03 61 28 23 sw	s6, 0x30(sp)
[1;34m[src/memory/paddr.c:97 mtrace_log] R: 0x80001e18 (len=4) data=0x04112623[0m
[1;34m[src/memory/paddr.c:97 mtrace_log] W: 0x8009df8c (len=4) data=0x80002340[0m
0x80001e18: 04 11 26 23 sw	ra, 0x4c(sp)
[1;34m[src/memory/paddr.c:97 mtrace_log] R: 0x80001e1c (len=4) data=0x04912223[0m
[1;34m[src/memory/paddr.c:97 mtrace_log] W: 0x8009df84 (len=4) data=0x80002e98[0m
0x80001e1c: 04 91 22 23 sw	s1, 0x44(sp)
[1;34m[src/memory/paddr.c:97 mtrace_log] R: 0x80001e20 (len=4) data=0x0005c783[0m
[1;34m[src/memory/paddr.c:97 mtrace_log] R: 0x80002914 (len=1) data=0x00000020[0m
0x80001e20: 00 05 c7 83 lbu	a5, 0(a1)
[1;34m[src/memory/paddr.c:97 mtrace_log] R: 0x80001e24 (len=4) data=0x00050b13[0m
0x80001e24: 00 05 0b 13 mv	s6, a0
[1;34m[src/memory/paddr.c:97 mtrace_log] R: 0x80001e28 (len=4) data=0x44078a63[0m
0x80001e28: 44 07 8a 63 beqz	a5, 0x454
[1;34m[src/memory/paddr.c:97 mtrace_log] R: 0x80001e2c (len=4) data=0x05212023[0m
[1;34m[src/memory/paddr.c:97 mtrace_log] W: 0x8009df80 (len=4) data=0x00000100[0m
0x80001e2c: 05 21 20 23 sw	s2, 0x40(sp)
[1;34m[src/memory/paddr.c:97 mtrace_log] R: 0x80001e30 (len=4) data=0x03312e23[0m
[1;34m[src/memory/paddr.c:97 mtrace_log] W: 0x8009df7c (len=4) data=0x80002914[0m
0x80001e30: 03 31 2e 23 sw	s3, 0x3c(sp)
[1;34m[src/memory/paddr.c:97 mtrace_log] R: 0x80001e34 (len=4) data=0x03412c23[0m
[1;34m[src/memory/paddr.c:97 mtrace_log] W: 0x8009df78 (len=4) data=0x00000000[0m
0x80001e34: 03 41 2c 23 sw	s4, 0x38(sp)
[1;34m[src/memory/paddr.c:97 mtrace_log] R: 0x80001e38 (len=4) data=0x03512a23[0m
[1;34m[src/memory/paddr.c:97 mtrace_log] W: 0x8009df74 (len=4) data=0x00000000[0m
0x80001e38: 03 51 2a 23 sw	s5, 0x34(sp)
[1;34m[src/memory/paddr.c:97 mtrace_log] R: 0x80001e3c (len=4) data=0x03712623[0m
[1;34m[src/memory/paddr.c:97 mtrace_log] W: 0x8009df6c (len=4) data=0x00000000[0m
0x80001e3c: 03 71 26 23 sw	s7, 0x2c(sp)
[1;34m[src/memory/paddr.c:97 mtrace_log] R: 0x80001e40 (len=4) data=0x03812423[0m
[1;34m[src/memory/paddr.c:97 mtrace_log] W: 0x8009df68 (len=4) data=0x00000000[0m
0x80001e40: 03 81 24 23 sw	s8, 0x28(sp)
[1;34m[src/memory/paddr.c:97 mtrace_log] R: 0x80001e44 (len=4) data=0x03912223[0m
[1;34m[src/memory/paddr.c:97 mtrace_log] W: 0x8009df64 (len=4) data=0x00000000[0m
0x80001e44: 03 91 22 23 sw	s9, 0x24(sp)
[1;34m[src/memory/paddr.c:97 mtrace_log] R: 0x80001e48 (len=4) data=0x03a12023[0m
[1;34m[src/memory/paddr.c:97 mtrace_log] W: 0x8009df60 (len=4) data=0x00000000[0m
0x80001e48: 03 a1 20 23 sw	s10, 0x20(sp)
[1;34m[src/memory/paddr.c:97 mtrace_log] R: 0x80001e4c (len=4) data=0x04812423[0m
[1;34m[src/memory/paddr.c:97 mtrace_log] W: 0x8009df88 (len=4) data=0x00000068[0m
0x80001e4c: 04 81 24 23 sw	s0, 0x48(sp)
[1;34m[src/memory/paddr.c:97 mtrace_log] R: 0x80001e50 (len=4) data=0x00060a13[0m
0x80001e50: 00 06 0a 13 mv	s4, a2
[1;34m[src/memory/paddr.c:97 mtrace_log] R: 0x80001e54 (len=4) data=0x00050493[0m
0x80001e54: 00 05 04 93 mv	s1, a0
[1;34m[src/memory/paddr.c:97 mtrace_log] R: 0x80001e58 (len=4) data=0x02500a93[0m
0x80001e58: 02 50 0a 93 addi	s5, zero, 0x25
[1;34m[src/memory/paddr.c:97 mtrace_log] R: 0x80001e5c (len=4) data=0x01000993[0m
0x80001e5c: 01 00 09 93 addi	s3, zero, 0x10
[1;34m[src/memory/paddr.c:97 mtrace_log] R: 0x80001e60 (len=4) data=0x00001917[0m
0x80001e60: 00 00 19 17 auipc	s2, 1
[1;34m[src/memory/paddr.c:97 mtrace_log] R: 0x80001e64 (len=4) data=0x2d890913[0m
0x80001e64: 2d 89 09 13 addi	s2, s2, 0x2d8
[1;34m[src/memory/paddr.c:97 mtrace_log] R: 0x80001e68 (len=4) data=0x00900d13[0m
0x80001e68: 00 90 0d 13 addi	s10, zero, 9
[1;34m[src/memory/paddr.c:97 mtrace_log] R: 0x80001e6c (len=4) data=0x02e00c93[0m
0x80001e6c: 02 e0 0c 93 addi	s9, zero, 0x2e
[1;34m[src/memory/paddr.c:97 mtrace_log] R: 0x80001e70 (len=4) data=0x06800c13[0m
0x80001e70: 06 80 0c 13 addi	s8, zero, 0x68
[1;34m[src/memory/paddr.c:97 mtrace_log] R: 0x80001e74 (len=4) data=0x00001b97[0m
0x80001e74: 00 00 1b 97 auipc	s7, 1
[1;34m[src/memory/paddr.c:97 mtrace_log] R: 0x80001e78 (len=4) data=0x308b8b93[0m
0x80001e78: 30 8b 8b 93 addi	s7, s7, 0x308
[1;34m[src/memory/paddr.c:97 mtrace_log] R: 0x80001e7c (len=4) data=0x05578c63[0m
0x80001e7c: 05 57 8c 63 beq	a5, s5, 0x58
[1;34m[src/memory/paddr.c:97 mtrace_log] R: 0x80001e80 (len=4) data=0x00f48023[0m
[1;34m[src/memory/paddr.c:97 mtrace_log] W: 0x8009551c (len=1) data=0x00000020[0m
0x80001e80: 00 f4 80 23 sb	a5, 0(s1)
[1;34m[src/memory/paddr.c:97 mtrace_log] R: 0x80001e84 (len=4) data=0x0015c783[0m
[1;34m[src/memory/paddr.c:97 mtrace_log] R: 0x80002915 (len=1) data=0x00000020[0m
0x80001e84: 00 15 c7 83 lbu	a5, 1(a1)
[1;34m[src/memory/paddr.c:97 mtrace_log] R: 0x80001e88 (len=4) data=0x00148493[0m
0x80001e88: 00 14 84 93 addi	s1, s1, 1
[1;34m[src/memory/paddr.c:97 mtrace_log] R: 0x80001e8c (len=4) data=0x00158593[0m
0x80001e8c: 00 15 85 93 addi	a1, a1, 1
[1;34m[src/memory/paddr.c:97 mtrace_log] R: 0x80001e90 (len=4) data=0xfe0796e3[0m
0x80001e90: fe 07 96 e3 bnez	a5, -0x14
[1;34m[src/memory/paddr.c:97 mtrace_log] R: 0x80001e7c (len=4) data=0x05578c63[0m
0x80001e7c: 05 57 8c 63 beq	a5, s5, 0x58
[1;34m[src/memory/paddr.c:97 mtrace_log] R: 0x80001e80 (len=4) data=0x00f48023[0m
[1;34m[src/memory/paddr.c:97 mtrace_log] W: 0x8009551d (len=1) data=0x00000020[0m
0x80001e80: 00 f4 80 23 sb	a5, 0(s1)
[1;34m[src/memory/paddr.c:97 mtrace_log] R: 0x80001e84 (len=4) data=0x0015c783[0m
[1;34m[src/memory/paddr.c:97 mtrace_log] R: 0x80002916 (len=1) data=0x00000025[0m
0x80001e84: 00 15 c7 83 lbu	a5, 1(a1)
[1;34m[src/memory/paddr.c:97 mtrace_log] R: 0x80001e88 (len=4) data=0x00148493[0m
0x80001e88: 00 14 84 93 addi	s1, s1, 1
[1;34m[src/memory/paddr.c:97 mtrace_log] R: 0x80001e8c (len=4) data=0x00158593[0m
0x80001e8c: 00 15 85 93 addi	a1, a1, 1
[1;34m[src/memory/paddr.c:97 mtrace_log] R: 0x80001e90 (len=4) data=0xfe0796e3[0m
0x80001e90: fe 07 96 e3 bnez	a5, -0x14
[1;34m[src/memory/paddr.c:97 mtrace_log] R: 0x80001e7c (len=4) data=0x05578c63[0m
0x80001e7c: 05 57 8c 63 beq	a5, s5, 0x58
[1;34m[src/memory/paddr.c:97 mtrace_log] R: 0x80001ed4 (len=4) data=0x00000793[0m
0x80001ed4: 00 00 07 93 mv	a5, zero
[1;34m[src/memory/paddr.c:97 mtrace_log] R: 0x80001ed8 (len=4) data=0x0015c803[0m
[1;34m[src/memory/paddr.c:97 mtrace_log] R: 0x80002917 (len=1) data=0x00000063[0m
0x80001ed8: 00 15 c8 03 lbu	a6, 1(a1)
[1;34m[src/memory/paddr.c:97 mtrace_log] R: 0x80001edc (len=4) data=0x00158413[0m
0x80001edc: 00 15 84 13 addi	s0, a1, 1
[1;34m[src/memory/paddr.c:97 mtrace_log] R: 0x80001ee0 (len=4) data=0xfe080713[0m
0x80001ee0: fe 08 07 13 addi	a4, a6, -0x20
[1;34m[src/memory/paddr.c:97 mtrace_log] R: 0x80001ee4 (len=4) data=0x0ff77713[0m
0x80001ee4: 0f f7 77 13 andi	a4, a4, 0xff
[1;34m[src/memory/paddr.c:97 mtrace_log] R: 0x80001ee8 (len=4) data=0x00e9ec63[0m
0x80001ee8: 00 e9 ec 63 bltu	s3, a4, 0x18
[1;34m[src/memory/paddr.c:97 mtrace_log] R: 0x80001f00 (len=4) data=0xfd080713[0m
0x80001f00: fd 08 07 13 addi	a4, a6, -0x30
[1;34m[src/memory/paddr.c:97 mtrace_log] R: 0x80001f04 (len=4) data=0x0ff77713[0m
0x80001f04: 0f f7 77 13 andi	a4, a4, 0xff
[1;34m[src/memory/paddr.c:97 mtrace_log] R: 0x80001f08 (len=4) data=0x0ced7263[0m
0x80001f08: 0c ed 72 63 bgeu	s10, a4, 0xc4
[1;34m[src/memory/paddr.c:97 mtrace_log] R: 0x80001f0c (len=4) data=0x02a00713[0m
0x80001f0c: 02 a0 07 13 addi	a4, zero, 0x2a
[1;34m[src/memory/paddr.c:97 mtrace_log] R: 0x80001f10 (len=4) data=0xfff00693[0m
0x80001f10: ff f0 06 93 addi	a3, zero, -1
[1;34m[src/memory/paddr.c:97 mtrace_log] R: 0x80001f14 (len=4) data=0x00e81a63[0m
0x80001f14: 00 e8 1a 63 bne	a6, a4, 0x14
[1;34m[src/memory/paddr.c:97 mtrace_log] R: 0x80001f28 (len=4) data=0xfff00713[0m
0x80001f28: ff f0 07 13 addi	a4, zero, -1
[1;34m[src/memory/paddr.c:97 mtrace_log] R: 0x80001f2c (len=4) data=0x07980a63[0m
0x80001f2c: 07 98 0a 63 beq	a6, s9, 0x74
[1;34m[src/memory/paddr.c:97 mtrace_log] R: 0x80001f30 (len=4) data=0x0fb87613[0m
0x80001f30: 0f b8 76 13 andi	a2, a6, 0xfb
[1;34m[src/memory/paddr.c:97 mtrace_log] R: 0x80001f34 (len=4) data=0x01861663[0m
0x80001f34: 01 86 16 63 bne	a2, s8, 0xc
[1;34m[src/memory/paddr.c:97 mtrace_log] R: 0x80001f40 (len=4) data=0xfdb80813[0m
0x80001f40: fd b8 08 13 addi	a6, a6, -0x25
[1;34m[src/memory/paddr.c:97 mtrace_log] R: 0x80001f44 (len=4) data=0x0ff87813[0m
0x80001f44: 0f f8 78 13 andi	a6, a6, 0xff
[1;34m[src/memory/paddr.c:97 mtrace_log] R: 0x80001f48 (len=4) data=0x05300613[0m
0x80001f48: 05 30 06 13 addi	a2, zero, 0x53
[1;34m[src/memory/paddr.c:97 mtrace_log] R: 0x80001f4c (len=4) data=0x0b066c63[0m
0x80001f4c: 0b 06 6c 63 bltu	a2, a6, 0xb8
[1;34m[src/memory/paddr.c:97 mtrace_log] R: 0x80001f50 (len=4) data=0x00281813[0m
0x80001f50: 00 28 18 13 slli	a6, a6, 2
[1;34m[src/memory/paddr.c:97 mtrace_log] R: 0x80001f54 (len=4) data=0x01780833[0m
0x80001f54: 01 78 08 33 add	a6, a6, s7
[1;34m[src/memory/paddr.c:97 mtrace_log] R: 0x80001f58 (len=4) data=0x00082603[0m
[1;34m[src/memory/paddr.c:97 mtrace_log] R: 0x80003274 (len=4) data=0xffffef08[0m
0x80001f58: 00 08 26 03 lw	a2, 0(a6)
[1;34m[src/memory/paddr.c:97 mtrace_log] R: 0x80001f5c (len=4) data=0x01760633[0m
0x80001f5c: 01 76 06 33 add	a2, a2, s7
[1;34m[src/memory/paddr.c:97 mtrace_log] R: 0x80001f60 (len=4) data=0x00060067[0m
0x80001f60: 00 06 00 67 jr	a2
[1;34m[src/memory/paddr.c:97 mtrace_log] R: 0x80002084 (len=4) data=0x0017f793[0m
0x80002084: 00 17 f7 93 andi	a5, a5, 1
[1;34m[src/memory/paddr.c:97 mtrace_log] R: 0x80002088 (len=4) data=0x004a0613[0m
0x80002088: 00 4a 06 13 addi	a2, s4, 4
[1;34m[src/memory/paddr.c:97 mtrace_log] R: 0x8000208c (len=4) data=0x00140593[0m
0x8000208c: 00 14 05 93 addi	a1, s0, 1
[1;34m[src/memory/paddr.c:97 mtrace_log] R: 0x80002090 (len=4) data=0x18078c63[0m
0x80002090: 18 07 8c 63 beqz	a5, 0x198
[1;34m[src/memory/paddr.c:97 mtrace_log] R: 0x80002228 (len=4) data=0x00100793[0m
0x80002228: 00 10 07 93 addi	a5, zero, 1
[1;34m[src/memory/paddr.c:97 mtrace_log] R: 0x8000222c (len=4) data=0x0ad7dc63[0m
0x8000222c: 0a d7 dc 63 bge	a5, a3, 0xb8
[1;34m[src/memory/paddr.c:97 mtrace_log] R: 0x800022e4 (len=4) data=0x000a2783[0m
[1;34m[src/memory/paddr.c:97 mtrace_log] R: 0x8009dfb4 (len=4) data=0x00000068[0m
0x800022e4: 00 0a 27 83 lw	a5, 0(s4)
[1;34m[src/memory/paddr.c:97 mtrace_log] R: 0x800022e8 (len=4) data=0x00148493[0m
0x800022e8: 00 14 84 93 addi	s1, s1, 1
[1;34m[src/memory/paddr.c:97 mtrace_log] R: 0x800022ec (len=4) data=0x00060a13[0m
0x800022ec: 00 06 0a 13 mv	s4, a2
[1;34m[src/memory/paddr.c:97 mtrace_log] R: 0x800022f0 (len=4) data=0xfef48fa3[0m
[1;34m[src/memory/paddr.c:97 mtrace_log] W: 0x8009551e (len=1) data=0x00000068[0m
0x800022f0: fe f4 8f a3 sb	a5, -1(s1)
[1;34m[src/memory/paddr.c:97 mtrace_log] R: 0x800022f4 (len=4) data=0x00144783[0m
[1;34m[src/memory/paddr.c:97 mtrace_log] R: 0x80002918 (len=1) data=0x0000003a[0m
0x800022f4: 00 14 47 83 lbu	a5, 1(s0)
[1;34m[src/memory/paddr.c:97 mtrace_log] R: 0x800022f8 (len=4) data=0xb80792e3[0m
0x800022f8: b8 07 92 e3 bnez	a5, -0x47c
[1;34m[src/memory/paddr.c:97 mtrace_log] R: 0x80001e7c (len=4) data=0x05578c63[0m
0x80001e7c: 05 57 8c 63 beq	a5, s5, 0x58
[1;34m[src/memory/paddr.c:97 mtrace_log] R: 0x80001e80 (len=4) data=0x00f48023[0m
[1;34m[src/memory/paddr.c:97 mtrace_log] W: 0x8009551f (len=1) data=0x0000003a[0m
0x80001e80: 00 f4 80 23 sb	a5, 0(s1)
[1;34m[src/memory/paddr.c:97 mtrace_log] R: 0x80001e84 (len=4) data=0x0015c783[0m
[1;34m[src/memory/paddr.c:97 mtrace_log] R: 0x80002919 (len=1) data=0x00000020[0m
0x80001e84: 00 15 c7 83 lbu	a5, 1(a1)
[1;34m[src/memory/paddr.c:97 mtrace_log] R: 0x80001e88 (len=4) data=0x00148493[0m
0x80001e88: 00 14 84 93 addi	s1, s1, 1
[1;34m[src/memory/paddr.c:97 mtrace_log] R: 0x80001e8c (len=4) data=0x00158593[0m
0x80001e8c: 00 15 85 93 addi	a1, a1, 1
[1;34m[src/memory/paddr.c:97 mtrace_log] R: 0x80001e90 (len=4) data=0xfe0796e3[0m
0x80001e90: fe 07 96 e3 bnez	a5, -0x14
[1;34m[src/memory/paddr.c:97 mtrace_log] R: 0x80001e7c (len=4) data=0x05578c63[0m
0x80001e7c: 05 57 8c 63 beq	a5, s5, 0x58
[1;34m[src/memory/paddr.c:97 mtrace_log] R: 0x80001e80 (len=4) data=0x00f48023[0m
[1;34m[src/memory/paddr.c:97 mtrace_log] W: 0x80095520 (len=1) data=0x00000020[0m
0x80001e80: 00 f4 80 23 sb	a5, 0(s1)
[1;34m[src/memory/paddr.c:97 mtrace_log] R: 0x80001e84 (len=4) data=0x0015c783[0m
[1;34m[src/memory/paddr.c:97 mtrace_log] R: 0x8000291a (len=1) data=0x00000025[0m
0x80001e84: 00 15 c7 83 lbu	a5, 1(a1)
[1;34m[src/memory/paddr.c:97 mtrace_log] R: 0x80001e88 (len=4) data=0x00148493[0m
0x80001e88: 00 14 84 93 addi	s1, s1, 1
[1;34m[src/memory/paddr.c:97 mtrace_log] R: 0x80001e8c (len=4) data=0x00158593[0m
0x80001e8c: 00 15 85 93 addi	a1, a1, 1
[1;34m[src/memory/paddr.c:97 mtrace_log] R: 0x80001e90 (len=4) data=0xfe0796e3[0m
0x80001e90: fe 07 96 e3 bnez	a5, -0x14
[1;34m[src/memory/paddr.c:97 mtrace_log] R: 0x80001e7c (len=4) data=0x05578c63[0m
0x80001e7c: 05 57 8c 63 beq	a5, s5, 0x58
[1;34m[src/memory/paddr.c:97 mtrace_log] R: 0x80001ed4 (len=4) data=0x00000793[0m
0x80001ed4: 00 00 07 93 mv	a5, zero
[1;34m[src/memory/paddr.c:97 mtrace_log] R: 0x80001ed8 (len=4) data=0x0015c803[0m
[1;34m[src/memory/paddr.c:97 mtrace_log] R: 0x8000291b (len=1) data=0x00000073[0m
0x80001ed8: 00 15 c8 03 lbu	a6, 1(a1)
[1;34m[src/memory/paddr.c:97 mtrace_log] R: 0x80001edc (len=4) data=0x00158413[0m
0x80001edc: 00 15 84 13 addi	s0, a1, 1
[1;34m[src/memory/paddr.c:97 mtrace_log] R: 0x80001ee0 (len=4) data=0xfe080713[0m
0x80001ee0: fe 08 07 13 addi	a4, a6, -0x20
[1;34m[src/memory/paddr.c:97 mtrace_log] R: 0x80001ee4 (len=4) data=0x0ff77713[0m
0x80001ee4: 0f f7 77 13 andi	a4, a4, 0xff
[1;34m[src/memory/paddr.c:97 mtrace_log] R: 0x80001ee8 (len=4) data=0x00e9ec63[0m
0x80001ee8: 00 e9 ec 63 bltu	s3, a4, 0x18
[1;34m[src/memory/paddr.c:97 mtrace_log] R: 0x80001f00 (len=4) data=0xfd080713[0m
0x80001f00: fd 08 07 13 addi	a4, a6, -0x30
[1;34m[src/memory/paddr.c:97 mtrace_log] R: 0x80001f04 (len=4) data=0x0ff77713[0m
0x80001f04: 0f f7 77 13 andi	a4, a4, 0xff
[1;34m[src/memory/paddr.c:97 mtrace_log] R: 0x80001f08 (len=4) data=0x0ced7263[0m
0x80001f08: 0c ed 72 63 bgeu	s10, a4, 0xc4
[1;34m[src/memory/paddr.c:97 mtrace_log] R: 0x80001f0c (len=4) data=0x02a00713[0m
0x80001f0c: 02 a0 07 13 addi	a4, zero, 0x2a
[1;34m[src/memory/paddr.c:97 mtrace_log] R: 0x80001f10 (len=4) data=0xfff00693[0m
0x80001f10: ff f0 06 93 addi	a3, zero, -1
[1;34m[src/memory/paddr.c:97 mtrace_log] R: 0x80001f14 (len=4) data=0x00e81a63[0m
0x80001f14: 00 e8 1a 63 bne	a6, a4, 0x14
[1;34m[src/memory/paddr.c:97 mtrace_log] R: 0x80001f28 (len=4) data=0xfff00713[0m
0x80001f28: ff f0 07 13 addi	a4, zero, -1
[1;34m[src/memory/paddr.c:97 mtrace_log] R: 0x80001f2c (len=4) data=0x07980a63[0m
0x80001f2c: 07 98 0a 63 beq	a6, s9, 0x74
[1;34m[src/memory/paddr.c:97 mtrace_log] R: 0x80001f30 (len=4) data=0x0fb87613[0m
0x80001f30: 0f b8 76 13 andi	a2, a6, 0xfb
[1;34m[src/memory/paddr.c:97 mtrace_log] R: 0x80001f34 (len=4) data=0x01861663[0m
0x80001f34: 01 86 16 63 bne	a2, s8, 0xc
[1;34m[src/memory/paddr.c:97 mtrace_log] R: 0x80001f40 (len=4) data=0xfdb80813[0m
0x80001f40: fd b8 08 13 addi	a6, a6, -0x25
[1;34m[src/memory/paddr.c:97 mtrace_log] R: 0x80001f44 (len=4) data=0x0ff87813[0m
0x80001f44: 0f f8 78 13 andi	a6, a6, 0xff
[1;34m[src/memory/paddr.c:97 mtrace_log] R: 0x80001f48 (len=4) data=0x05300613[0m
0x80001f48: 05 30 06 13 addi	a2, zero, 0x53
[1;34m[src/memory/paddr.c:97 mtrace_log] R: 0x80001f4c (len=4) data=0x0b066c63[0m
0x80001f4c: 0b 06 6c 63 bltu	a2, a6, 0xb8
[1;34m[src/memory/paddr.c:97 mtrace_log] R: 0x80001f50 (len=4) data=0x00281813[0m
0x80001f50: 00 28 18 13 slli	a6, a6, 2
[1;34m[src/memory/paddr.c:97 mtrace_log] R: 0x80001f54 (len=4) data=0x01780833[0m
0x80001f54: 01 78 08 33 add	a6, a6, s7
[1;34m[src/memory/paddr.c:97 mtrace_log] R: 0x80001f58 (len=4) data=0x00082603[0m
[1;34m[src/memory/paddr.c:97 mtrace_log] R: 0x800032b4 (len=4) data=0xffffef50[0m
0x80001f58: 00 08 26 03 lw	a2, 0(a6)
[1;34m[src/memory/paddr.c:97 mtrace_log] R: 0x80001f5c (len=4) data=0x01760633[0m
0x80001f5c: 01 76 06 33 add	a2, a2, s7
[1;34m[src/memory/paddr.c:97 mtrace_log] R: 0x80001f60 (len=4) data=0x00060067[0m
0x80001f60: 00 06 00 67 jr	a2
[1;34m[src/memory/paddr.c:97 mtrace_log] R: 0x800020cc (len=4) data=0x01b12e23[0m
[1;34m[src/memory/paddr.c:97 mtrace_log] W: 0x8009df5c (len=4) data=0x00000000[0m
0x800020cc: 01 b1 2e 23 sw	s11, 0x1c(sp)
[1;34m[src/memory/paddr.c:97 mtrace_log] R: 0x800020d0 (len=4) data=0x000a2d83[0m
[1;34m[src/memory/paddr.c:97 mtrace_log] R: 0x8009dfb8 (len=4) data=0x80002958[0m
0x800020d0: 00 0a 2d 83 lw	s11, 0(s4)
[1;34m[src/memory/paddr.c:97 mtrace_log] R: 0x800020d4 (len=4) data=0x004a0a13[0m
0x800020d4: 00 4a 0a 13 addi	s4, s4, 4
[1;34m[src/memory/paddr.c:97 mtrace_log] R: 0x800020d8 (len=4) data=0x140d8263[0m
0x800020d8: 14 0d 82 63 beqz	s11, 0x144
[1;34m[src/memory/paddr.c:97 mtrace_log] R: 0x800020dc (len=4) data=0x000d8513[0m
0x800020dc: 00 0d 85 13 mv	a0, s11
[1;34m[src/memory/paddr.c:97 mtrace_log] R: 0x800020e0 (len=4) data=0x00d12623[0m
[1;34m[src/memory/paddr.c:97 mtrace_log] W: 0x8009df4c (len=4) data=0xffffffff[0m
0x800020e0: 00 d1 26 23 sw	a3, 0xc(sp)
[1;34m[src/memory/paddr.c:97 mtrace_log] R: 0x800020e4 (len=4) data=0x00f12423[0m
[1;34m[src/memory/paddr.c:97 mtrace_log] W: 0x8009df48 (len=4) data=0x00000000[0m
0x800020e4: 00 f1 24 23 sw	a5, 8(sp)
[1;34m[src/memory/paddr.c:97 mtrace_log] R: 0x800020e8 (len=4) data=0x00e12223[0m
[1;34m[src/memory/paddr.c:97 mtrace_log] W: 0x8009df44 (len=4) data=0xffffffff[0m
0x800020e8: 00 e1 22 23 sw	a4, 4(sp)
[1;34m[src/memory/paddr.c:97 mtrace_log] R: 0x800020ec (len=4) data=0x9c9ff0ef[0m
0x800020ec: 9c 9f f0 ef jal	-0x638
[1;34m[src/memory/paddr.c:97 mtrace_log] R: 0x80001ab4 (len=4) data=0x00054783[0m
[1;34m[src/memory/paddr.c:97 mtrace_log] R: 0x80002958 (len=1) data=0x00000068[0m
0x80001ab4: 00 05 47 83 lbu	a5, 0(a0)
[1;34m[src/memory/paddr.c:97 mtrace_log] R: 0x80001ab8 (len=4) data=0x00050713[0m
0x80001ab8: 00 05 07 13 mv	a4, a0
[1;34m[src/memory/paddr.c:97 mtrace_log] R: 0x80001abc (len=4) data=0x00000513[0m
0x80001abc: 00 00 05 13 mv	a0, zero
[1;34m[src/memory/paddr.c:97 mtrace_log] R: 0x80001ac0 (len=4) data=0x00078c63[0m
0x80001ac0: 00 07 8c 63 beqz	a5, 0x18
[1;34m[src/memory/paddr.c:97 mtrace_log] R: 0x80001ac4 (len=4) data=0x00150513[0m
0x80001ac4: 00 15 05 13 addi	a0, a0, 1
[1;34m[src/memory/paddr.c:97 mtrace_log] R: 0x80001ac8 (len=4) data=0x00a707b3[0m
0x80001ac8: 00 a7 07 b3 add	a5, a4, a0
[1;34m[src/memory/paddr.c:97 mtrace_log] R: 0x80001acc (len=4) data=0x0007c783[0m
[1;34m[src/memory/paddr.c:97 mtrace_log] R: 0x80002959 (len=1) data=0x00000065[0m
0x80001acc: 00 07 c7 83 lbu	a5, 0(a5)
[1;34m[src/memory/paddr.c:97 mtrace_log] R: 0x80001ad0 (len=4) data=0xfe079ae3[0m
0x80001ad0: fe 07 9a e3 bnez	a5, -0xc
[1;34m[src/memory/paddr.c:97 mtrace_log] R: 0x80001ac4 (len=4) data=0x00150513[0m
0x80001ac4: 00 15 05 13 addi	a0, a0, 1
[1;34m[src/memory/paddr.c:97 mtrace_log] R: 0x80001ac8 (len=4) data=0x00a707b3[0m
0x80001ac8: 00 a7 07 b3 add	a5, a4, a0
[1;34m[src/memory/paddr.c:97 mtrace_log] R: 0x80001acc (len=4) data=0x0007c783[0m
[1;34m[src/memory/paddr.c:97 mtrace_log] R: 0x8000295a (len=1) data=0x0000006c[0m
0x80001acc: 00 07 c7 83 lbu	a5, 0(a5)
[1;34m[src/memory/paddr.c:97 mtrace_log] R: 0x80001ad0 (len=4) data=0xfe079ae3[0m
0x80001ad0: fe 07 9a e3 bnez	a5, -0xc
[1;34m[src/memory/paddr.c:97 mtrace_log] R: 0x80001ac4 (len=4) data=0x00150513[0m
0x80001ac4: 00 15 05 13 addi	a0, a0, 1
[1;34m[src/memory/paddr.c:97 mtrace_log] R: 0x80001ac8 (len=4) data=0x00a707b3[0m
0x80001ac8: 00 a7 07 b3 add	a5, a4, a0
[1;34m[src/memory/paddr.c:97 mtrace_log] R: 0x80001acc (len=4) data=0x0007c783[0m
[1;34m[src/memory/paddr.c:97 mtrace_log] R: 0x8000295b (len=1) data=0x0000006c[0m
0x80001acc: 00 07 c7 83 lbu	a5, 0(a5)
[1;34m[src/memory/paddr.c:97 mtrace_log] R: 0x80001ad0 (len=4) data=0xfe079ae3[0m
0x80001ad0: fe 07 9a e3 bnez	a5, -0xc
[1;34m[src/memory/paddr.c:97 mtrace_log] R: 0x80001ac4 (len=4) data=0x00150513[0m
0x80001ac4: 00 15 05 13 addi	a0, a0, 1
[1;34m[src/memory/paddr.c:97 mtrace_log] R: 0x80001ac8 (len=4) data=0x00a707b3[0m
0x80001ac8: 00 a7 07 b3 add	a5, a4, a0
[1;34m[src/memory/paddr.c:97 mtrace_log] R: 0x80001acc (len=4) data=0x0007c783[0m
[1;34m[src/memory/paddr.c:97 mtrace_log] R: 0x8000295c (len=1) data=0x0000006f[0m
0x80001acc: 00 07 c7 83 lbu	a5, 0(a5)
[1;34m[src/memory/paddr.c:97 mtrace_log] R: 0x80001ad0 (len=4) data=0xfe079ae3[0m
0x80001ad0: fe 07 9a e3 bnez	a5, -0xc
[1;34m[src/memory/paddr.c:97 mtrace_log] R: 0x80001ac4 (len=4) data=0x00150513[0m
0x80001ac4: 00 15 05 13 addi	a0, a0, 1
[1;34m[src/memory/paddr.c:97 mtrace_log] R: 0x80001ac8 (len=4) data=0x00a707b3[0m
0x80001ac8: 00 a7 07 b3 add	a5, a4, a0
[1;34m[src/memory/paddr.c:97 mtrace_log] R: 0x80001acc (len=4) data=0x0007c783[0m
[1;34m[src/memory/paddr.c:97 mtrace_log] R: 0x8000295d (len=1) data=0x00000000[0m
0x80001acc: 00 07 c7 83 lbu	a5, 0(a5)
[1;34m[src/memory/paddr.c:97 mtrace_log] R: 0x80001ad0 (len=4) data=0xfe079ae3[0m
0x80001ad0: fe 07 9a e3 bnez	a5, -0xc
[1;34m[src/memory/paddr.c:97 mtrace_log] R: 0x80001ad4 (len=4) data=0x00008067[0m
0x80001ad4: 00 00 80 67 ret
[1;34m[src/memory/paddr.c:97 mtrace_log] R: 0x800020f0 (len=4) data=0x00412703[0m
[1;34m[src/memory/paddr.c:97 mtrace_log] R: 0x8009df44 (len=4) data=0xffffffff[0m
0x800020f0: 00 41 27 03 lw	a4, 4(sp)
[1;34m[src/memory/paddr.c:97 mtrace_log] R: 0x800020f4 (len=4) data=0xfff00613[0m
0x800020f4: ff f0 06 13 addi	a2, zero, -1
[1;34m[src/memory/paddr.c:97 mtrace_log] R: 0x800020f8 (len=4) data=0x00812783[0m
[1;34m[src/memory/paddr.c:97 mtrace_log] R: 0x8009df48 (len=4) data=0x00000000[0m
0x800020f8: 00 81 27 83 lw	a5, 8(sp)
[1;34m[src/memory/paddr.c:97 mtrace_log] R: 0x800020fc (len=4) data=0x00c12683[0m
[1;34m[src/memory/paddr.c:97 mtrace_log] R: 0x8009df4c (len=4) data=0xffffffff[0m
0x800020fc: 00 c1 26 83 lw	a3, 0xc(sp)
[1;34m[src/memory/paddr.c:97 mtrace_log] R: 0x80002100 (len=4) data=0x00c70663[0m
0x80002100: 00 c7 06 63 beq	a4, a2, 0xc
[1;34m[src/memory/paddr.c:97 mtrace_log] R: 0x8000210c (len=4) data=0x0017f793[0m
0x8000210c: 00 17 f7 93 andi	a5, a5, 1
[1;34m[src/memory/paddr.c:97 mtrace_log] R: 0x80002110 (len=4) data=0x14078063[0m
0x80002110: 14 07 80 63 beqz	a5, 0x140
[1;34m[src/memory/paddr.c:97 mtrace_log] R: 0x80002250 (len=4) data=0xfff68613[0m
0x80002250: ff f6 86 13 addi	a2, a3, -1
[1;34m[src/memory/paddr.c:97 mtrace_log] R: 0x80002254 (len=4) data=0x08d55463[0m
0x80002254: 08 d5 54 63 bge	a0, a3, 0x88
[1;34m[src/memory/paddr.c:97 mtrace_log] R: 0x800022dc (len=4) data=0x00060693[0m
0x800022dc: 00 06 06 93 mv	a3, a2
[1;34m[src/memory/paddr.c:97 mtrace_log] R: 0x800022e0 (len=4) data=0xe35ff06f[0m
0x800022e0: e3 5f f0 6f j	-0x1cc
[1;34m[src/memory/paddr.c:97 mtrace_log] R: 0x80002114 (len=4) data=0x1aa05663[0m
0x80002114: 1a a0 56 63 blez	a0, 0x1ac
[1;34m[src/memory/paddr.c:97 mtrace_log] R: 0x80002118 (len=4) data=0x00a48733[0m
0x80002118: 00 a4 87 33 add	a4, s1, a0
[1;34m[src/memory/paddr.c:97 mtrace_log] R: 0x8000211c (len=4) data=0x000dc783[0m
[1;34m[src/memory/paddr.c:97 mtrace_log] R: 0x80002958 (len=1) data=0x00000068[0m
0x8000211c: 00 0d c7 83 lbu	a5, 0(s11)
[1;34m[src/memory/paddr.c:97 mtrace_log] R: 0x80002120 (len=4) data=0x00148493[0m
0x80002120: 00 14 84 93 addi	s1, s1, 1
[1;34m[src/memory/paddr.c:97 mtrace_log] R: 0x80002124 (len=4) data=0x001d8d93[0m
0x80002124: 00 1d 8d 93 addi	s11, s11, 1
[1;34m[src/memory/paddr.c:97 mtrace_log] R: 0x80002128 (len=4) data=0xfef48fa3[0m
[1;34m[src/memory/paddr.c:97 mtrace_log] W: 0x80095521 (len=1) data=0x00000068[0m
0x80002128: fe f4 8f a3 sb	a5, -1(s1)
[1;34m[src/memory/paddr.c:97 mtrace_log] R: 0x8000212c (len=4) data=0xfe9718e3[0m
0x8000212c: fe 97 18 e3 bne	a4, s1, -0x10
[1;34m[src/memory/paddr.c:97 mtrace_log] R: 0x8000211c (len=4) data=0x000dc783[0m
[1;34m[src/memory/paddr.c:97 mtrace_log] R: 0x80002959 (len=1) data=0x00000065[0m
0x8000211c: 00 0d c7 83 lbu	a5, 0(s11)
[1;34m[src/memory/paddr.c:97 mtrace_log] R: 0x80002120 (len=4) data=0x00148493[0m
0x80002120: 00 14 84 93 addi	s1, s1, 1
[1;34m[src/memory/paddr.c:97 mtrace_log] R: 0x80002124 (len=4) data=0x001d8d93[0m
0x80002124: 00 1d 8d 93 addi	s11, s11, 1
[1;34m[src/memory/paddr.c:97 mtrace_log] R: 0x80002128 (len=4) data=0xfef48fa3[0m
[1;34m[src/memory/paddr.c:97 mtrace_log] W: 0x80095522 (len=1) data=0x00000065[0m
0x80002128: fe f4 8f a3 sb	a5, -1(s1)
[1;34m[src/memory/paddr.c:97 mtrace_log] R: 0x8000212c (len=4) data=0xfe9718e3[0m
0x8000212c: fe 97 18 e3 bne	a4, s1, -0x10
[1;34m[src/memory/paddr.c:97 mtrace_log] R: 0x8000211c (len=4) data=0x000dc783[0m
[1;34m[src/memory/paddr.c:97 mtrace_log] R: 0x8000295a (len=1) data=0x0000006c[0m
0x8000211c: 00 0d c7 83 lbu	a5, 0(s11)
[1;34m[src/memory/paddr.c:97 mtrace_log] R: 0x80002120 (len=4) data=0x00148493[0m
0x80002120: 00 14 84 93 addi	s1, s1, 1
[1;34m[src/memory/paddr.c:97 mtrace_log] R: 0x80002124 (len=4) data=0x001d8d93[0m
0x80002124: 00 1d 8d 93 addi	s11, s11, 1
[1;34m[src/memory/paddr.c:97 mtrace_log] R: 0x80002128 (len=4) data=0xfef48fa3[0m
[1;34m[src/memory/paddr.c:97 mtrace_log] W: 0x80095523 (len=1) data=0x0000006c[0m
0x80002128: fe f4 8f a3 sb	a5, -1(s1)
[1;34m[src/memory/paddr.c:97 mtrace_log] R: 0x8000212c (len=4) data=0xfe9718e3[0m
0x8000212c: fe 97 18 e3 bne	a4, s1, -0x10
[1;34m[src/memory/paddr.c:97 mtrace_log] R: 0x8000211c (len=4) data=0x000dc783[0m
[1;34m[src/memory/paddr.c:97 mtrace_log] R: 0x8000295b (len=1) data=0x0000006c[0m
0x8000211c: 00 0d c7 83 lbu	a5, 0(s11)
[1;34m[src/memory/paddr.c:97 mtrace_log] R: 0x80002120 (len=4) data=0x00148493[0m
0x80002120: 00 14 84 93 addi	s1, s1, 1
[1;34m[src/memory/paddr.c:97 mtrace_log] R: 0x80002124 (len=4) data=0x001d8d93[0m
0x80002124: 00 1d 8d 93 addi	s11, s11, 1
[1;34m[src/memory/paddr.c:97 mtrace_log] R: 0x80002128 (len=4) data=0xfef48fa3[0m
[1;34m[src/memory/paddr.c:97 mtrace_log] W: 0x80095524 (len=1) data=0x0000006c[0m
0x80002128: fe f4 8f a3 sb	a5, -1(s1)
[1;34m[src/memory/paddr.c:97 mtrace_log] R: 0x8000212c (len=4) data=0xfe9718e3[0m
0x8000212c: fe 97 18 e3 bne	a4, s1, -0x10
[1;34m[src/memory/paddr.c:97 mtrace_log] R: 0x8000211c (len=4) data=0x000dc783[0m
[1;34m[src/memory/paddr.c:97 mtrace_log] R: 0x8000295c (len=1) data=0x0000006f[0m
0x8000211c: 00 0d c7 83 lbu	a5, 0(s11)
[1;34m[src/memory/paddr.c:97 mtrace_log] R: 0x80002120 (len=4) data=0x00148493[0m
0x80002120: 00 14 84 93 addi	s1, s1, 1
[1;34m[src/memory/paddr.c:97 mtrace_log] R: 0x80002124 (len=4) data=0x001d8d93[0m
0x80002124: 00 1d 8d 93 addi	s11, s11, 1
[1;34m[src/memory/paddr.c:97 mtrace_log] R: 0x80002128 (len=4) data=0xfef48fa3[0m
[1;34m[src/memory/paddr.c:97 mtrace_log] W: 0x80095525 (len=1) data=0x0000006f[0m
0x80002128: fe f4 8f a3 sb	a5, -1(s1)
[1;34m[src/memory/paddr.c:97 mtrace_log] R: 0x8000212c (len=4) data=0xfe9718e3[0m
0x8000212c: fe 97 18 e3 bne	a4, s1, -0x10
[1;34m[src/memory/paddr.c:97 mtrace_log] R: 0x80002130 (len=4) data=0x40a684b3[0m
0x80002130: 40 a6 84 b3 sub	s1, a3, a0
[1;34m[src/memory/paddr.c:97 mtrace_log] R: 0x80002134 (len=4) data=0x00140593[0m
0x80002134: 00 14 05 93 addi	a1, s0, 1
[1;34m[src/memory/paddr.c:97 mtrace_log] R: 0x80002138 (len=4) data=0x009704b3[0m
0x80002138: 00 97 04 b3 add	s1, a4, s1
[1;34m[src/memory/paddr.c:97 mtrace_log] R: 0x8000213c (len=4) data=0x02000793[0m
0x8000213c: 02 00 07 93 addi	a5, zero, 0x20
[1;34m[src/memory/paddr.c:97 mtrace_log] R: 0x80002140 (len=4) data=0x16d55663[0m
0x80002140: 16 d5 56 63 bge	a0, a3, 0x16c
[1;34m[src/memory/paddr.c:97 mtrace_log] R: 0x800022ac (len=4) data=0x00144783[0m
[1;34m[src/memory/paddr.c:97 mtrace_log] R: 0x8000291c (len=1) data=0x0000000a[0m
0x800022ac: 00 14 47 83 lbu	a5, 1(s0)
[1;34m[src/memory/paddr.c:97 mtrace_log] R: 0x800022b0 (len=4) data=0x01c12d83[0m
[1;34m[src/memory/paddr.c:97 mtrace_log] R: 0x8009df5c (len=4) data=0x00000000[0m
0x800022b0: 01 c1 2d 83 lw	s11, 0x1c(sp)
[1;34m[src/memory/paddr.c:97 mtrace_log] R: 0x800022b4 (len=4) data=0x00070493[0m
0x800022b4: 00 07 04 93 mv	s1, a4
[1;34m[src/memory/paddr.c:97 mtrace_log] R: 0x800022b8 (len=4) data=0xbc0792e3[0m
0x800022b8: bc 07 92 e3 bnez	a5, -0x43c
[1;34m[src/memory/paddr.c:97 mtrace_log] R: 0x80001e7c (len=4) data=0x05578c63[0m
0x80001e7c: 05 57 8c 63 beq	a5, s5, 0x58
[1;34m[src/memory/paddr.c:97 mtrace_log] R: 0x80001e80 (len=4) data=0x00f48023[0m
[1;34m[src/memory/paddr.c:97 mtrace_log] W: 0x80095526 (len=1) data=0x0000000a[0m
0x80001e80: 00 f4 80 23 sb	a5, 0(s1)
[1;34m[src/memory/paddr.c:97 mtrace_log] R: 0x80001e84 (len=4) data=0x0015c783[0m
[1;34m[src/memory/paddr.c:97 mtrace_log] R: 0x8000291d (len=1) data=0x00000000[0m
0x80001e84: 00 15 c7 83 lbu	a5, 1(a1)
[1;34m[src/memory/paddr.c:97 mtrace_log] R: 0x80001e88 (len=4) data=0x00148493[0m
0x80001e88: 00 14 84 93 addi	s1, s1, 1
[1;34m[src/memory/paddr.c:97 mtrace_log] R: 0x80001e8c (len=4) data=0x00158593[0m
0x80001e8c: 00 15 85 93 addi	a1, a1, 1
[1;34m[src/memory/paddr.c:97 mtrace_log] R: 0x80001e90 (len=4) data=0xfe0796e3[0m
0x80001e90: fe 07 96 e3 bnez	a5, -0x14
[1;34m[src/memory/paddr.c:97 mtrace_log] R: 0x80001e94 (len=4) data=0x04812403[0m
[1;34m[src/memory/paddr.c:97 mtrace_log] R: 0x8009df88 (len=4) data=0x00000068[0m
0x80001e94: 04 81 24 03 lw	s0, 0x48(sp)
[1;34m[src/memory/paddr.c:97 mtrace_log] R: 0x80001e98 (len=4) data=0x04012903[0m
[1;34m[src/memory/paddr.c:97 mtrace_log] R: 0x8009df80 (len=4) data=0x00000100[0m
0x80001e98: 04 01 29 03 lw	s2, 0x40(sp)
[1;34m[src/memory/paddr.c:97 mtrace_log] R: 0x80001e9c (len=4) data=0x03c12983[0m
[1;34m[src/memory/paddr.c:97 mtrace_log] R: 0x8009df7c (len=4) data=0x80002914[0m
0x80001e9c: 03 c1 29 83 lw	s3, 0x3c(sp)
[1;34m[src/memory/paddr.c:97 mtrace_log] R: 0x80001ea0 (len=4) data=0x03812a03[0m
[1;34m[src/memory/paddr.c:97 mtrace_log] R: 0x8009df78 (len=4) data=0x00000000[0m
0x80001ea0: 03 81 2a 03 lw	s4, 0x38(sp)
[1;34m[src/memory/paddr.c:97 mtrace_log] R: 0x80001ea4 (len=4) data=0x03412a83[0m
[1;34m[src/memory/paddr.c:97 mtrace_log] R: 0x8009df74 (len=4) data=0x00000000[0m
0x80001ea4: 03 41 2a 83 lw	s5, 0x34(sp)
[1;34m[src/memory/paddr.c:97 mtrace_log] R: 0x80001ea8 (len=4) data=0x02c12b83[0m
[1;34m[src/memory/paddr.c:97 mtrace_log] R: 0x8009df6c (len=4) data=0x00000000[0m
0x80001ea8: 02 c1 2b 83 lw	s7, 0x2c(sp)
[1;34m[src/memory/paddr.c:97 mtrace_log] R: 0x80001eac (len=4) data=0x02812c03[0m
[1;34m[src/memory/paddr.c:97 mtrace_log] R: 0x8009df68 (len=4) data=0x00000000[0m
0x80001eac: 02 81 2c 03 lw	s8, 0x28(sp)
[1;34m[src/memory/paddr.c:97 mtrace_log] R: 0x80001eb0 (len=4) data=0x02412c83[0m
[1;34m[src/memory/paddr.c:97 mtrace_log] R: 0x8009df64 (len=4) data=0x00000000[0m
0x80001eb0: 02 41 2c 83 lw	s9, 0x24(sp)
[1;34m[src/memory/paddr.c:97 mtrace_log] R: 0x80001eb4 (len=4) data=0x02012d03[0m
[1;34m[src/memory/paddr.c:97 mtrace_log] R: 0x8009df60 (len=4) data=0x00000000[0m
0x80001eb4: 02 01 2d 03 lw	s10, 0x20(sp)
[1;34m[src/memory/paddr.c:97 mtrace_log] R: 0x80001eb8 (len=4) data=0x00048023[0m
[1;34m[src/memory/paddr.c:97 mtrace_log] W: 0x80095527 (len=1) data=0x00000000[0m
0x80001eb8: 00 04 80 23 sb	zero, 0(s1)
[1;34m[src/memory/paddr.c:97 mtrace_log] R: 0x80001ebc (len=4) data=0x04c12083[0m
[1;34m[src/memory/paddr.c:97 mtrace_log] R: 0x8009df8c (len=4) data=0x80002340[0m
0x80001ebc: 04 c1 20 83 lw	ra, 0x4c(sp)
[1;34m[src/memory/paddr.c:97 mtrace_log] R: 0x80001ec0 (len=4) data=0x41648533[0m
0x80001ec0: 41 64 85 33 sub	a0, s1, s6
[1;34m[src/memory/paddr.c:97 mtrace_log] R: 0x80001ec4 (len=4) data=0x04412483[0m
[1;34m[src/memory/paddr.c:97 mtrace_log] R: 0x8009df84 (len=4) data=0x80002e98[0m
0x80001ec4: 04 41 24 83 lw	s1, 0x44(sp)
[1;34m[src/memory/paddr.c:97 mtrace_log] R: 0x80001ec8 (len=4) data=0x03012b03[0m
[1;34m[src/memory/paddr.c:97 mtrace_log] R: 0x8009df70 (len=4) data=0x00000000[0m
0x80001ec8: 03 01 2b 03 lw	s6, 0x30(sp)
[1;34m[src/memory/paddr.c:97 mtrace_log] R: 0x80001ecc (len=4) data=0x05010113[0m
0x80001ecc: 05 01 01 13 addi	sp, sp, 0x50
[1;34m[src/memory/paddr.c:97 mtrace_log] R: 0x80001ed0 (len=4) data=0x00008067[0m
0x80001ed0: 00 00 80 67 ret
[1;34m[src/memory/paddr.c:97 mtrace_log] R: 0x80002340 (len=4) data=0x00093797[0m
0x80002340: 00 09 37 97 auipc	a5, 0x93
[1;34m[src/memory/paddr.c:97 mtrace_log] R: 0x80002344 (len=4) data=0x1dc78793[0m
0x80002344: 1d c7 87 93 addi	a5, a5, 0x1dc
[1;34m[src/memory/paddr.c:97 mtrace_log] R: 0x80002348 (len=4) data=0x0007c703[0m
[1;34m[src/memory/paddr.c:97 mtrace_log] R: 0x8009551c (len=1) data=0x00000020[0m
0x80002348: 00 07 c7 03 lbu	a4, 0(a5)
[1;34m[src/memory/paddr.c:97 mtrace_log] R: 0x8000234c (len=4) data=0x00070e63[0m
0x8000234c: 00 07 0e 63 beqz	a4, 0x1c
[1;34m[src/memory/paddr.c:97 mtrace_log] R: 0x80002350 (len=4) data=0xa00006b7[0m
0x80002350: a0 00 06 b7 lui	a3, 0xa0000
[1;34m[src/memory/paddr.c:97 mtrace_log] R: 0x80002354 (len=4) data=0x3f868693[0m
0x80002354: 3f 86 86 93 addi	a3, a3, 0x3f8
[1;34m[src/memory/paddr.c:97 mtrace_log] R: 0x80002358 (len=4) data=0x00178793[0m
0x80002358: 00 17 87 93 addi	a5, a5, 1
[1;34m[src/memory/paddr.c:97 mtrace_log] R: 0x8000235c (len=4) data=0x00e68023[0m
[1;34m[src/memory/paddr.c:97 mtrace_log] W: 0xa00003f8 (len=1) data=0x00000020[0m
0x8000235c: 00 e6 80 23 sb	a4, 0(a3)
[1;34m[src/memory/paddr.c:97 mtrace_log] R: 0x80002360 (len=4) data=0x0007c703[0m
[1;34m[src/memory/paddr.c:97 mtrace_log] R: 0x8009551d (len=1) data=0x00000020[0m
0x80002360: 00 07 c7 03 lbu	a4, 0(a5)
[1;34m[src/memory/paddr.c:97 mtrace_log] R: 0x80002364 (len=4) data=0xfe071ae3[0m
0x80002364: fe 07 1a e3 bnez	a4, -0xc
[1;34m[src/memory/paddr.c:97 mtrace_log] R: 0x80002358 (len=4) data=0x00178793[0m
0x80002358: 00 17 87 93 addi	a5, a5, 1
[1;34m[src/memory/paddr.c:97 mtrace_log] R: 0x8000235c (len=4) data=0x00e68023[0m
[1;34m[src/memory/paddr.c:97 mtrace_log] W: 0xa00003f8 (len=1) data=0x00000020[0m
0x8000235c: 00 e6 80 23 sb	a4, 0(a3)
[1;34m[src/memory/paddr.c:97 mtrace_log] R: 0x80002360 (len=4) data=0x0007c703[0m
[1;34m[src/memory/paddr.c:97 mtrace_log] R: 0x8009551e (len=1) data=0x00000068[0m
0x80002360: 00 07 c7 03 lbu	a4, 0(a5)
[1;34m[src/memory/paddr.c:97 mtrace_log] R: 0x80002364 (len=4) data=0xfe071ae3[0m
0x80002364: fe 07 1a e3 bnez	a4, -0xc
[1;34m[src/memory/paddr.c:97 mtrace_log] R: 0x80002358 (len=4) data=0x00178793[0m
0x80002358: 00 17 87 93 addi	a5, a5, 1
[1;34m[src/memory/paddr.c:97 mtrace_log] R: 0x8000235c (len=4) data=0x00e68023[0m
[1;34m[src/memory/paddr.c:97 mtrace_log] W: 0xa00003f8 (len=1) data=0x00000068[0m
0x8000235c: 00 e6 80 23 sb	a4, 0(a3)
[1;34m[src/memory/paddr.c:97 mtrace_log] R: 0x80002360 (len=4) data=0x0007c703[0m
[1;34m[src/memory/paddr.c:97 mtrace_log] R: 0x8009551f (len=1) data=0x0000003a[0m
0x80002360: 00 07 c7 03 lbu	a4, 0(a5)
[1;34m[src/memory/paddr.c:97 mtrace_log] R: 0x80002364 (len=4) data=0xfe071ae3[0m
0x80002364: fe 07 1a e3 bnez	a4, -0xc
[1;34m[src/memory/paddr.c:97 mtrace_log] R: 0x80002358 (len=4) data=0x00178793[0m
0x80002358: 00 17 87 93 addi	a5, a5, 1
[1;34m[src/memory/paddr.c:97 mtrace_log] R: 0x8000235c (len=4) data=0x00e68023[0m
[1;34m[src/memory/paddr.c:97 mtrace_log] W: 0xa00003f8 (len=1) data=0x0000003a[0m
0x8000235c: 00 e6 80 23 sb	a4, 0(a3)
[1;34m[src/memory/paddr.c:97 mtrace_log] R: 0x80002360 (len=4) data=0x0007c703[0m
[1;34m[src/memory/paddr.c:97 mtrace_log] R: 0x80095520 (len=1) data=0x00000020[0m
0x80002360: 00 07 c7 03 lbu	a4, 0(a5)
[1;34m[src/memory/paddr.c:97 mtrace_log] R: 0x80002364 (len=4) data=0xfe071ae3[0m
0x80002364: fe 07 1a e3 bnez	a4, -0xc
[1;34m[src/memory/paddr.c:97 mtrace_log] R: 0x80002358 (len=4) data=0x00178793[0m
0x80002358: 00 17 87 93 addi	a5, a5, 1
[1;34m[src/memory/paddr.c:97 mtrace_log] R: 0x8000235c (len=4) data=0x00e68023[0m
[1;34m[src/memory/paddr.c:97 mtrace_log] W: 0xa00003f8 (len=1) data=0x00000020[0m
0x8000235c: 00 e6 80 23 sb	a4, 0(a3)
[1;34m[src/memory/paddr.c:97 mtrace_log] R: 0x80002360 (len=4) data=0x0007c703[0m
[1;34m[src/memory/paddr.c:97 mtrace_log] R: 0x80095521 (len=1) data=0x00000068[0m
0x80002360: 00 07 c7 03 lbu	a4, 0(a5)
[1;34m[src/memory/paddr.c:97 mtrace_log] R: 0x80002364 (len=4) data=0xfe071ae3[0m
0x80002364: fe 07 1a e3 bnez	a4, -0xc
[1;34m[src/memory/paddr.c:97 mtrace_log] R: 0x80002358 (len=4) data=0x00178793[0m
0x80002358: 00 17 87 93 addi	a5, a5, 1
[1;34m[src/memory/paddr.c:97 mtrace_log] R: 0x8000235c (len=4) data=0x00e68023[0m
[1;34m[src/memory/paddr.c:97 mtrace_log] W: 0xa00003f8 (len=1) data=0x00000068[0m
0x8000235c: 00 e6 80 23 sb	a4, 0(a3)
[1;34m[src/memory/paddr.c:97 mtrace_log] R: 0x80002360 (len=4) data=0x0007c703[0m
[1;34m[src/memory/paddr.c:97 mtrace_log] R: 0x80095522 (len=1) data=0x00000065[0m
0x80002360: 00 07 c7 03 lbu	a4, 0(a5)
[1;34m[src/memory/paddr.c:97 mtrace_log] R: 0x80002364 (len=4) data=0xfe071ae3[0m
0x80002364: fe 07 1a e3 bnez	a4, -0xc
[1;34m[src/memory/paddr.c:97 mtrace_log] R: 0x80002358 (len=4) data=0x00178793[0m
0x80002358: 00 17 87 93 addi	a5, a5, 1
[1;34m[src/memory/paddr.c:97 mtrace_log] R: 0x8000235c (len=4) data=0x00e68023[0m
[1;34m[src/memory/paddr.c:97 mtrace_log] W: 0xa00003f8 (len=1) data=0x00000065[0m
0x8000235c: 00 e6 80 23 sb	a4, 0(a3)
[1;34m[src/memory/paddr.c:97 mtrace_log] R: 0x80002360 (len=4) data=0x0007c703[0m
[1;34m[src/memory/paddr.c:97 mtrace_log] R: 0x80095523 (len=1) data=0x0000006c[0m
0x80002360: 00 07 c7 03 lbu	a4, 0(a5)
[1;34m[src/memory/paddr.c:97 mtrace_log] R: 0x80002364 (len=4) data=0xfe071ae3[0m
0x80002364: fe 07 1a e3 bnez	a4, -0xc
[1;34m[src/memory/paddr.c:97 mtrace_log] R: 0x80002358 (len=4) data=0x00178793[0m
0x80002358: 00 17 87 93 addi	a5, a5, 1
[1;34m[src/memory/paddr.c:97 mtrace_log] R: 0x8000235c (len=4) data=0x00e68023[0m
[1;34m[src/memory/paddr.c:97 mtrace_log] W: 0xa00003f8 (len=1) data=0x0000006c[0m
0x8000235c: 00 e6 80 23 sb	a4, 0(a3)
[1;34m[src/memory/paddr.c:97 mtrace_log] R: 0x80002360 (len=4) data=0x0007c703[0m
[1;34m[src/memory/paddr.c:97 mtrace_log] R: 0x80095524 (len=1) data=0x0000006c[0m
0x80002360: 00 07 c7 03 lbu	a4, 0(a5)
[1;34m[src/memory/paddr.c:97 mtrace_log] R: 0x80002364 (len=4) data=0xfe071ae3[0m
0x80002364: fe 07 1a e3 bnez	a4, -0xc
[1;34m[src/memory/paddr.c:97 mtrace_log] R: 0x80002358 (len=4) data=0x00178793[0m
0x80002358: 00 17 87 93 addi	a5, a5, 1
[1;34m[src/memory/paddr.c:97 mtrace_log] R: 0x8000235c (len=4) data=0x00e68023[0m
[1;34m[src/memory/paddr.c:97 mtrace_log] W: 0xa00003f8 (len=1) data=0x0000006c[0m
0x8000235c: 00 e6 80 23 sb	a4, 0(a3)
[1;34m[src/memory/paddr.c:97 mtrace_log] R: 0x80002360 (len=4) data=0x0007c703[0m
[1;34m[src/memory/paddr.c:97 mtrace_log] R: 0x80095525 (len=1) data=0x0000006f[0m
0x80002360: 00 07 c7 03 lbu	a4, 0(a5)
[1;34m[src/memory/paddr.c:97 mtrace_log] R: 0x80002364 (len=4) data=0xfe071ae3[0m
0x80002364: fe 07 1a e3 bnez	a4, -0xc
[1;34m[src/memory/paddr.c:97 mtrace_log] R: 0x80002358 (len=4) data=0x00178793[0m
0x80002358: 00 17 87 93 addi	a5, a5, 1
[1;34m[src/memory/paddr.c:97 mtrace_log] R: 0x8000235c (len=4) data=0x00e68023[0m
[1;34m[src/memory/paddr.c:97 mtrace_log] W: 0xa00003f8 (len=1) data=0x0000006f[0m
0x8000235c: 00 e6 80 23 sb	a4, 0(a3)
[1;34m[src/memory/paddr.c:97 mtrace_log] R: 0x80002360 (len=4) data=0x0007c703[0m
[1;34m[src/memory/paddr.c:97 mtrace_log] R: 0x80095526 (len=1) data=0x0000000a[0m
0x80002360: 00 07 c7 03 lbu	a4, 0(a5)
[1;34m[src/memory/paddr.c:97 mtrace_log] R: 0x80002364 (len=4) data=0xfe071ae3[0m
0x80002364: fe 07 1a e3 bnez	a4, -0xc
[1;34m[src/memory/paddr.c:97 mtrace_log] R: 0x80002358 (len=4) data=0x00178793[0m
0x80002358: 00 17 87 93 addi	a5, a5, 1
[1;34m[src/memory/paddr.c:97 mtrace_log] R: 0x8000235c (len=4) data=0x00e68023[0m
[1;34m[src/memory/paddr.c:97 mtrace_log] W: 0xa00003f8 (len=1) data=0x0000000a[0m
0x8000235c: 00 e6 80 23 sb	a4, 0(a3)
[1;34m[src/memory/paddr.c:97 mtrace_log] R: 0x80002360 (len=4) data=0x0007c703[0m
[1;34m[src/memory/paddr.c:97 mtrace_log] R: 0x80095527 (len=1) data=0x00000000[0m
0x80002360: 00 07 c7 03 lbu	a4, 0(a5)
[1;34m[src/memory/paddr.c:97 mtrace_log] R: 0x80002364 (len=4) data=0xfe071ae3[0m
0x80002364: fe 07 1a e3 bnez	a4, -0xc
[1;34m[src/memory/paddr.c:97 mtrace_log] R: 0x80002368 (len=4) data=0x01c12083[0m
[1;34m[src/memory/paddr.c:97 mtrace_log] R: 0x8009dfac (len=4) data=0x80000e90[0m
0x80002368: 01 c1 20 83 lw	ra, 0x1c(sp)
[1;34m[src/memory/paddr.c:97 mtrace_log] R: 0x8000236c (len=4) data=0x04010113[0m
0x8000236c: 04 01 01 13 addi	sp, sp, 0x40
[1;34m[src/memory/paddr.c:97 mtrace_log] R: 0x80002370 (len=4) data=0x00008067[0m
0x80002370: 00 00 80 67 ret
[1;34m[src/memory/paddr.c:97 mtrace_log] R: 0x80000e90 (len=4) data=0x00140413[0m
0x80000e90: 00 14 04 13 addi	s0, s0, 1
[1;34m[src/memory/paddr.c:97 mtrace_log] R: 0x80000e94 (len=4) data=0x00448493[0m
0x80000e94: 00 44 84 93 addi	s1, s1, 4
[1;34m[src/memory/paddr.c:97 mtrace_log] R: 0x80000e98 (len=4) data=0xff2412e3[0m
0x80000e98: ff 24 12 e3 bne	s0, s2, -0x1c
[1;34m[src/memory/paddr.c:97 mtrace_log] R: 0x80000e7c (len=4) data=0x0004a603[0m
[1;34m[src/memory/paddr.c:97 mtrace_log] R: 0x80002e9c (len=4) data=0x80002960[0m
0x80000e7c: 00 04 a6 03 lw	a2, 0(s1)
[1;34m[src/memory/paddr.c:97 mtrace_log] R: 0x80000e80 (len=4) data=0x00060863[0m
0x80000e80: 00 06 08 63 beqz	a2, 0x10
[1;34m[src/memory/paddr.c:97 mtrace_log] R: 0x80000e84 (len=4) data=0x00040593[0m
0x80000e84: 00 04 05 93 mv	a1, s0
[1;34m[src/memory/paddr.c:97 mtrace_log] R: 0x80000e88 (len=4) data=0x00098513[0m
0x80000e88: 00 09 85 13 mv	a0, s3
[1;34m[src/memory/paddr.c:97 mtrace_log] R: 0x80000e8c (len=4) data=0x474010ef[0m
0x80000e8c: 47 40 10 ef jal	0x1474
[1;34m[src/memory/paddr.c:97 mtrace_log] R: 0x80002300 (len=4) data=0xfc010113[0m
0x80002300: fc 01 01 13 addi	sp, sp, -0x40
[1;34m[src/memory/paddr.c:97 mtrace_log] R: 0x80002304 (len=4) data=0x02410313[0m
0x80002304: 02 41 03 13 addi	t1, sp, 0x24
[1;34m[src/memory/paddr.c:97 mtrace_log] R: 0x80002308 (len=4) data=0x02b12223[0m
[1;34m[src/memory/paddr.c:97 mtrace_log] W: 0x8009dfb4 (len=4) data=0x00000069[0m
0x80002308: 02 b1 22 23 sw	a1, 0x24(sp)
[1;34m[src/memory/paddr.c:97 mtrace_log] R: 0x8000230c (len=4) data=0x02c12423[0m
[1;34m[src/memory/paddr.c:97 mtrace_log] W: 0x8009dfb8 (len=4) data=0x80002960[0m
0x8000230c: 02 c1 24 23 sw	a2, 0x28(sp)
[1;34m[src/memory/paddr.c:97 mtrace_log] R: 0x80002310 (len=4) data=0x00050593[0m
0x80002310: 00 05 05 93 mv	a1, a0
[1;34m[src/memory/paddr.c:97 mtrace_log] R: 0x80002314 (len=4) data=0x00030613[0m
0x80002314: 00 03 06 13 mv	a2, t1
[1;34m[src/memory/paddr.c:97 mtrace_log] R: 0x80002318 (len=4) data=0x00093517[0m
0x80002318: 00 09 35 17 auipc	a0, 0x93
[1;34m[src/memory/paddr.c:97 mtrace_log] R: 0x8000231c (len=4) data=0x20450513[0m
0x8000231c: 20 45 05 13 addi	a0, a0, 0x204
[1;34m[src/memory/paddr.c:97 mtrace_log] R: 0x80002320 (len=4) data=0x02e12823[0m
[1;34m[src/memory/paddr.c:97 mtrace_log] W: 0x8009dfc0 (len=4) data=0x00000000[0m
0x80002320: 02 e1 28 23 sw	a4, 0x30(sp)
[1;34m[src/memory/paddr.c:97 mtrace_log] R: 0x80002324 (len=4) data=0x02f12a23[0m
[1;34m[src/memory/paddr.c:97 mtrace_log] W: 0x8009dfc4 (len=4) data=0x80095527[0m
0x80002324: 02 f1 2a 23 sw	a5, 0x34(sp)
[1;34m[src/memory/paddr.c:97 mtrace_log] R: 0x80002328 (len=4) data=0x00112e23[0m
[1;34m[src/memory/paddr.c:97 mtrace_log] W: 0x8009dfac (len=4) data=0x80000e90[0m
0x80002328: 00 11 2e 23 sw	ra, 0x1c(sp)
[1;34m[src/memory/paddr.c:97 mtrace_log] R: 0x8000232c (len=4) data=0x02d12623[0m
[1;34m[src/memory/paddr.c:97 mtrace_log] W: 0x8009dfbc (len=4) data=0xa00003f8[0m
0x8000232c: 02 d1 26 23 sw	a3, 0x2c(sp)
[1;34m[src/memory/paddr.c:97 mtrace_log] R: 0x80002330 (len=4) data=0x03012c23[0m
[1;34m[src/memory/paddr.c:97 mtrace_log] W: 0x8009dfc8 (len=4) data=0x800032b4[0m
0x80002330: 03 01 2c 23 sw	a6, 0x38(sp)
[1;34m[src/memory/paddr.c:97 mtrace_log] R: 0x80002334 (len=4) data=0x03112e23[0m
[1;34m[src/memory/paddr.c:97 mtrace_log] W: 0x8009dfcc (len=4) data=0x00000000[0m
0x80002334: 03 11 2e 23 sw	a7, 0x3c(sp)
[1;34m[src/memory/paddr.c:97 mtrace_log] R: 0x80002338 (len=4) data=0x00612623[0m
[1;34m[src/memory/paddr.c:97 mtrace_log] W: 0x8009df9c (len=4) data=0x8009dfb4[0m
0x80002338: 00 61 26 23 sw	t1, 0xc(sp)
[1;34m[src/memory/paddr.c:97 mtrace_log] R: 0x8000233c (len=4) data=0xad5ff0ef[0m
0x8000233c: ad 5f f0 ef jal	-0x52c
[1;34m[src/memory/paddr.c:97 mtrace_log] R: 0x80001e10 (len=4) data=0xfb010113[0m
0x80001e10: fb 01 01 13 addi	sp, sp, -0x50
[1;34m[src/memory/paddr.c:97 mtrace_log] R: 0x80001e14 (len=4) data=0x03612823[0m
[1;34m[src/memory/paddr.c:97 mtrace_log] W: 0x8009df70 (len=4) data=0x00000000[0m
0x80001e14: 03 61 28 23 sw	s6, 0x30(sp)
[1;34m[src/memory/paddr.c:97 mtrace_log] R: 0x80001e18 (len=4) data=0x04112623[0m
[1;34m[src/memory/paddr.c:97 mtrace_log] W: 0x8009df8c (len=4) data=0x80002340[0m
0x80001e18: 04 11 26 23 sw	ra, 0x4c(sp)
[1;34m[src/memory/paddr.c:97 mtrace_log] R: 0x80001e1c (len=4) data=0x04912223[0m
[1;34m[src/memory/paddr.c:97 mtrace_log] W: 0x8009df84 (len=4) data=0x80002e9c[0m
0x80001e1c: 04 91 22 23 sw	s1, 0x44(sp)
[1;34m[src/memory/paddr.c:97 mtrace_log] R: 0x80001e20 (len=4) data=0x0005c783[0m
[1;34m[src/memory/paddr.c:97 mtrace_log] R: 0x80002914 (len=1) data=0x00000020[0m
0x80001e20: 00 05 c7 83 lbu	a5, 0(a1)
[1;34m[src/memory/paddr.c:97 mtrace_log] R: 0x80001e24 (len=4) data=0x00050b13[0m
0x80001e24: 00 05 0b 13 mv	s6, a0
[1;34m[src/memory/paddr.c:97 mtrace_log] R: 0x80001e28 (len=4) data=0x44078a63[0m
0x80001e28: 44 07 8a 63 beqz	a5, 0x454
[1;34m[src/memory/paddr.c:97 mtrace_log] R: 0x80001e2c (len=4) data=0x05212023[0m
[1;34m[src/memory/paddr.c:97 mtrace_log] W: 0x8009df80 (len=4) data=0x00000100[0m
0x80001e2c: 05 21 20 23 sw	s2, 0x40(sp)
[1;34m[src/memory/paddr.c:97 mtrace_log] R: 0x80001e30 (len=4) data=0x03312e23[0m
[1;34m[src/memory/paddr.c:97 mtrace_log] W: 0x8009df7c (len=4) data=0x80002914[0m
0x80001e30: 03 31 2e 23 sw	s3, 0x3c(sp)
[1;34m[src/memory/paddr.c:97 mtrace_log] R: 0x80001e34 (len=4) data=0x03412c23[0m
[1;34m[src/memory/paddr.c:97 mtrace_log] W: 0x8009df78 (len=4) data=0x00000000[0m
0x80001e34: 03 41 2c 23 sw	s4, 0x38(sp)
[1;34m[src/memory/paddr.c:97 mtrace_log] R: 0x80001e38 (len=4) data=0x03512a23[0m
[1;34m[src/memory/paddr.c:97 mtrace_log] W: 0x8009df74 (len=4) data=0x00000000[0m
0x80001e38: 03 51 2a 23 sw	s5, 0x34(sp)
[1;34m[src/memory/paddr.c:97 mtrace_log] R: 0x80001e3c (len=4) data=0x03712623[0m
[1;34m[src/memory/paddr.c:97 mtrace_log] W: 0x8009df6c (len=4) data=0x00000000[0m
0x80001e3c: 03 71 26 23 sw	s7, 0x2c(sp)
[1;34m[src/memory/paddr.c:97 mtrace_log] R: 0x80001e40 (len=4) data=0x03812423[0m
[1;34m[src/memory/paddr.c:97 mtrace_log] W: 0x8009df68 (len=4) data=0x00000000[0m
0x80001e40: 03 81 24 23 sw	s8, 0x28(sp)
[1;34m[src/memory/paddr.c:97 mtrace_log] R: 0x80001e44 (len=4) data=0x03912223[0m
[1;34m[src/memory/paddr.c:97 mtrace_log] W: 0x8009df64 (len=4) data=0x00000000[0m
0x80001e44: 03 91 22 23 sw	s9, 0x24(sp)
[1;34m[src/memory/paddr.c:97 mtrace_log] R: 0x80001e48 (len=4) data=0x03a12023[0m
[1;34m[src/memory/paddr.c:97 mtrace_log] W: 0x8009df60 (len=4) data=0x00000000[0m
0x80001e48: 03 a1 20 23 sw	s10, 0x20(sp)
[1;34m[src/memory/paddr.c:97 mtrace_log] R: 0x80001e4c (len=4) data=0x04812423[0m
[1;34m[src/memory/paddr.c:97 mtrace_log] W: 0x8009df88 (len=4) data=0x00000069[0m
0x80001e4c: 04 81 24 23 sw	s0, 0x48(sp)
[1;34m[src/memory/paddr.c:97 mtrace_log] R: 0x80001e50 (len=4) data=0x00060a13[0m
0x80001e50: 00 06 0a 13 mv	s4, a2
[1;34m[src/memory/paddr.c:97 mtrace_log] R: 0x80001e54 (len=4) data=0x00050493[0m
0x80001e54: 00 05 04 93 mv	s1, a0
[1;34m[src/memory/paddr.c:97 mtrace_log] R: 0x80001e58 (len=4) data=0x02500a93[0m
0x80001e58: 02 50 0a 93 addi	s5, zero, 0x25
[1;34m[src/memory/paddr.c:97 mtrace_log] R: 0x80001e5c (len=4) data=0x01000993[0m
0x80001e5c: 01 00 09 93 addi	s3, zero, 0x10
[1;34m[src/memory/paddr.c:97 mtrace_log] R: 0x80001e60 (len=4) data=0x00001917[0m
0x80001e60: 00 00 19 17 auipc	s2, 1
[1;34m[src/memory/paddr.c:97 mtrace_log] R: 0x80001e64 (len=4) data=0x2d890913[0m
0x80001e64: 2d 89 09 13 addi	s2, s2, 0x2d8
[1;34m[src/memory/paddr.c:97 mtrace_log] R: 0x80001e68 (len=4) data=0x00900d13[0m
0x80001e68: 00 90 0d 13 addi	s10, zero, 9
[1;34m[src/memory/paddr.c:97 mtrace_log] R: 0x80001e6c (len=4) data=0x02e00c93[0m
0x80001e6c: 02 e0 0c 93 addi	s9, zero, 0x2e
[1;34m[src/memory/paddr.c:97 mtrace_log] R: 0x80001e70 (len=4) data=0x06800c13[0m
0x80001e70: 06 80 0c 13 addi	s8, zero, 0x68
[1;34m[src/memory/paddr.c:97 mtrace_log] R: 0x80001e74 (len=4) data=0x00001b97[0m
0x80001e74: 00 00 1b 97 auipc	s7, 1
[1;34m[src/memory/paddr.c:97 mtrace_log] R: 0x80001e78 (len=4) data=0x308b8b93[0m
0x80001e78: 30 8b 8b 93 addi	s7, s7, 0x308
[1;34m[src/memory/paddr.c:97 mtrace_log] R: 0x80001e7c (len=4) data=0x05578c63[0m
0x80001e7c: 05 57 8c 63 beq	a5, s5, 0x58
[1;34m[src/memory/paddr.c:97 mtrace_log] R: 0x80001e80 (len=4) data=0x00f48023[0m
[1;34m[src/memory/paddr.c:97 mtrace_log] W: 0x8009551c (len=1) data=0x00000020[0m
0x80001e80: 00 f4 80 23 sb	a5, 0(s1)
[1;34m[src/memory/paddr.c:97 mtrace_log] R: 0x80001e84 (len=4) data=0x0015c783[0m
[1;34m[src/memory/paddr.c:97 mtrace_log] R: 0x80002915 (len=1) data=0x00000020[0m
0x80001e84: 00 15 c7 83 lbu	a5, 1(a1)
[1;34m[src/memory/paddr.c:97 mtrace_log] R: 0x80001e88 (len=4) data=0x00148493[0m
0x80001e88: 00 14 84 93 addi	s1, s1, 1
[1;34m[src/memory/paddr.c:97 mtrace_log] R: 0x80001e8c (len=4) data=0x00158593[0m
0x80001e8c: 00 15 85 93 addi	a1, a1, 1
[1;34m[src/memory/paddr.c:97 mtrace_log] R: 0x80001e90 (len=4) data=0xfe0796e3[0m
0x80001e90: fe 07 96 e3 bnez	a5, -0x14
[1;34m[src/memory/paddr.c:97 mtrace_log] R: 0x80001e7c (len=4) data=0x05578c63[0m
0x80001e7c: 05 57 8c 63 beq	a5, s5, 0x58
[1;34m[src/memory/paddr.c:97 mtrace_log] R: 0x80001e80 (len=4) data=0x00f48023[0m
[1;34m[src/memory/paddr.c:97 mtrace_log] W: 0x8009551d (len=1) data=0x00000020[0m
0x80001e80: 00 f4 80 23 sb	a5, 0(s1)
[1;34m[src/memory/paddr.c:97 mtrace_log] R: 0x80001e84 (len=4) data=0x0015c783[0m
[1;34m[src/memory/paddr.c:97 mtrace_log] R: 0x80002916 (len=1) data=0x00000025[0m
0x80001e84: 00 15 c7 83 lbu	a5, 1(a1)
[1;34m[src/memory/paddr.c:97 mtrace_log] R: 0x80001e88 (len=4) data=0x00148493[0m
0x80001e88: 00 14 84 93 addi	s1, s1, 1
[1;34m[src/memory/paddr.c:97 mtrace_log] R: 0x80001e8c (len=4) data=0x00158593[0m
0x80001e8c: 00 15 85 93 addi	a1, a1, 1
[1;34m[src/memory/paddr.c:97 mtrace_log] R: 0x80001e90 (len=4) data=0xfe0796e3[0m
0x80001e90: fe 07 96 e3 bnez	a5, -0x14
[1;34m[src/memory/paddr.c:97 mtrace_log] R: 0x80001e7c (len=4) data=0x05578c63[0m
0x80001e7c: 05 57 8c 63 beq	a5, s5, 0x58
[1;34m[src/memory/paddr.c:97 mtrace_log] R: 0x80001ed4 (len=4) data=0x00000793[0m
0x80001ed4: 00 00 07 93 mv	a5, zero
[1;34m[src/memory/paddr.c:97 mtrace_log] R: 0x80001ed8 (len=4) data=0x0015c803[0m
[1;34m[src/memory/paddr.c:97 mtrace_log] R: 0x80002917 (len=1) data=0x00000063[0m
0x80001ed8: 00 15 c8 03 lbu	a6, 1(a1)
[1;34m[src/memory/paddr.c:97 mtrace_log] R: 0x80001edc (len=4) data=0x00158413[0m
0x80001edc: 00 15 84 13 addi	s0, a1, 1
[1;34m[src/memory/paddr.c:97 mtrace_log] R: 0x80001ee0 (len=4) data=0xfe080713[0m
0x80001ee0: fe 08 07 13 addi	a4, a6, -0x20
[1;34m[src/memory/paddr.c:97 mtrace_log] R: 0x80001ee4 (len=4) data=0x0ff77713[0m
0x80001ee4: 0f f7 77 13 andi	a4, a4, 0xff
[1;34m[src/memory/paddr.c:97 mtrace_log] R: 0x80001ee8 (len=4) data=0x00e9ec63[0m
0x80001ee8: 00 e9 ec 63 bltu	s3, a4, 0x18
[1;34m[src/memory/paddr.c:97 mtrace_log] R: 0x80001f00 (len=4) data=0xfd080713[0m
0x80001f00: fd 08 07 13 addi	a4, a6, -0x30
[1;34m[src/memory/paddr.c:97 mtrace_log] R: 0x80001f04 (len=4) data=0x0ff77713[0m
0x80001f04: 0f f7 77 13 andi	a4, a4, 0xff
[1;34m[src/memory/paddr.c:97 mtrace_log] R: 0x80001f08 (len=4) data=0x0ced7263[0m
0x80001f08: 0c ed 72 63 bgeu	s10, a4, 0xc4
[1;34m[src/memory/paddr.c:97 mtrace_log] R: 0x80001f0c (len=4) data=0x02a00713[0m
0x80001f0c: 02 a0 07 13 addi	a4, zero, 0x2a
[1;34m[src/memory/paddr.c:97 mtrace_log] R: 0x80001f10 (len=4) data=0xfff00693[0m
0x80001f10: ff f0 06 93 addi	a3, zero, -1
[1;34m[src/memory/paddr.c:97 mtrace_log] R: 0x80001f14 (len=4) data=0x00e81a63[0m
0x80001f14: 00 e8 1a 63 bne	a6, a4, 0x14
[1;34m[src/memory/paddr.c:97 mtrace_log] R: 0x80001f28 (len=4) data=0xfff00713[0m
0x80001f28: ff f0 07 13 addi	a4, zero, -1
[1;34m[src/memory/paddr.c:97 mtrace_log] R: 0x80001f2c (len=4) data=0x07980a63[0m
0x80001f2c: 07 98 0a 63 beq	a6, s9, 0x74
[1;34m[src/memory/paddr.c:97 mtrace_log] R: 0x80001f30 (len=4) data=0x0fb87613[0m
0x80001f30: 0f b8 76 13 andi	a2, a6, 0xfb
[1;34m[src/memory/paddr.c:97 mtrace_log] R: 0x80001f34 (len=4) data=0x01861663[0m
0x80001f34: 01 86 16 63 bne	a2, s8, 0xc
[1;34m[src/memory/paddr.c:97 mtrace_log] R: 0x80001f40 (len=4) data=0xfdb80813[0m
0x80001f40: fd b8 08 13 addi	a6, a6, -0x25
[1;34m[src/memory/paddr.c:97 mtrace_log] R: 0x80001f44 (len=4) data=0x0ff87813[0m
0x80001f44: 0f f8 78 13 andi	a6, a6, 0xff
[1;34m[src/memory/paddr.c:97 mtrace_log] R: 0x80001f48 (len=4) data=0x05300613[0m
0x80001f48: 05 30 06 13 addi	a2, zero, 0x53
[1;34m[src/memory/paddr.c:97 mtrace_log] R: 0x80001f4c (len=4) data=0x0b066c63[0m
0x80001f4c: 0b 06 6c 63 bltu	a2, a6, 0xb8
[1;34m[src/memory/paddr.c:97 mtrace_log] R: 0x80001f50 (len=4) data=0x00281813[0m
0x80001f50: 00 28 18 13 slli	a6, a6, 2
[1;34m[src/memory/paddr.c:97 mtrace_log] R: 0x80001f54 (len=4) data=0x01780833[0m
0x80001f54: 01 78 08 33 add	a6, a6, s7
[1;34m[src/memory/paddr.c:97 mtrace_log] R: 0x80001f58 (len=4) data=0x00082603[0m
[1;34m[src/memory/paddr.c:97 mtrace_log] R: 0x80003274 (len=4) data=0xffffef08[0m
0x80001f58: 00 08 26 03 lw	a2, 0(a6)
[1;34m[src/memory/paddr.c:97 mtrace_log] R: 0x80001f5c (len=4) data=0x01760633[0m
0x80001f5c: 01 76 06 33 add	a2, a2, s7
[1;34m[src/memory/paddr.c:97 mtrace_log] R: 0x80001f60 (len=4) data=0x00060067[0m
0x80001f60: 00 06 00 67 jr	a2
[1;34m[src/memory/paddr.c:97 mtrace_log] R: 0x80002084 (len=4) data=0x0017f793[0m
0x80002084: 00 17 f7 93 andi	a5, a5, 1
[1;34m[src/memory/paddr.c:97 mtrace_log] R: 0x80002088 (len=4) data=0x004a0613[0m
0x80002088: 00 4a 06 13 addi	a2, s4, 4
[1;34m[src/memory/paddr.c:97 mtrace_log] R: 0x8000208c (len=4) data=0x00140593[0m
0x8000208c: 00 14 05 93 addi	a1, s0, 1
[1;34m[src/memory/paddr.c:97 mtrace_log] R: 0x80002090 (len=4) data=0x18078c63[0m
0x80002090: 18 07 8c 63 beqz	a5, 0x198
[1;34m[src/memory/paddr.c:97 mtrace_log] R: 0x80002228 (len=4) data=0x00100793[0m
0x80002228: 00 10 07 93 addi	a5, zero, 1
[1;34m[src/memory/paddr.c:97 mtrace_log] R: 0x8000222c (len=4) data=0x0ad7dc63[0m
0x8000222c: 0a d7 dc 63 bge	a5, a3, 0xb8
[1;34m[src/memory/paddr.c:97 mtrace_log] R: 0x800022e4 (len=4) data=0x000a2783[0m
[1;34m[src/memory/paddr.c:97 mtrace_log] R: 0x8009dfb4 (len=4) data=0x00000069[0m
0x800022e4: 00 0a 27 83 lw	a5, 0(s4)
[1;34m[src/memory/paddr.c:97 mtrace_log] R: 0x800022e8 (len=4) data=0x00148493[0m
0x800022e8: 00 14 84 93 addi	s1, s1, 1
[1;34m[src/memory/paddr.c:97 mtrace_log] R: 0x800022ec (len=4) data=0x00060a13[0m
0x800022ec: 00 06 0a 13 mv	s4, a2
[1;34m[src/memory/paddr.c:97 mtrace_log] R: 0x800022f0 (len=4) data=0xfef48fa3[0m
[1;34m[src/memory/paddr.c:97 mtrace_log] W: 0x8009551e (len=1) data=0x00000069[0m
0x800022f0: fe f4 8f a3 sb	a5, -1(s1)
[1;34m[src/memory/paddr.c:97 mtrace_log] R: 0x800022f4 (len=4) data=0x00144783[0m
[1;34m[src/memory/paddr.c:97 mtrace_log] R: 0x80002918 (len=1) data=0x0000003a[0m
0x800022f4: 00 14 47 83 lbu	a5, 1(s0)
[1;34m[src/memory/paddr.c:97 mtrace_log] R: 0x800022f8 (len=4) data=0xb80792e3[0m
0x800022f8: b8 07 92 e3 bnez	a5, -0x47c
[1;34m[src/memory/paddr.c:97 mtrace_log] R: 0x80001e7c (len=4) data=0x05578c63[0m
0x80001e7c: 05 57 8c 63 beq	a5, s5, 0x58
[1;34m[src/memory/paddr.c:97 mtrace_log] R: 0x80001e80 (len=4) data=0x00f48023[0m
[1;34m[src/memory/paddr.c:97 mtrace_log] W: 0x8009551f (len=1) data=0x0000003a[0m
0x80001e80: 00 f4 80 23 sb	a5, 0(s1)
[1;34m[src/memory/paddr.c:97 mtrace_log] R: 0x80001e84 (len=4) data=0x0015c783[0m
[1;34m[src/memory/paddr.c:97 mtrace_log] R: 0x80002919 (len=1) data=0x00000020[0m
0x80001e84: 00 15 c7 83 lbu	a5, 1(a1)
[1;34m[src/memory/paddr.c:97 mtrace_log] R: 0x80001e88 (len=4) data=0x00148493[0m
0x80001e88: 00 14 84 93 addi	s1, s1, 1
[1;34m[src/memory/paddr.c:97 mtrace_log] R: 0x80001e8c (len=4) data=0x00158593[0m
0x80001e8c: 00 15 85 93 addi	a1, a1, 1
[1;34m[src/memory/paddr.c:97 mtrace_log] R: 0x80001e90 (len=4) data=0xfe0796e3[0m
0x80001e90: fe 07 96 e3 bnez	a5, -0x14
[1;34m[src/memory/paddr.c:97 mtrace_log] R: 0x80001e7c (len=4) data=0x05578c63[0m
0x80001e7c: 05 57 8c 63 beq	a5, s5, 0x58
[1;34m[src/memory/paddr.c:97 mtrace_log] R: 0x80001e80 (len=4) data=0x00f48023[0m
[1;34m[src/memory/paddr.c:97 mtrace_log] W: 0x80095520 (len=1) data=0x00000020[0m
0x80001e80: 00 f4 80 23 sb	a5, 0(s1)
[1;34m[src/memory/paddr.c:97 mtrace_log] R: 0x80001e84 (len=4) data=0x0015c783[0m
[1;34m[src/memory/paddr.c:97 mtrace_log] R: 0x8000291a (len=1) data=0x00000025[0m
0x80001e84: 00 15 c7 83 lbu	a5, 1(a1)
[1;34m[src/memory/paddr.c:97 mtrace_log] R: 0x80001e88 (len=4) data=0x00148493[0m
0x80001e88: 00 14 84 93 addi	s1, s1, 1
[1;34m[src/memory/paddr.c:97 mtrace_log] R: 0x80001e8c (len=4) data=0x00158593[0m
0x80001e8c: 00 15 85 93 addi	a1, a1, 1
[1;34m[src/memory/paddr.c:97 mtrace_log] R: 0x80001e90 (len=4) data=0xfe0796e3[0m
0x80001e90: fe 07 96 e3 bnez	a5, -0x14
[1;34m[src/memory/paddr.c:97 mtrace_log] R: 0x80001e7c (len=4) data=0x05578c63[0m
0x80001e7c: 05 57 8c 63 beq	a5, s5, 0x58
[1;34m[src/memory/paddr.c:97 mtrace_log] R: 0x80001ed4 (len=4) data=0x00000793[0m
0x80001ed4: 00 00 07 93 mv	a5, zero
[1;34m[src/memory/paddr.c:97 mtrace_log] R: 0x80001ed8 (len=4) data=0x0015c803[0m
[1;34m[src/memory/paddr.c:97 mtrace_log] R: 0x8000291b (len=1) data=0x00000073[0m
0x80001ed8: 00 15 c8 03 lbu	a6, 1(a1)
[1;34m[src/memory/paddr.c:97 mtrace_log] R: 0x80001edc (len=4) data=0x00158413[0m
0x80001edc: 00 15 84 13 addi	s0, a1, 1
[1;34m[src/memory/paddr.c:97 mtrace_log] R: 0x80001ee0 (len=4) data=0xfe080713[0m
0x80001ee0: fe 08 07 13 addi	a4, a6, -0x20
[1;34m[src/memory/paddr.c:97 mtrace_log] R: 0x80001ee4 (len=4) data=0x0ff77713[0m
0x80001ee4: 0f f7 77 13 andi	a4, a4, 0xff
[1;34m[src/memory/paddr.c:97 mtrace_log] R: 0x80001ee8 (len=4) data=0x00e9ec63[0m
0x80001ee8: 00 e9 ec 63 bltu	s3, a4, 0x18
[1;34m[src/memory/paddr.c:97 mtrace_log] R: 0x80001f00 (len=4) data=0xfd080713[0m
0x80001f00: fd 08 07 13 addi	a4, a6, -0x30
[1;34m[src/memory/paddr.c:97 mtrace_log] R: 0x80001f04 (len=4) data=0x0ff77713[0m
0x80001f04: 0f f7 77 13 andi	a4, a4, 0xff
[1;34m[src/memory/paddr.c:97 mtrace_log] R: 0x80001f08 (len=4) data=0x0ced7263[0m
0x80001f08: 0c ed 72 63 bgeu	s10, a4, 0xc4
[1;34m[src/memory/paddr.c:97 mtrace_log] R: 0x80001f0c (len=4) data=0x02a00713[0m
0x80001f0c: 02 a0 07 13 addi	a4, zero, 0x2a
[1;34m[src/memory/paddr.c:97 mtrace_log] R: 0x80001f10 (len=4) data=0xfff00693[0m
0x80001f10: ff f0 06 93 addi	a3, zero, -1
[1;34m[src/memory/paddr.c:97 mtrace_log] R: 0x80001f14 (len=4) data=0x00e81a63[0m
0x80001f14: 00 e8 1a 63 bne	a6, a4, 0x14
[1;34m[src/memory/paddr.c:97 mtrace_log] R: 0x80001f28 (len=4) data=0xfff00713[0m
0x80001f28: ff f0 07 13 addi	a4, zero, -1
[1;34m[src/memory/paddr.c:97 mtrace_log] R: 0x80001f2c (len=4) data=0x07980a63[0m
0x80001f2c: 07 98 0a 63 beq	a6, s9, 0x74
[1;34m[src/memory/paddr.c:97 mtrace_log] R: 0x80001f30 (len=4) data=0x0fb87613[0m
0x80001f30: 0f b8 76 13 andi	a2, a6, 0xfb
[1;34m[src/memory/paddr.c:97 mtrace_log] R: 0x80001f34 (len=4) data=0x01861663[0m
0x80001f34: 01 86 16 63 bne	a2, s8, 0xc
[1;34m[src/memory/paddr.c:97 mtrace_log] R: 0x80001f40 (len=4) data=0xfdb80813[0m
0x80001f40: fd b8 08 13 addi	a6, a6, -0x25
[1;34m[src/memory/paddr.c:97 mtrace_log] R: 0x80001f44 (len=4) data=0x0ff87813[0m
0x80001f44: 0f f8 78 13 andi	a6, a6, 0xff
[1;34m[src/memory/paddr.c:97 mtrace_log] R: 0x80001f48 (len=4) data=0x05300613[0m
0x80001f48: 05 30 06 13 addi	a2, zero, 0x53
[1;34m[src/memory/paddr.c:97 mtrace_log] R: 0x80001f4c (len=4) data=0x0b066c63[0m
0x80001f4c: 0b 06 6c 63 bltu	a2, a6, 0xb8
[1;34m[src/memory/paddr.c:97 mtrace_log] R: 0x80001f50 (len=4) data=0x00281813[0m
0x80001f50: 00 28 18 13 slli	a6, a6, 2
[1;34m[src/memory/paddr.c:97 mtrace_log] R: 0x80001f54 (len=4) data=0x01780833[0m
0x80001f54: 01 78 08 33 add	a6, a6, s7
[1;34m[src/memory/paddr.c:97 mtrace_log] R: 0x80001f58 (len=4) data=0x00082603[0m
[1;34m[src/memory/paddr.c:97 mtrace_log] R: 0x800032b4 (len=4) data=0xffffef50[0m
0x80001f58: 00 08 26 03 lw	a2, 0(a6)
[1;34m[src/memory/paddr.c:97 mtrace_log] R: 0x80001f5c (len=4) data=0x01760633[0m
0x80001f5c: 01 76 06 33 add	a2, a2, s7
[1;34m[src/memory/paddr.c:97 mtrace_log] R: 0x80001f60 (len=4) data=0x00060067[0m
0x80001f60: 00 06 00 67 jr	a2
[1;34m[src/memory/paddr.c:97 mtrace_log] R: 0x800020cc (len=4) data=0x01b12e23[0m
[1;34m[src/memory/paddr.c:97 mtrace_log] W: 0x8009df5c (len=4) data=0x00000000[0m
0x800020cc: 01 b1 2e 23 sw	s11, 0x1c(sp)
[1;34m[src/memory/paddr.c:97 mtrace_log] R: 0x800020d0 (len=4) data=0x000a2d83[0m
[1;34m[src/memory/paddr.c:97 mtrace_log] R: 0x8009dfb8 (len=4) data=0x80002960[0m
0x800020d0: 00 0a 2d 83 lw	s11, 0(s4)
[1;34m[src/memory/paddr.c:97 mtrace_log] R: 0x800020d4 (len=4) data=0x004a0a13[0m
0x800020d4: 00 4a 0a 13 addi	s4, s4, 4
[1;34m[src/memory/paddr.c:97 mtrace_log] R: 0x800020d8 (len=4) data=0x140d8263[0m
0x800020d8: 14 0d 82 63 beqz	s11, 0x144
[1;34m[src/memory/paddr.c:97 mtrace_log] R: 0x800020dc (len=4) data=0x000d8513[0m
0x800020dc: 00 0d 85 13 mv	a0, s11
[1;34m[src/memory/paddr.c:97 mtrace_log] R: 0x800020e0 (len=4) data=0x00d12623[0m
[1;34m[src/memory/paddr.c:97 mtrace_log] W: 0x8009df4c (len=4) data=0xffffffff[0m
0x800020e0: 00 d1 26 23 sw	a3, 0xc(sp)
[1;34m[src/memory/paddr.c:97 mtrace_log] R: 0x800020e4 (len=4) data=0x00f12423[0m
[1;34m[src/memory/paddr.c:97 mtrace_log] W: 0x8009df48 (len=4) data=0x00000000[0m
0x800020e4: 00 f1 24 23 sw	a5, 8(sp)
[1;34m[src/memory/paddr.c:97 mtrace_log] R: 0x800020e8 (len=4) data=0x00e12223[0m
[1;34m[src/memory/paddr.c:97 mtrace_log] W: 0x8009df44 (len=4) data=0xffffffff[0m
0x800020e8: 00 e1 22 23 sw	a4, 4(sp)
[1;34m[src/memory/paddr.c:97 mtrace_log] R: 0x800020ec (len=4) data=0x9c9ff0ef[0m
0x800020ec: 9c 9f f0 ef jal	-0x638
[1;34m[src/memory/paddr.c:97 mtrace_log] R: 0x80001ab4 (len=4) data=0x00054783[0m
[1;34m[src/memory/paddr.c:97 mtrace_log] R: 0x80002960 (len=1) data=0x00000069[0m
0x80001ab4: 00 05 47 83 lbu	a5, 0(a0)
[1;34m[src/memory/paddr.c:97 mtrace_log] R: 0x80001ab8 (len=4) data=0x00050713[0m
0x80001ab8: 00 05 07 13 mv	a4, a0
[1;34m[src/memory/paddr.c:97 mtrace_log] R: 0x80001abc (len=4) data=0x00000513[0m
0x80001abc: 00 00 05 13 mv	a0, zero
[1;34m[src/memory/paddr.c:97 mtrace_log] R: 0x80001ac0 (len=4) data=0x00078c63[0m
0x80001ac0: 00 07 8c 63 beqz	a5, 0x18
[1;34m[src/memory/paddr.c:97 mtrace_log] R: 0x80001ac4 (len=4) data=0x00150513[0m
0x80001ac4: 00 15 05 13 addi	a0, a0, 1
[1;34m[src/memory/paddr.c:97 mtrace_log] R: 0x80001ac8 (len=4) data=0x00a707b3[0m
0x80001ac8: 00 a7 07 b3 add	a5, a4, a0
[1;34m[src/memory/paddr.c:97 mtrace_log] R: 0x80001acc (len=4) data=0x0007c783[0m
[1;34m[src/memory/paddr.c:97 mtrace_log] R: 0x80002961 (len=1) data=0x0000006e[0m
0x80001acc: 00 07 c7 83 lbu	a5, 0(a5)
[1;34m[src/memory/paddr.c:97 mtrace_log] R: 0x80001ad0 (len=4) data=0xfe079ae3[0m
0x80001ad0: fe 07 9a e3 bnez	a5, -0xc
[1;34m[src/memory/paddr.c:97 mtrace_log] R: 0x80001ac4 (len=4) data=0x00150513[0m
0x80001ac4: 00 15 05 13 addi	a0, a0, 1
[1;34m[src/memory/paddr.c:97 mtrace_log] R: 0x80001ac8 (len=4) data=0x00a707b3[0m
0x80001ac8: 00 a7 07 b3 add	a5, a4, a0
[1;34m[src/memory/paddr.c:97 mtrace_log] R: 0x80001acc (len=4) data=0x0007c783[0m
[1;34m[src/memory/paddr.c:97 mtrace_log] R: 0x80002962 (len=1) data=0x00000074[0m
0x80001acc: 00 07 c7 83 lbu	a5, 0(a5)
[1;34m[src/memory/paddr.c:97 mtrace_log] R: 0x80001ad0 (len=4) data=0xfe079ae3[0m
0x80001ad0: fe 07 9a e3 bnez	a5, -0xc
[1;34m[src/memory/paddr.c:97 mtrace_log] R: 0x80001ac4 (len=4) data=0x00150513[0m
0x80001ac4: 00 15 05 13 addi	a0, a0, 1
[1;34m[src/memory/paddr.c:97 mtrace_log] R: 0x80001ac8 (len=4) data=0x00a707b3[0m
0x80001ac8: 00 a7 07 b3 add	a5, a4, a0
[1;34m[src/memory/paddr.c:97 mtrace_log] R: 0x80001acc (len=4) data=0x0007c783[0m
[1;34m[src/memory/paddr.c:97 mtrace_log] R: 0x80002963 (len=1) data=0x00000065[0m
0x80001acc: 00 07 c7 83 lbu	a5, 0(a5)
[1;34m[src/memory/paddr.c:97 mtrace_log] R: 0x80001ad0 (len=4) data=0xfe079ae3[0m
0x80001ad0: fe 07 9a e3 bnez	a5, -0xc
[1;34m[src/memory/paddr.c:97 mtrace_log] R: 0x80001ac4 (len=4) data=0x00150513[0m
0x80001ac4: 00 15 05 13 addi	a0, a0, 1
[1;34m[src/memory/paddr.c:97 mtrace_log] R: 0x80001ac8 (len=4) data=0x00a707b3[0m
0x80001ac8: 00 a7 07 b3 add	a5, a4, a0
[1;34m[src/memory/paddr.c:97 mtrace_log] R: 0x80001acc (len=4) data=0x0007c783[0m
[1;34m[src/memory/paddr.c:97 mtrace_log] R: 0x80002964 (len=1) data=0x00000072[0m
0x80001acc: 00 07 c7 83 lbu	a5, 0(a5)
[1;34m[src/memory/paddr.c:97 mtrace_log] R: 0x80001ad0 (len=4) data=0xfe079ae3[0m
0x80001ad0: fe 07 9a e3 bnez	a5, -0xc
[1;34m[src/memory/paddr.c:97 mtrace_log] R: 0x80001ac4 (len=4) data=0x00150513[0m
0x80001ac4: 00 15 05 13 addi	a0, a0, 1
[1;34m[src/memory/paddr.c:97 mtrace_log] R: 0x80001ac8 (len=4) data=0x00a707b3[0m
0x80001ac8: 00 a7 07 b3 add	a5, a4, a0
[1;34m[src/memory/paddr.c:97 mtrace_log] R: 0x80001acc (len=4) data=0x0007c783[0m
[1;34m[src/memory/paddr.c:97 mtrace_log] R: 0x80002965 (len=1) data=0x00000072[0m
0x80001acc: 00 07 c7 83 lbu	a5, 0(a5)
[1;34m[src/memory/paddr.c:97 mtrace_log] R: 0x80001ad0 (len=4) data=0xfe079ae3[0m
0x80001ad0: fe 07 9a e3 bnez	a5, -0xc
[1;34m[src/memory/paddr.c:97 mtrace_log] R: 0x80001ac4 (len=4) data=0x00150513[0m
0x80001ac4: 00 15 05 13 addi	a0, a0, 1
[1;34m[src/memory/paddr.c:97 mtrace_log] R: 0x80001ac8 (len=4) data=0x00a707b3[0m
0x80001ac8: 00 a7 07 b3 add	a5, a4, a0
[1;34m[src/memory/paddr.c:97 mtrace_log] R: 0x80001acc (len=4) data=0x0007c783[0m
[1;34m[src/memory/paddr.c:97 mtrace_log] R: 0x80002966 (len=1) data=0x00000075[0m
0x80001acc: 00 07 c7 83 lbu	a5, 0(a5)
[1;34m[src/memory/paddr.c:97 mtrace_log] R: 0x80001ad0 (len=4) data=0xfe079ae3[0m
0x80001ad0: fe 07 9a e3 bnez	a5, -0xc
[1;34m[src/memory/paddr.c:97 mtrace_log] R: 0x80001ac4 (len=4) data=0x00150513[0m
0x80001ac4: 00 15 05 13 addi	a0, a0, 1
[1;34m[src/memory/paddr.c:97 mtrace_log] R: 0x80001ac8 (len=4) data=0x00a707b3[0m
0x80001ac8: 00 a7 07 b3 add	a5, a4, a0
[1;34m[src/memory/paddr.c:97 mtrace_log] R: 0x80001acc (len=4) data=0x0007c783[0m
[1;34m[src/memory/paddr.c:97 mtrace_log] R: 0x80002967 (len=1) data=0x00000070[0m
0x80001acc: 00 07 c7 83 lbu	a5, 0(a5)
[1;34m[src/memory/paddr.c:97 mtrace_log] R: 0x80001ad0 (len=4) data=0xfe079ae3[0m
0x80001ad0: fe 07 9a e3 bnez	a5, -0xc
[1;34m[src/memory/paddr.c:97 mtrace_log] R: 0x80001ac4 (len=4) data=0x00150513[0m
0x80001ac4: 00 15 05 13 addi	a0, a0, 1
[1;34m[src/memory/paddr.c:97 mtrace_log] R: 0x80001ac8 (len=4) data=0x00a707b3[0m
0x80001ac8: 00 a7 07 b3 add	a5, a4, a0
[1;34m[src/memory/paddr.c:97 mtrace_log] R: 0x80001acc (len=4) data=0x0007c783[0m
[1;34m[src/memory/paddr.c:97 mtrace_log] R: 0x80002968 (len=1) data=0x00000074[0m
0x80001acc: 00 07 c7 83 lbu	a5, 0(a5)
[1;34m[src/memory/paddr.c:97 mtrace_log] R: 0x80001ad0 (len=4) data=0xfe079ae3[0m
0x80001ad0: fe 07 9a e3 bnez	a5, -0xc
[1;34m[src/memory/paddr.c:97 mtrace_log] R: 0x80001ac4 (len=4) data=0x00150513[0m
0x80001ac4: 00 15 05 13 addi	a0, a0, 1
[1;34m[src/memory/paddr.c:97 mtrace_log] R: 0x80001ac8 (len=4) data=0x00a707b3[0m
0x80001ac8: 00 a7 07 b3 add	a5, a4, a0
[1;34m[src/memory/paddr.c:97 mtrace_log] R: 0x80001acc (len=4) data=0x0007c783[0m
[1;34m[src/memory/paddr.c:97 mtrace_log] R: 0x80002969 (len=1) data=0x0000002f[0m
0x80001acc: 00 07 c7 83 lbu	a5, 0(a5)
[1;34m[src/memory/paddr.c:97 mtrace_log] R: 0x80001ad0 (len=4) data=0xfe079ae3[0m
0x80001ad0: fe 07 9a e3 bnez	a5, -0xc
[1;34m[src/memory/paddr.c:97 mtrace_log] R: 0x80001ac4 (len=4) data=0x00150513[0m
0x80001ac4: 00 15 05 13 addi	a0, a0, 1
[1;34m[src/memory/paddr.c:97 mtrace_log] R: 0x80001ac8 (len=4) data=0x00a707b3[0m
0x80001ac8: 00 a7 07 b3 add	a5, a4, a0
[1;34m[src/memory/paddr.c:97 mtrace_log] R: 0x80001acc (len=4) data=0x0007c783[0m
[1;34m[src/memory/paddr.c:97 mtrace_log] R: 0x8000296a (len=1) data=0x00000079[0m
0x80001acc: 00 07 c7 83 lbu	a5, 0(a5)
[1;34m[src/memory/paddr.c:97 mtrace_log] R: 0x80001ad0 (len=4) data=0xfe079ae3[0m
0x80001ad0: fe 07 9a e3 bnez	a5, -0xc
[1;34m[src/memory/paddr.c:97 mtrace_log] R: 0x80001ac4 (len=4) data=0x00150513[0m
0x80001ac4: 00 15 05 13 addi	a0, a0, 1
[1;34m[src/memory/paddr.c:97 mtrace_log] R: 0x80001ac8 (len=4) data=0x00a707b3[0m
0x80001ac8: 00 a7 07 b3 add	a5, a4, a0
[1;34m[src/memory/paddr.c:97 mtrace_log] R: 0x80001acc (len=4) data=0x0007c783[0m
[1;34m[src/memory/paddr.c:97 mtrace_log] R: 0x8000296b (len=1) data=0x00000069[0m
0x80001acc: 00 07 c7 83 lbu	a5, 0(a5)
[1;34m[src/memory/paddr.c:97 mtrace_log] R: 0x80001ad0 (len=4) data=0xfe079ae3[0m
0x80001ad0: fe 07 9a e3 bnez	a5, -0xc
[1;34m[src/memory/paddr.c:97 mtrace_log] R: 0x80001ac4 (len=4) data=0x00150513[0m
0x80001ac4: 00 15 05 13 addi	a0, a0, 1
[1;34m[src/memory/paddr.c:97 mtrace_log] R: 0x80001ac8 (len=4) data=0x00a707b3[0m
0x80001ac8: 00 a7 07 b3 add	a5, a4, a0
[1;34m[src/memory/paddr.c:97 mtrace_log] R: 0x80001acc (len=4) data=0x0007c783[0m
[1;34m[src/memory/paddr.c:97 mtrace_log] R: 0x8000296c (len=1) data=0x00000065[0m
0x80001acc: 00 07 c7 83 lbu	a5, 0(a5)
[1;34m[src/memory/paddr.c:97 mtrace_log] R: 0x80001ad0 (len=4) data=0xfe079ae3[0m
0x80001ad0: fe 07 9a e3 bnez	a5, -0xc
[1;34m[src/memory/paddr.c:97 mtrace_log] R: 0x80001ac4 (len=4) data=0x00150513[0m
0x80001ac4: 00 15 05 13 addi	a0, a0, 1
[1;34m[src/memory/paddr.c:97 mtrace_log] R: 0x80001ac8 (len=4) data=0x00a707b3[0m
0x80001ac8: 00 a7 07 b3 add	a5, a4, a0
[1;34m[src/memory/paddr.c:97 mtrace_log] R: 0x80001acc (len=4) data=0x0007c783[0m
[1;34m[src/memory/paddr.c:97 mtrace_log] R: 0x8000296d (len=1) data=0x0000006c[0m
0x80001acc: 00 07 c7 83 lbu	a5, 0(a5)
[1;34m[src/memory/paddr.c:97 mtrace_log] R: 0x80001ad0 (len=4) data=0xfe079ae3[0m
0x80001ad0: fe 07 9a e3 bnez	a5, -0xc
[1;34m[src/memory/paddr.c:97 mtrace_log] R: 0x80001ac4 (len=4) data=0x00150513[0m
0x80001ac4: 00 15 05 13 addi	a0, a0, 1
[1;34m[src/memory/paddr.c:97 mtrace_log] R: 0x80001ac8 (len=4) data=0x00a707b3[0m
0x80001ac8: 00 a7 07 b3 add	a5, a4, a0
[1;34m[src/memory/paddr.c:97 mtrace_log] R: 0x80001acc (len=4) data=0x0007c783[0m
[1;34m[src/memory/paddr.c:97 mtrace_log] R: 0x8000296e (len=1) data=0x00000064[0m
0x80001acc: 00 07 c7 83 lbu	a5, 0(a5)
[1;34m[src/memory/paddr.c:97 mtrace_log] R: 0x80001ad0 (len=4) data=0xfe079ae3[0m
0x80001ad0: fe 07 9a e3 bnez	a5, -0xc
[1;34m[src/memory/paddr.c:97 mtrace_log] R: 0x80001ac4 (len=4) data=0x00150513[0m
0x80001ac4: 00 15 05 13 addi	a0, a0, 1
[1;34m[src/memory/paddr.c:97 mtrace_log] R: 0x80001ac8 (len=4) data=0x00a707b3[0m
0x80001ac8: 00 a7 07 b3 add	a5, a4, a0
[1;34m[src/memory/paddr.c:97 mtrace_log] R: 0x80001acc (len=4) data=0x0007c783[0m
[1;34m[src/memory/paddr.c:97 mtrace_log] R: 0x8000296f (len=1) data=0x00000020[0m
0x80001acc: 00 07 c7 83 lbu	a5, 0(a5)
[1;34m[src/memory/paddr.c:97 mtrace_log] R: 0x80001ad0 (len=4) data=0xfe079ae3[0m
0x80001ad0: fe 07 9a e3 bnez	a5, -0xc
[1;34m[src/memory/paddr.c:97 mtrace_log] R: 0x80001ac4 (len=4) data=0x00150513[0m
0x80001ac4: 00 15 05 13 addi	a0, a0, 1
[1;34m[src/memory/paddr.c:97 mtrace_log] R: 0x80001ac8 (len=4) data=0x00a707b3[0m
0x80001ac8: 00 a7 07 b3 add	a5, a4, a0
[1;34m[src/memory/paddr.c:97 mtrace_log] R: 0x80001acc (len=4) data=0x0007c783[0m
[1;34m[src/memory/paddr.c:97 mtrace_log] R: 0x80002970 (len=1) data=0x00000074[0m
0x80001acc: 00 07 c7 83 lbu	a5, 0(a5)
[1;34m[src/memory/paddr.c:97 mtrace_log] R: 0x80001ad0 (len=4) data=0xfe079ae3[0m
0x80001ad0: fe 07 9a e3 bnez	a5, -0xc
[1;34m[src/memory/paddr.c:97 mtrace_log] R: 0x80001ac4 (len=4) data=0x00150513[0m
0x80001ac4: 00 15 05 13 addi	a0, a0, 1
[1;34m[src/memory/paddr.c:97 mtrace_log] R: 0x80001ac8 (len=4) data=0x00a707b3[0m
0x80001ac8: 00 a7 07 b3 add	a5, a4, a0
[1;34m[src/memory/paddr.c:97 mtrace_log] R: 0x80001acc (len=4) data=0x0007c783[0m
[1;34m[src/memory/paddr.c:97 mtrace_log] R: 0x80002971 (len=1) data=0x00000065[0m
0x80001acc: 00 07 c7 83 lbu	a5, 0(a5)
[1;34m[src/memory/paddr.c:97 mtrace_log] R: 0x80001ad0 (len=4) data=0xfe079ae3[0m
0x80001ad0: fe 07 9a e3 bnez	a5, -0xc
[1;34m[src/memory/paddr.c:97 mtrace_log] R: 0x80001ac4 (len=4) data=0x00150513[0m
0x80001ac4: 00 15 05 13 addi	a0, a0, 1
[1;34m[src/memory/paddr.c:97 mtrace_log] R: 0x80001ac8 (len=4) data=0x00a707b3[0m
0x80001ac8: 00 a7 07 b3 add	a5, a4, a0
[1;34m[src/memory/paddr.c:97 mtrace_log] R: 0x80001acc (len=4) data=0x0007c783[0m
[1;34m[src/memory/paddr.c:97 mtrace_log] R: 0x80002972 (len=1) data=0x00000073[0m
0x80001acc: 00 07 c7 83 lbu	a5, 0(a5)
[1;34m[src/memory/paddr.c:97 mtrace_log] R: 0x80001ad0 (len=4) data=0xfe079ae3[0m
0x80001ad0: fe 07 9a e3 bnez	a5, -0xc
[1;34m[src/memory/paddr.c:97 mtrace_log] R: 0x80001ac4 (len=4) data=0x00150513[0m
0x80001ac4: 00 15 05 13 addi	a0, a0, 1
[1;34m[src/memory/paddr.c:97 mtrace_log] R: 0x80001ac8 (len=4) data=0x00a707b3[0m
0x80001ac8: 00 a7 07 b3 add	a5, a4, a0
[1;34m[src/memory/paddr.c:97 mtrace_log] R: 0x80001acc (len=4) data=0x0007c783[0m
[1;34m[src/memory/paddr.c:97 mtrace_log] R: 0x80002973 (len=1) data=0x00000074[0m
0x80001acc: 00 07 c7 83 lbu	a5, 0(a5)
[1;34m[src/memory/paddr.c:97 mtrace_log] R: 0x80001ad0 (len=4) data=0xfe079ae3[0m
0x80001ad0: fe 07 9a e3 bnez	a5, -0xc
[1;34m[src/memory/paddr.c:97 mtrace_log] R: 0x80001ac4 (len=4) data=0x00150513[0m
0x80001ac4: 00 15 05 13 addi	a0, a0, 1
[1;34m[src/memory/paddr.c:97 mtrace_log] R: 0x80001ac8 (len=4) data=0x00a707b3[0m
0x80001ac8: 00 a7 07 b3 add	a5, a4, a0
[1;34m[src/memory/paddr.c:97 mtrace_log] R: 0x80001acc (len=4) data=0x0007c783[0m
[1;34m[src/memory/paddr.c:97 mtrace_log] R: 0x80002974 (len=1) data=0x00000000[0m
0x80001acc: 00 07 c7 83 lbu	a5, 0(a5)
[1;34m[src/memory/paddr.c:97 mtrace_log] R: 0x80001ad0 (len=4) data=0xfe079ae3[0m
0x80001ad0: fe 07 9a e3 bnez	a5, -0xc
[1;34m[src/memory/paddr.c:97 mtrace_log] R: 0x80001ad4 (len=4) data=0x00008067[0m
0x80001ad4: 00 00 80 67 ret
[1;34m[src/memory/paddr.c:97 mtrace_log] R: 0x800020f0 (len=4) data=0x00412703[0m
[1;34m[src/memory/paddr.c:97 mtrace_log] R: 0x8009df44 (len=4) data=0xffffffff[0m
0x800020f0: 00 41 27 03 lw	a4, 4(sp)
[1;34m[src/memory/paddr.c:97 mtrace_log] R: 0x800020f4 (len=4) data=0xfff00613[0m
0x800020f4: ff f0 06 13 addi	a2, zero, -1
[1;34m[src/memory/paddr.c:97 mtrace_log] R: 0x800020f8 (len=4) data=0x00812783[0m
[1;34m[src/memory/paddr.c:97 mtrace_log] R: 0x8009df48 (len=4) data=0x00000000[0m
0x800020f8: 00 81 27 83 lw	a5, 8(sp)
[1;34m[src/memory/paddr.c:97 mtrace_log] R: 0x800020fc (len=4) data=0x00c12683[0m
[1;34m[src/memory/paddr.c:97 mtrace_log] R: 0x8009df4c (len=4) data=0xffffffff[0m
0x800020fc: 00 c1 26 83 lw	a3, 0xc(sp)
[1;34m[src/memory/paddr.c:97 mtrace_log] R: 0x80002100 (len=4) data=0x00c70663[0m
0x80002100: 00 c7 06 63 beq	a4, a2, 0xc
[1;34m[src/memory/paddr.c:97 mtrace_log] R: 0x8000210c (len=4) data=0x0017f793[0m
0x8000210c: 00 17 f7 93 andi	a5, a5, 1
[1;34m[src/memory/paddr.c:97 mtrace_log] R: 0x80002110 (len=4) data=0x14078063[0m
0x80002110: 14 07 80 63 beqz	a5, 0x140
[1;34m[src/memory/paddr.c:97 mtrace_log] R: 0x80002250 (len=4) data=0xfff68613[0m
0x80002250: ff f6 86 13 addi	a2, a3, -1
[1;34m[src/memory/paddr.c:97 mtrace_log] R: 0x80002254 (len=4) data=0x08d55463[0m
0x80002254: 08 d5 54 63 bge	a0, a3, 0x88
[1;34m[src/memory/paddr.c:97 mtrace_log] R: 0x800022dc (len=4) data=0x00060693[0m
0x800022dc: 00 06 06 93 mv	a3, a2
[1;34m[src/memory/paddr.c:97 mtrace_log] R: 0x800022e0 (len=4) data=0xe35ff06f[0m
0x800022e0: e3 5f f0 6f j	-0x1cc
[1;34m[src/memory/paddr.c:97 mtrace_log] R: 0x80002114 (len=4) data=0x1aa05663[0m
0x80002114: 1a a0 56 63 blez	a0, 0x1ac
[1;34m[src/memory/paddr.c:97 mtrace_log] R: 0x80002118 (len=4) data=0x00a48733[0m
0x80002118: 00 a4 87 33 add	a4, s1, a0
[1;34m[src/memory/paddr.c:97 mtrace_log] R: 0x8000211c (len=4) data=0x000dc783[0m
[1;34m[src/memory/paddr.c:97 mtrace_log] R: 0x80002960 (len=1) data=0x00000069[0m
0x8000211c: 00 0d c7 83 lbu	a5, 0(s11)
[1;34m[src/memory/paddr.c:97 mtrace_log] R: 0x80002120 (len=4) data=0x00148493[0m
0x80002120: 00 14 84 93 addi	s1, s1, 1
[1;34m[src/memory/paddr.c:97 mtrace_log] R: 0x80002124 (len=4) data=0x001d8d93[0m
0x80002124: 00 1d 8d 93 addi	s11, s11, 1
[1;34m[src/memory/paddr.c:97 mtrace_log] R: 0x80002128 (len=4) data=0xfef48fa3[0m
[1;34m[src/memory/paddr.c:97 mtrace_log] W: 0x80095521 (len=1) data=0x00000069[0m
0x80002128: fe f4 8f a3 sb	a5, -1(s1)
[1;34m[src/memory/paddr.c:97 mtrace_log] R: 0x8000212c (len=4) data=0xfe9718e3[0m
0x8000212c: fe 97 18 e3 bne	a4, s1, -0x10
[1;34m[src/memory/paddr.c:97 mtrace_log] R: 0x8000211c (len=4) data=0x000dc783[0m
[1;34m[src/memory/paddr.c:97 mtrace_log] R: 0x80002961 (len=1) data=0x0000006e[0m
0x8000211c: 00 0d c7 83 lbu	a5, 0(s11)
[1;34m[src/memory/paddr.c:97 mtrace_log] R: 0x80002120 (len=4) data=0x00148493[0m
0x80002120: 00 14 84 93 addi	s1, s1, 1
[1;34m[src/memory/paddr.c:97 mtrace_log] R: 0x80002124 (len=4) data=0x001d8d93[0m
0x80002124: 00 1d 8d 93 addi	s11, s11, 1
[1;34m[src/memory/paddr.c:97 mtrace_log] R: 0x80002128 (len=4) data=0xfef48fa3[0m
[1;34m[src/memory/paddr.c:97 mtrace_log] W: 0x80095522 (len=1) data=0x0000006e[0m
0x80002128: fe f4 8f a3 sb	a5, -1(s1)
[1;34m[src/memory/paddr.c:97 mtrace_log] R: 0x8000212c (len=4) data=0xfe9718e3[0m
0x8000212c: fe 97 18 e3 bne	a4, s1, -0x10
[1;34m[src/memory/paddr.c:97 mtrace_log] R: 0x8000211c (len=4) data=0x000dc783[0m
[1;34m[src/memory/paddr.c:97 mtrace_log] R: 0x80002962 (len=1) data=0x00000074[0m
0x8000211c: 00 0d c7 83 lbu	a5, 0(s11)
[1;34m[src/memory/paddr.c:97 mtrace_log] R: 0x80002120 (len=4) data=0x00148493[0m
0x80002120: 00 14 84 93 addi	s1, s1, 1
[1;34m[src/memory/paddr.c:97 mtrace_log] R: 0x80002124 (len=4) data=0x001d8d93[0m
0x80002124: 00 1d 8d 93 addi	s11, s11, 1
[1;34m[src/memory/paddr.c:97 mtrace_log] R: 0x80002128 (len=4) data=0xfef48fa3[0m
[1;34m[src/memory/paddr.c:97 mtrace_log] W: 0x80095523 (len=1) data=0x00000074[0m
0x80002128: fe f4 8f a3 sb	a5, -1(s1)
[1;34m[src/memory/paddr.c:97 mtrace_log] R: 0x8000212c (len=4) data=0xfe9718e3[0m
0x8000212c: fe 97 18 e3 bne	a4, s1, -0x10
[1;34m[src/memory/paddr.c:97 mtrace_log] R: 0x8000211c (len=4) data=0x000dc783[0m
[1;34m[src/memory/paddr.c:97 mtrace_log] R: 0x80002963 (len=1) data=0x00000065[0m
0x8000211c: 00 0d c7 83 lbu	a5, 0(s11)
[1;34m[src/memory/paddr.c:97 mtrace_log] R: 0x80002120 (len=4) data=0x00148493[0m
0x80002120: 00 14 84 93 addi	s1, s1, 1
[1;34m[src/memory/paddr.c:97 mtrace_log] R: 0x80002124 (len=4) data=0x001d8d93[0m
0x80002124: 00 1d 8d 93 addi	s11, s11, 1
[1;34m[src/memory/paddr.c:97 mtrace_log] R: 0x80002128 (len=4) data=0xfef48fa3[0m
[1;34m[src/memory/paddr.c:97 mtrace_log] W: 0x80095524 (len=1) data=0x00000065[0m
0x80002128: fe f4 8f a3 sb	a5, -1(s1)
[1;34m[src/memory/paddr.c:97 mtrace_log] R: 0x8000212c (len=4) data=0xfe9718e3[0m
0x8000212c: fe 97 18 e3 bne	a4, s1, -0x10
[1;34m[src/memory/paddr.c:97 mtrace_log] R: 0x8000211c (len=4) data=0x000dc783[0m
[1;34m[src/memory/paddr.c:97 mtrace_log] R: 0x80002964 (len=1) data=0x00000072[0m
0x8000211c: 00 0d c7 83 lbu	a5, 0(s11)
[1;34m[src/memory/paddr.c:97 mtrace_log] R: 0x80002120 (len=4) data=0x00148493[0m
0x80002120: 00 14 84 93 addi	s1, s1, 1
[1;34m[src/memory/paddr.c:97 mtrace_log] R: 0x80002124 (len=4) data=0x001d8d93[0m
0x80002124: 00 1d 8d 93 addi	s11, s11, 1
[1;34m[src/memory/paddr.c:97 mtrace_log] R: 0x80002128 (len=4) data=0xfef48fa3[0m
[1;34m[src/memory/paddr.c:97 mtrace_log] W: 0x80095525 (len=1) data=0x00000072[0m
0x80002128: fe f4 8f a3 sb	a5, -1(s1)
[1;34m[src/memory/paddr.c:97 mtrace_log] R: 0x8000212c (len=4) data=0xfe9718e3[0m
0x8000212c: fe 97 18 e3 bne	a4, s1, -0x10
[1;34m[src/memory/paddr.c:97 mtrace_log] R: 0x8000211c (len=4) data=0x000dc783[0m
[1;34m[src/memory/paddr.c:97 mtrace_log] R: 0x80002965 (len=1) data=0x00000072[0m
0x8000211c: 00 0d c7 83 lbu	a5, 0(s11)
[1;34m[src/memory/paddr.c:97 mtrace_log] R: 0x80002120 (len=4) data=0x00148493[0m
0x80002120: 00 14 84 93 addi	s1, s1, 1
[1;34m[src/memory/paddr.c:97 mtrace_log] R: 0x80002124 (len=4) data=0x001d8d93[0m
0x80002124: 00 1d 8d 93 addi	s11, s11, 1
[1;34m[src/memory/paddr.c:97 mtrace_log] R: 0x80002128 (len=4) data=0xfef48fa3[0m
[1;34m[src/memory/paddr.c:97 mtrace_log] W: 0x80095526 (len=1) data=0x00000072[0m
0x80002128: fe f4 8f a3 sb	a5, -1(s1)
[1;34m[src/memory/paddr.c:97 mtrace_log] R: 0x8000212c (len=4) data=0xfe9718e3[0m
0x8000212c: fe 97 18 e3 bne	a4, s1, -0x10
[1;34m[src/memory/paddr.c:97 mtrace_log] R: 0x8000211c (len=4) data=0x000dc783[0m
[1;34m[src/memory/paddr.c:97 mtrace_log] R: 0x80002966 (len=1) data=0x00000075[0m
0x8000211c: 00 0d c7 83 lbu	a5, 0(s11)
[1;34m[src/memory/paddr.c:97 mtrace_log] R: 0x80002120 (len=4) data=0x00148493[0m
0x80002120: 00 14 84 93 addi	s1, s1, 1
[1;34m[src/memory/paddr.c:97 mtrace_log] R: 0x80002124 (len=4) data=0x001d8d93[0m
0x80002124: 00 1d 8d 93 addi	s11, s11, 1
[1;34m[src/memory/paddr.c:97 mtrace_log] R: 0x80002128 (len=4) data=0xfef48fa3[0m
[1;34m[src/memory/paddr.c:97 mtrace_log] W: 0x80095527 (len=1) data=0x00000075[0m
0x80002128: fe f4 8f a3 sb	a5, -1(s1)
[1;34m[src/memory/paddr.c:97 mtrace_log] R: 0x8000212c (len=4) data=0xfe9718e3[0m
0x8000212c: fe 97 18 e3 bne	a4, s1, -0x10
[1;34m[src/memory/paddr.c:97 mtrace_log] R: 0x8000211c (len=4) data=0x000dc783[0m
[1;34m[src/memory/paddr.c:97 mtrace_log] R: 0x80002967 (len=1) data=0x00000070[0m
0x8000211c: 00 0d c7 83 lbu	a5, 0(s11)
[1;34m[src/memory/paddr.c:97 mtrace_log] R: 0x80002120 (len=4) data=0x00148493[0m
0x80002120: 00 14 84 93 addi	s1, s1, 1
[1;34m[src/memory/paddr.c:97 mtrace_log] R: 0x80002124 (len=4) data=0x001d8d93[0m
0x80002124: 00 1d 8d 93 addi	s11, s11, 1
[1;34m[src/memory/paddr.c:97 mtrace_log] R: 0x80002128 (len=4) data=0xfef48fa3[0m
[1;34m[src/memory/paddr.c:97 mtrace_log] W: 0x80095528 (len=1) data=0x00000070[0m
0x80002128: fe f4 8f a3 sb	a5, -1(s1)
[1;34m[src/memory/paddr.c:97 mtrace_log] R: 0x8000212c (len=4) data=0xfe9718e3[0m
0x8000212c: fe 97 18 e3 bne	a4, s1, -0x10
[1;34m[src/memory/paddr.c:97 mtrace_log] R: 0x8000211c (len=4) data=0x000dc783[0m
[1;34m[src/memory/paddr.c:97 mtrace_log] R: 0x80002968 (len=1) data=0x00000074[0m
0x8000211c: 00 0d c7 83 lbu	a5, 0(s11)
[1;34m[src/memory/paddr.c:97 mtrace_log] R: 0x80002120 (len=4) data=0x00148493[0m
0x80002120: 00 14 84 93 addi	s1, s1, 1
[1;34m[src/memory/paddr.c:97 mtrace_log] R: 0x80002124 (len=4) data=0x001d8d93[0m
0x80002124: 00 1d 8d 93 addi	s11, s11, 1
[1;34m[src/memory/paddr.c:97 mtrace_log] R: 0x80002128 (len=4) data=0xfef48fa3[0m
[1;34m[src/memory/paddr.c:97 mtrace_log] W: 0x80095529 (len=1) data=0x00000074[0m
0x80002128: fe f4 8f a3 sb	a5, -1(s1)
[1;34m[src/memory/paddr.c:97 mtrace_log] R: 0x8000212c (len=4) data=0xfe9718e3[0m
0x8000212c: fe 97 18 e3 bne	a4, s1, -0x10
[1;34m[src/memory/paddr.c:97 mtrace_log] R: 0x8000211c (len=4) data=0x000dc783[0m
[1;34m[src/memory/paddr.c:97 mtrace_log] R: 0x80002969 (len=1) data=0x0000002f[0m
0x8000211c: 00 0d c7 83 lbu	a5, 0(s11)
[1;34m[src/memory/paddr.c:97 mtrace_log] R: 0x80002120 (len=4) data=0x00148493[0m
0x80002120: 00 14 84 93 addi	s1, s1, 1
[1;34m[src/memory/paddr.c:97 mtrace_log] R: 0x80002124 (len=4) data=0x001d8d93[0m
0x80002124: 00 1d 8d 93 addi	s11, s11, 1
[1;34m[src/memory/paddr.c:97 mtrace_log] R: 0x80002128 (len=4) data=0xfef48fa3[0m
[1;34m[src/memory/paddr.c:97 mtrace_log] W: 0x8009552a (len=1) data=0x0000002f[0m
0x80002128: fe f4 8f a3 sb	a5, -1(s1)
[1;34m[src/memory/paddr.c:97 mtrace_log] R: 0x8000212c (len=4) data=0xfe9718e3[0m
0x8000212c: fe 97 18 e3 bne	a4, s1, -0x10
[1;34m[src/memory/paddr.c:97 mtrace_log] R: 0x8000211c (len=4) data=0x000dc783[0m
[1;34m[src/memory/paddr.c:97 mtrace_log] R: 0x8000296a (len=1) data=0x00000079[0m
0x8000211c: 00 0d c7 83 lbu	a5, 0(s11)
[1;34m[src/memory/paddr.c:97 mtrace_log] R: 0x80002120 (len=4) data=0x00148493[0m
0x80002120: 00 14 84 93 addi	s1, s1, 1
[1;34m[src/memory/paddr.c:97 mtrace_log] R: 0x80002124 (len=4) data=0x001d8d93[0m
0x80002124: 00 1d 8d 93 addi	s11, s11, 1
[1;34m[src/memory/paddr.c:97 mtrace_log] R: 0x80002128 (len=4) data=0xfef48fa3[0m
[1;34m[src/memory/paddr.c:97 mtrace_log] W: 0x8009552b (len=1) data=0x00000079[0m
0x80002128: fe f4 8f a3 sb	a5, -1(s1)
[1;34m[src/memory/paddr.c:97 mtrace_log] R: 0x8000212c (len=4) data=0xfe9718e3[0m
0x8000212c: fe 97 18 e3 bne	a4, s1, -0x10
[1;34m[src/memory/paddr.c:97 mtrace_log] R: 0x8000211c (len=4) data=0x000dc783[0m
[1;34m[src/memory/paddr.c:97 mtrace_log] R: 0x8000296b (len=1) data=0x00000069[0m
0x8000211c: 00 0d c7 83 lbu	a5, 0(s11)
[1;34m[src/memory/paddr.c:97 mtrace_log] R: 0x80002120 (len=4) data=0x00148493[0m
0x80002120: 00 14 84 93 addi	s1, s1, 1
[1;34m[src/memory/paddr.c:97 mtrace_log] R: 0x80002124 (len=4) data=0x001d8d93[0m
0x80002124: 00 1d 8d 93 addi	s11, s11, 1
[1;34m[src/memory/paddr.c:97 mtrace_log] R: 0x80002128 (len=4) data=0xfef48fa3[0m
[1;34m[src/memory/paddr.c:97 mtrace_log] W: 0x8009552c (len=1) data=0x00000069[0m
0x80002128: fe f4 8f a3 sb	a5, -1(s1)
[1;34m[src/memory/paddr.c:97 mtrace_log] R: 0x8000212c (len=4) data=0xfe9718e3[0m
0x8000212c: fe 97 18 e3 bne	a4, s1, -0x10
[1;34m[src/memory/paddr.c:97 mtrace_log] R: 0x8000211c (len=4) data=0x000dc783[0m
[1;34m[src/memory/paddr.c:97 mtrace_log] R: 0x8000296c (len=1) data=0x00000065[0m
0x8000211c: 00 0d c7 83 lbu	a5, 0(s11)
[1;34m[src/memory/paddr.c:97 mtrace_log] R: 0x80002120 (len=4) data=0x00148493[0m
0x80002120: 00 14 84 93 addi	s1, s1, 1
[1;34m[src/memory/paddr.c:97 mtrace_log] R: 0x80002124 (len=4) data=0x001d8d93[0m
0x80002124: 00 1d 8d 93 addi	s11, s11, 1
[1;34m[src/memory/paddr.c:97 mtrace_log] R: 0x80002128 (len=4) data=0xfef48fa3[0m
[1;34m[src/memory/paddr.c:97 mtrace_log] W: 0x8009552d (len=1) data=0x00000065[0m
0x80002128: fe f4 8f a3 sb	a5, -1(s1)
[1;34m[src/memory/paddr.c:97 mtrace_log] R: 0x8000212c (len=4) data=0xfe9718e3[0m
0x8000212c: fe 97 18 e3 bne	a4, s1, -0x10
[1;34m[src/memory/paddr.c:97 mtrace_log] R: 0x8000211c (len=4) data=0x000dc783[0m
[1;34m[src/memory/paddr.c:97 mtrace_log] R: 0x8000296d (len=1) data=0x0000006c[0m
0x8000211c: 00 0d c7 83 lbu	a5, 0(s11)
[1;34m[src/memory/paddr.c:97 mtrace_log] R: 0x80002120 (len=4) data=0x00148493[0m
0x80002120: 00 14 84 93 addi	s1, s1, 1
[1;34m[src/memory/paddr.c:97 mtrace_log] R: 0x80002124 (len=4) data=0x001d8d93[0m
0x80002124: 00 1d 8d 93 addi	s11, s11, 1
[1;34m[src/memory/paddr.c:97 mtrace_log] R: 0x80002128 (len=4) data=0xfef48fa3[0m
[1;34m[src/memory/paddr.c:97 mtrace_log] W: 0x8009552e (len=1) data=0x0000006c[0m
0x80002128: fe f4 8f a3 sb	a5, -1(s1)
[1;34m[src/memory/paddr.c:97 mtrace_log] R: 0x8000212c (len=4) data=0xfe9718e3[0m
0x8000212c: fe 97 18 e3 bne	a4, s1, -0x10
[1;34m[src/memory/paddr.c:97 mtrace_log] R: 0x8000211c (len=4) data=0x000dc783[0m
[1;34m[src/memory/paddr.c:97 mtrace_log] R: 0x8000296e (len=1) data=0x00000064[0m
0x8000211c: 00 0d c7 83 lbu	a5, 0(s11)
[1;34m[src/memory/paddr.c:97 mtrace_log] R: 0x80002120 (len=4) data=0x00148493[0m
0x80002120: 00 14 84 93 addi	s1, s1, 1
[1;34m[src/memory/paddr.c:97 mtrace_log] R: 0x80002124 (len=4) data=0x001d8d93[0m
0x80002124: 00 1d 8d 93 addi	s11, s11, 1
[1;34m[src/memory/paddr.c:97 mtrace_log] R: 0x80002128 (len=4) data=0xfef48fa3[0m
[1;34m[src/memory/paddr.c:97 mtrace_log] W: 0x8009552f (len=1) data=0x00000064[0m
0x80002128: fe f4 8f a3 sb	a5, -1(s1)
[1;34m[src/memory/paddr.c:97 mtrace_log] R: 0x8000212c (len=4) data=0xfe9718e3[0m
0x8000212c: fe 97 18 e3 bne	a4, s1, -0x10
[1;34m[src/memory/paddr.c:97 mtrace_log] R: 0x8000211c (len=4) data=0x000dc783[0m
[1;34m[src/memory/paddr.c:97 mtrace_log] R: 0x8000296f (len=1) data=0x00000020[0m
0x8000211c: 00 0d c7 83 lbu	a5, 0(s11)
[1;34m[src/memory/paddr.c:97 mtrace_log] R: 0x80002120 (len=4) data=0x00148493[0m
0x80002120: 00 14 84 93 addi	s1, s1, 1
[1;34m[src/memory/paddr.c:97 mtrace_log] R: 0x80002124 (len=4) data=0x001d8d93[0m
0x80002124: 00 1d 8d 93 addi	s11, s11, 1
[1;34m[src/memory/paddr.c:97 mtrace_log] R: 0x80002128 (len=4) data=0xfef48fa3[0m
[1;34m[src/memory/paddr.c:97 mtrace_log] W: 0x80095530 (len=1) data=0x00000020[0m
0x80002128: fe f4 8f a3 sb	a5, -1(s1)
[1;34m[src/memory/paddr.c:97 mtrace_log] R: 0x8000212c (len=4) data=0xfe9718e3[0m
0x8000212c: fe 97 18 e3 bne	a4, s1, -0x10
[1;34m[src/memory/paddr.c:97 mtrace_log] R: 0x8000211c (len=4) data=0x000dc783[0m
[1;34m[src/memory/paddr.c:97 mtrace_log] R: 0x80002970 (len=1) data=0x00000074[0m
0x8000211c: 00 0d c7 83 lbu	a5, 0(s11)
[1;34m[src/memory/paddr.c:97 mtrace_log] R: 0x80002120 (len=4) data=0x00148493[0m
0x80002120: 00 14 84 93 addi	s1, s1, 1
[1;34m[src/memory/paddr.c:97 mtrace_log] R: 0x80002124 (len=4) data=0x001d8d93[0m
0x80002124: 00 1d 8d 93 addi	s11, s11, 1
[1;34m[src/memory/paddr.c:97 mtrace_log] R: 0x80002128 (len=4) data=0xfef48fa3[0m
[1;34m[src/memory/paddr.c:97 mtrace_log] W: 0x80095531 (len=1) data=0x00000074[0m
0x80002128: fe f4 8f a3 sb	a5, -1(s1)
[1;34m[src/memory/paddr.c:97 mtrace_log] R: 0x8000212c (len=4) data=0xfe9718e3[0m
0x8000212c: fe 97 18 e3 bne	a4, s1, -0x10
[1;34m[src/memory/paddr.c:97 mtrace_log] R: 0x8000211c (len=4) data=0x000dc783[0m
[1;34m[src/memory/paddr.c:97 mtrace_log] R: 0x80002971 (len=1) data=0x00000065[0m
0x8000211c: 00 0d c7 83 lbu	a5, 0(s11)
[1;34m[src/memory/paddr.c:97 mtrace_log] R: 0x80002120 (len=4) data=0x00148493[0m
0x80002120: 00 14 84 93 addi	s1, s1, 1
[1;34m[src/memory/paddr.c:97 mtrace_log] R: 0x80002124 (len=4) data=0x001d8d93[0m
0x80002124: 00 1d 8d 93 addi	s11, s11, 1
[1;34m[src/memory/paddr.c:97 mtrace_log] R: 0x80002128 (len=4) data=0xfef48fa3[0m
[1;34m[src/memory/paddr.c:97 mtrace_log] W: 0x80095532 (len=1) data=0x00000065[0m
0x80002128: fe f4 8f a3 sb	a5, -1(s1)
[1;34m[src/memory/paddr.c:97 mtrace_log] R: 0x8000212c (len=4) data=0xfe9718e3[0m
0x8000212c: fe 97 18 e3 bne	a4, s1, -0x10
[1;34m[src/memory/paddr.c:97 mtrace_log] R: 0x8000211c (len=4) data=0x000dc783[0m
[1;34m[src/memory/paddr.c:97 mtrace_log] R: 0x80002972 (len=1) data=0x00000073[0m
0x8000211c: 00 0d c7 83 lbu	a5, 0(s11)
[1;34m[src/memory/paddr.c:97 mtrace_log] R: 0x80002120 (len=4) data=0x00148493[0m
0x80002120: 00 14 84 93 addi	s1, s1, 1
[1;34m[src/memory/paddr.c:97 mtrace_log] R: 0x80002124 (len=4) data=0x001d8d93[0m
0x80002124: 00 1d 8d 93 addi	s11, s11, 1
[1;34m[src/memory/paddr.c:97 mtrace_log] R: 0x80002128 (len=4) data=0xfef48fa3[0m
[1;34m[src/memory/paddr.c:97 mtrace_log] W: 0x80095533 (len=1) data=0x00000073[0m
0x80002128: fe f4 8f a3 sb	a5, -1(s1)
[1;34m[src/memory/paddr.c:97 mtrace_log] R: 0x8000212c (len=4) data=0xfe9718e3[0m
0x8000212c: fe 97 18 e3 bne	a4, s1, -0x10
[1;34m[src/memory/paddr.c:97 mtrace_log] R: 0x8000211c (len=4) data=0x000dc783[0m
[1;34m[src/memory/paddr.c:97 mtrace_log] R: 0x80002973 (len=1) data=0x00000074[0m
0x8000211c: 00 0d c7 83 lbu	a5, 0(s11)
[1;34m[src/memory/paddr.c:97 mtrace_log] R: 0x80002120 (len=4) data=0x00148493[0m
0x80002120: 00 14 84 93 addi	s1, s1, 1
[1;34m[src/memory/paddr.c:97 mtrace_log] R: 0x80002124 (len=4) data=0x001d8d93[0m
0x80002124: 00 1d 8d 93 addi	s11, s11, 1
[1;34m[src/memory/paddr.c:97 mtrace_log] R: 0x80002128 (len=4) data=0xfef48fa3[0m
[1;34m[src/memory/paddr.c:97 mtrace_log] W: 0x80095534 (len=1) data=0x00000074[0m
0x80002128: fe f4 8f a3 sb	a5, -1(s1)
[1;34m[src/memory/paddr.c:97 mtrace_log] R: 0x8000212c (len=4) data=0xfe9718e3[0m
0x8000212c: fe 97 18 e3 bne	a4, s1, -0x10
[1;34m[src/memory/paddr.c:97 mtrace_log] R: 0x80002130 (len=4) data=0x40a684b3[0m
0x80002130: 40 a6 84 b3 sub	s1, a3, a0
[1;34m[src/memory/paddr.c:97 mtrace_log] R: 0x80002134 (len=4) data=0x00140593[0m
0x80002134: 00 14 05 93 addi	a1, s0, 1
[1;34m[src/memory/paddr.c:97 mtrace_log] R: 0x80002138 (len=4) data=0x009704b3[0m
0x80002138: 00 97 04 b3 add	s1, a4, s1
[1;34m[src/memory/paddr.c:97 mtrace_log] R: 0x8000213c (len=4) data=0x02000793[0m
0x8000213c: 02 00 07 93 addi	a5, zero, 0x20
[1;34m[src/memory/paddr.c:97 mtrace_log] R: 0x80002140 (len=4) data=0x16d55663[0m
0x80002140: 16 d5 56 63 bge	a0, a3, 0x16c
[1;34m[src/memory/paddr.c:97 mtrace_log] R: 0x800022ac (len=4) data=0x00144783[0m
[1;34m[src/memory/paddr.c:97 mtrace_log] R: 0x8000291c (len=1) data=0x0000000a[0m
0x800022ac: 00 14 47 83 lbu	a5, 1(s0)
[1;34m[src/memory/paddr.c:97 mtrace_log] R: 0x800022b0 (len=4) data=0x01c12d83[0m
[1;34m[src/memory/paddr.c:97 mtrace_log] R: 0x8009df5c (len=4) data=0x00000000[0m
0x800022b0: 01 c1 2d 83 lw	s11, 0x1c(sp)
[1;34m[src/memory/paddr.c:97 mtrace_log] R: 0x800022b4 (len=4) data=0x00070493[0m
0x800022b4: 00 07 04 93 mv	s1, a4
[1;34m[src/memory/paddr.c:97 mtrace_log] R: 0x800022b8 (len=4) data=0xbc0792e3[0m
0x800022b8: bc 07 92 e3 bnez	a5, -0x43c
[1;34m[src/memory/paddr.c:97 mtrace_log] R: 0x80001e7c (len=4) data=0x05578c63[0m
0x80001e7c: 05 57 8c 63 beq	a5, s5, 0x58
[1;34m[src/memory/paddr.c:97 mtrace_log] R: 0x80001e80 (len=4) data=0x00f48023[0m
[1;34m[src/memory/paddr.c:97 mtrace_log] W: 0x80095535 (len=1) data=0x0000000a[0m
0x80001e80: 00 f4 80 23 sb	a5, 0(s1)
[1;34m[src/memory/paddr.c:97 mtrace_log] R: 0x80001e84 (len=4) data=0x0015c783[0m
[1;34m[src/memory/paddr.c:97 mtrace_log] R: 0x8000291d (len=1) data=0x00000000[0m
0x80001e84: 00 15 c7 83 lbu	a5, 1(a1)
[1;34m[src/memory/paddr.c:97 mtrace_log] R: 0x80001e88 (len=4) data=0x00148493[0m
0x80001e88: 00 14 84 93 addi	s1, s1, 1
[1;34m[src/memory/paddr.c:97 mtrace_log] R: 0x80001e8c (len=4) data=0x00158593[0m
0x80001e8c: 00 15 85 93 addi	a1, a1, 1
[1;34m[src/memory/paddr.c:97 mtrace_log] R: 0x80001e90 (len=4) data=0xfe0796e3[0m
0x80001e90: fe 07 96 e3 bnez	a5, -0x14
[1;34m[src/memory/paddr.c:97 mtrace_log] R: 0x80001e94 (len=4) data=0x04812403[0m
[1;34m[src/memory/paddr.c:97 mtrace_log] R: 0x8009df88 (len=4) data=0x00000069[0m
0x80001e94: 04 81 24 03 lw	s0, 0x48(sp)
[1;34m[src/memory/paddr.c:97 mtrace_log] R: 0x80001e98 (len=4) data=0x04012903[0m
[1;34m[src/memory/paddr.c:97 mtrace_log] R: 0x8009df80 (len=4) data=0x00000100[0m
0x80001e98: 04 01 29 03 lw	s2, 0x40(sp)
[1;34m[src/memory/paddr.c:97 mtrace_log] R: 0x80001e9c (len=4) data=0x03c12983[0m
[1;34m[src/memory/paddr.c:97 mtrace_log] R: 0x8009df7c (len=4) data=0x80002914[0m
0x80001e9c: 03 c1 29 83 lw	s3, 0x3c(sp)
[1;34m[src/memory/paddr.c:97 mtrace_log] R: 0x80001ea0 (len=4) data=0x03812a03[0m
[1;34m[src/memory/paddr.c:97 mtrace_log] R: 0x8009df78 (len=4) data=0x00000000[0m
0x80001ea0: 03 81 2a 03 lw	s4, 0x38(sp)
[1;34m[src/memory/paddr.c:97 mtrace_log] R: 0x80001ea4 (len=4) data=0x03412a83[0m
[1;34m[src/memory/paddr.c:97 mtrace_log] R: 0x8009df74 (len=4) data=0x00000000[0m
0x80001ea4: 03 41 2a 83 lw	s5, 0x34(sp)
[1;34m[src/memory/paddr.c:97 mtrace_log] R: 0x80001ea8 (len=4) data=0x02c12b83[0m
[1;34m[src/memory/paddr.c:97 mtrace_log] R: 0x8009df6c (len=4) data=0x00000000[0m
0x80001ea8: 02 c1 2b 83 lw	s7, 0x2c(sp)
[1;34m[src/memory/paddr.c:97 mtrace_log] R: 0x80001eac (len=4) data=0x02812c03[0m
[1;34m[src/memory/paddr.c:97 mtrace_log] R: 0x8009df68 (len=4) data=0x00000000[0m
0x80001eac: 02 81 2c 03 lw	s8, 0x28(sp)
[1;34m[src/memory/paddr.c:97 mtrace_log] R: 0x80001eb0 (len=4) data=0x02412c83[0m
[1;34m[src/memory/paddr.c:97 mtrace_log] R: 0x8009df64 (len=4) data=0x00000000[0m
0x80001eb0: 02 41 2c 83 lw	s9, 0x24(sp)
[1;34m[src/memory/paddr.c:97 mtrace_log] R: 0x80001eb4 (len=4) data=0x02012d03[0m
[1;34m[src/memory/paddr.c:97 mtrace_log] R: 0x8009df60 (len=4) data=0x00000000[0m
0x80001eb4: 02 01 2d 03 lw	s10, 0x20(sp)
[1;34m[src/memory/paddr.c:97 mtrace_log] R: 0x80001eb8 (len=4) data=0x00048023[0m
[1;34m[src/memory/paddr.c:97 mtrace_log] W: 0x80095536 (len=1) data=0x00000000[0m
0x80001eb8: 00 04 80 23 sb	zero, 0(s1)
[1;34m[src/memory/paddr.c:97 mtrace_log] R: 0x80001ebc (len=4) data=0x04c12083[0m
[1;34m[src/memory/paddr.c:97 mtrace_log] R: 0x8009df8c (len=4) data=0x80002340[0m
0x80001ebc: 04 c1 20 83 lw	ra, 0x4c(sp)
[1;34m[src/memory/paddr.c:97 mtrace_log] R: 0x80001ec0 (len=4) data=0x41648533[0m
0x80001ec0: 41 64 85 33 sub	a0, s1, s6
[1;34m[src/memory/paddr.c:97 mtrace_log] R: 0x80001ec4 (len=4) data=0x04412483[0m
[1;34m[src/memory/paddr.c:97 mtrace_log] R: 0x8009df84 (len=4) data=0x80002e9c[0m
0x80001ec4: 04 41 24 83 lw	s1, 0x44(sp)
[1;34m[src/memory/paddr.c:97 mtrace_log] R: 0x80001ec8 (len=4) data=0x03012b03[0m
[1;34m[src/memory/paddr.c:97 mtrace_log] R: 0x8009df70 (len=4) data=0x00000000[0m
0x80001ec8: 03 01 2b 03 lw	s6, 0x30(sp)
[1;34m[src/memory/paddr.c:97 mtrace_log] R: 0x80001ecc (len=4) data=0x05010113[0m
0x80001ecc: 05 01 01 13 addi	sp, sp, 0x50
[1;34m[src/memory/paddr.c:97 mtrace_log] R: 0x80001ed0 (len=4) data=0x00008067[0m
0x80001ed0: 00 00 80 67 ret
[1;34m[src/memory/paddr.c:97 mtrace_log] R: 0x80002340 (len=4) data=0x00093797[0m
0x80002340: 00 09 37 97 auipc	a5, 0x93
[1;34m[src/memory/paddr.c:97 mtrace_log] R: 0x80002344 (len=4) data=0x1dc78793[0m
0x80002344: 1d c7 87 93 addi	a5, a5, 0x1dc
[1;34m[src/memory/paddr.c:97 mtrace_log] R: 0x80002348 (len=4) data=0x0007c703[0m
[1;34m[src/memory/paddr.c:97 mtrace_log] R: 0x8009551c (len=1) data=0x00000020[0m
0x80002348: 00 07 c7 03 lbu	a4, 0(a5)
[1;34m[src/memory/paddr.c:97 mtrace_log] R: 0x8000234c (len=4) data=0x00070e63[0m
0x8000234c: 00 07 0e 63 beqz	a4, 0x1c
[1;34m[src/memory/paddr.c:97 mtrace_log] R: 0x80002350 (len=4) data=0xa00006b7[0m
0x80002350: a0 00 06 b7 lui	a3, 0xa0000
[1;34m[src/memory/paddr.c:97 mtrace_log] R: 0x80002354 (len=4) data=0x3f868693[0m
0x80002354: 3f 86 86 93 addi	a3, a3, 0x3f8
[1;34m[src/memory/paddr.c:97 mtrace_log] R: 0x80002358 (len=4) data=0x00178793[0m
0x80002358: 00 17 87 93 addi	a5, a5, 1
[1;34m[src/memory/paddr.c:97 mtrace_log] R: 0x8000235c (len=4) data=0x00e68023[0m
[1;34m[src/memory/paddr.c:97 mtrace_log] W: 0xa00003f8 (len=1) data=0x00000020[0m
0x8000235c: 00 e6 80 23 sb	a4, 0(a3)
[1;34m[src/memory/paddr.c:97 mtrace_log] R: 0x80002360 (len=4) data=0x0007c703[0m
[1;34m[src/memory/paddr.c:97 mtrace_log] R: 0x8009551d (len=1) data=0x00000020[0m
0x80002360: 00 07 c7 03 lbu	a4, 0(a5)
[1;34m[src/memory/paddr.c:97 mtrace_log] R: 0x80002364 (len=4) data=0xfe071ae3[0m
0x80002364: fe 07 1a e3 bnez	a4, -0xc
[1;34m[src/memory/paddr.c:97 mtrace_log] R: 0x80002358 (len=4) data=0x00178793[0m
0x80002358: 00 17 87 93 addi	a5, a5, 1
[1;34m[src/memory/paddr.c:97 mtrace_log] R: 0x8000235c (len=4) data=0x00e68023[0m
[1;34m[src/memory/paddr.c:97 mtrace_log] W: 0xa00003f8 (len=1) data=0x00000020[0m
0x8000235c: 00 e6 80 23 sb	a4, 0(a3)
[1;34m[src/memory/paddr.c:97 mtrace_log] R: 0x80002360 (len=4) data=0x0007c703[0m
[1;34m[src/memory/paddr.c:97 mtrace_log] R: 0x8009551e (len=1) data=0x00000069[0m
0x80002360: 00 07 c7 03 lbu	a4, 0(a5)
[1;34m[src/memory/paddr.c:97 mtrace_log] R: 0x80002364 (len=4) data=0xfe071ae3[0m
0x80002364: fe 07 1a e3 bnez	a4, -0xc
[1;34m[src/memory/paddr.c:97 mtrace_log] R: 0x80002358 (len=4) data=0x00178793[0m
0x80002358: 00 17 87 93 addi	a5, a5, 1
[1;34m[src/memory/paddr.c:97 mtrace_log] R: 0x8000235c (len=4) data=0x00e68023[0m
[1;34m[src/memory/paddr.c:97 mtrace_log] W: 0xa00003f8 (len=1) data=0x00000069[0m
0x8000235c: 00 e6 80 23 sb	a4, 0(a3)
[1;34m[src/memory/paddr.c:97 mtrace_log] R: 0x80002360 (len=4) data=0x0007c703[0m
[1;34m[src/memory/paddr.c:97 mtrace_log] R: 0x8009551f (len=1) data=0x0000003a[0m
0x80002360: 00 07 c7 03 lbu	a4, 0(a5)
[1;34m[src/memory/paddr.c:97 mtrace_log] R: 0x80002364 (len=4) data=0xfe071ae3[0m
0x80002364: fe 07 1a e3 bnez	a4, -0xc
[1;34m[src/memory/paddr.c:97 mtrace_log] R: 0x80002358 (len=4) data=0x00178793[0m
0x80002358: 00 17 87 93 addi	a5, a5, 1
[1;34m[src/memory/paddr.c:97 mtrace_log] R: 0x8000235c (len=4) data=0x00e68023[0m
[1;34m[src/memory/paddr.c:97 mtrace_log] W: 0xa00003f8 (len=1) data=0x0000003a[0m
0x8000235c: 00 e6 80 23 sb	a4, 0(a3)
[1;34m[src/memory/paddr.c:97 mtrace_log] R: 0x80002360 (len=4) data=0x0007c703[0m
[1;34m[src/memory/paddr.c:97 mtrace_log] R: 0x80095520 (len=1) data=0x00000020[0m
0x80002360: 00 07 c7 03 lbu	a4, 0(a5)
[1;34m[src/memory/paddr.c:97 mtrace_log] R: 0x80002364 (len=4) data=0xfe071ae3[0m
0x80002364: fe 07 1a e3 bnez	a4, -0xc
[1;34m[src/memory/paddr.c:97 mtrace_log] R: 0x80002358 (len=4) data=0x00178793[0m
0x80002358: 00 17 87 93 addi	a5, a5, 1
[1;34m[src/memory/paddr.c:97 mtrace_log] R: 0x8000235c (len=4) data=0x00e68023[0m
[1;34m[src/memory/paddr.c:97 mtrace_log] W: 0xa00003f8 (len=1) data=0x00000020[0m
0x8000235c: 00 e6 80 23 sb	a4, 0(a3)
[1;34m[src/memory/paddr.c:97 mtrace_log] R: 0x80002360 (len=4) data=0x0007c703[0m
[1;34m[src/memory/paddr.c:97 mtrace_log] R: 0x80095521 (len=1) data=0x00000069[0m
0x80002360: 00 07 c7 03 lbu	a4, 0(a5)
[1;34m[src/memory/paddr.c:97 mtrace_log] R: 0x80002364 (len=4) data=0xfe071ae3[0m
0x80002364: fe 07 1a e3 bnez	a4, -0xc
[1;34m[src/memory/paddr.c:97 mtrace_log] R: 0x80002358 (len=4) data=0x00178793[0m
0x80002358: 00 17 87 93 addi	a5, a5, 1
[1;34m[src/memory/paddr.c:97 mtrace_log] R: 0x8000235c (len=4) data=0x00e68023[0m
[1;34m[src/memory/paddr.c:97 mtrace_log] W: 0xa00003f8 (len=1) data=0x00000069[0m
0x8000235c: 00 e6 80 23 sb	a4, 0(a3)
[1;34m[src/memory/paddr.c:97 mtrace_log] R: 0x80002360 (len=4) data=0x0007c703[0m
[1;34m[src/memory/paddr.c:97 mtrace_log] R: 0x80095522 (len=1) data=0x0000006e[0m
0x80002360: 00 07 c7 03 lbu	a4, 0(a5)
[1;34m[src/memory/paddr.c:97 mtrace_log] R: 0x80002364 (len=4) data=0xfe071ae3[0m
0x80002364: fe 07 1a e3 bnez	a4, -0xc
[1;34m[src/memory/paddr.c:97 mtrace_log] R: 0x80002358 (len=4) data=0x00178793[0m
0x80002358: 00 17 87 93 addi	a5, a5, 1
[1;34m[src/memory/paddr.c:97 mtrace_log] R: 0x8000235c (len=4) data=0x00e68023[0m
[1;34m[src/memory/paddr.c:97 mtrace_log] W: 0xa00003f8 (len=1) data=0x0000006e[0m
0x8000235c: 00 e6 80 23 sb	a4, 0(a3)
[1;34m[src/memory/paddr.c:97 mtrace_log] R: 0x80002360 (len=4) data=0x0007c703[0m
[1;34m[src/memory/paddr.c:97 mtrace_log] R: 0x80095523 (len=1) data=0x00000074[0m
0x80002360: 00 07 c7 03 lbu	a4, 0(a5)
[1;34m[src/memory/paddr.c:97 mtrace_log] R: 0x80002364 (len=4) data=0xfe071ae3[0m
0x80002364: fe 07 1a e3 bnez	a4, -0xc
[1;34m[src/memory/paddr.c:97 mtrace_log] R: 0x80002358 (len=4) data=0x00178793[0m
0x80002358: 00 17 87 93 addi	a5, a5, 1
[1;34m[src/memory/paddr.c:97 mtrace_log] R: 0x8000235c (len=4) data=0x00e68023[0m
[1;34m[src/memory/paddr.c:97 mtrace_log] W: 0xa00003f8 (len=1) data=0x00000074[0m
0x8000235c: 00 e6 80 23 sb	a4, 0(a3)
[1;34m[src/memory/paddr.c:97 mtrace_log] R: 0x80002360 (len=4) data=0x0007c703[0m
[1;34m[src/memory/paddr.c:97 mtrace_log] R: 0x80095524 (len=1) data=0x00000065[0m
0x80002360: 00 07 c7 03 lbu	a4, 0(a5)
[1;34m[src/memory/paddr.c:97 mtrace_log] R: 0x80002364 (len=4) data=0xfe071ae3[0m
0x80002364: fe 07 1a e3 bnez	a4, -0xc
[1;34m[src/memory/paddr.c:97 mtrace_log] R: 0x80002358 (len=4) data=0x00178793[0m
0x80002358: 00 17 87 93 addi	a5, a5, 1
[1;34m[src/memory/paddr.c:97 mtrace_log] R: 0x8000235c (len=4) data=0x00e68023[0m
[1;34m[src/memory/paddr.c:97 mtrace_log] W: 0xa00003f8 (len=1) data=0x00000065[0m
0x8000235c: 00 e6 80 23 sb	a4, 0(a3)
[1;34m[src/memory/paddr.c:97 mtrace_log] R: 0x80002360 (len=4) data=0x0007c703[0m
[1;34m[src/memory/paddr.c:97 mtrace_log] R: 0x80095525 (len=1) data=0x00000072[0m
0x80002360: 00 07 c7 03 lbu	a4, 0(a5)
[1;34m[src/memory/paddr.c:97 mtrace_log] R: 0x80002364 (len=4) data=0xfe071ae3[0m
0x80002364: fe 07 1a e3 bnez	a4, -0xc
[1;34m[src/memory/paddr.c:97 mtrace_log] R: 0x80002358 (len=4) data=0x00178793[0m
0x80002358: 00 17 87 93 addi	a5, a5, 1
[1;34m[src/memory/paddr.c:97 mtrace_log] R: 0x8000235c (len=4) data=0x00e68023[0m
[1;34m[src/memory/paddr.c:97 mtrace_log] W: 0xa00003f8 (len=1) data=0x00000072[0m
0x8000235c: 00 e6 80 23 sb	a4, 0(a3)
[1;34m[src/memory/paddr.c:97 mtrace_log] R: 0x80002360 (len=4) data=0x0007c703[0m
[1;34m[src/memory/paddr.c:97 mtrace_log] R: 0x80095526 (len=1) data=0x00000072[0m
0x80002360: 00 07 c7 03 lbu	a4, 0(a5)
[1;34m[src/memory/paddr.c:97 mtrace_log] R: 0x80002364 (len=4) data=0xfe071ae3[0m
0x80002364: fe 07 1a e3 bnez	a4, -0xc
[1;34m[src/memory/paddr.c:97 mtrace_log] R: 0x80002358 (len=4) data=0x00178793[0m
0x80002358: 00 17 87 93 addi	a5, a5, 1
[1;34m[src/memory/paddr.c:97 mtrace_log] R: 0x8000235c (len=4) data=0x00e68023[0m
[1;34m[src/memory/paddr.c:97 mtrace_log] W: 0xa00003f8 (len=1) data=0x00000072[0m
0x8000235c: 00 e6 80 23 sb	a4, 0(a3)
[1;34m[src/memory/paddr.c:97 mtrace_log] R: 0x80002360 (len=4) data=0x0007c703[0m
[1;34m[src/memory/paddr.c:97 mtrace_log] R: 0x80095527 (len=1) data=0x00000075[0m
0x80002360: 00 07 c7 03 lbu	a4, 0(a5)
[1;34m[src/memory/paddr.c:97 mtrace_log] R: 0x80002364 (len=4) data=0xfe071ae3[0m
0x80002364: fe 07 1a e3 bnez	a4, -0xc
[1;34m[src/memory/paddr.c:97 mtrace_log] R: 0x80002358 (len=4) data=0x00178793[0m
0x80002358: 00 17 87 93 addi	a5, a5, 1
[1;34m[src/memory/paddr.c:97 mtrace_log] R: 0x8000235c (len=4) data=0x00e68023[0m
[1;34m[src/memory/paddr.c:97 mtrace_log] W: 0xa00003f8 (len=1) data=0x00000075[0m
0x8000235c: 00 e6 80 23 sb	a4, 0(a3)
[1;34m[src/memory/paddr.c:97 mtrace_log] R: 0x80002360 (len=4) data=0x0007c703[0m
[1;34m[src/memory/paddr.c:97 mtrace_log] R: 0x80095528 (len=1) data=0x00000070[0m
0x80002360: 00 07 c7 03 lbu	a4, 0(a5)
[1;34m[src/memory/paddr.c:97 mtrace_log] R: 0x80002364 (len=4) data=0xfe071ae3[0m
0x80002364: fe 07 1a e3 bnez	a4, -0xc
[1;34m[src/memory/paddr.c:97 mtrace_log] R: 0x80002358 (len=4) data=0x00178793[0m
0x80002358: 00 17 87 93 addi	a5, a5, 1
[1;34m[src/memory/paddr.c:97 mtrace_log] R: 0x8000235c (len=4) data=0x00e68023[0m
[1;34m[src/memory/paddr.c:97 mtrace_log] W: 0xa00003f8 (len=1) data=0x00000070[0m
0x8000235c: 00 e6 80 23 sb	a4, 0(a3)
[1;34m[src/memory/paddr.c:97 mtrace_log] R: 0x80002360 (len=4) data=0x0007c703[0m
[1;34m[src/memory/paddr.c:97 mtrace_log] R: 0x80095529 (len=1) data=0x00000074[0m
0x80002360: 00 07 c7 03 lbu	a4, 0(a5)
[1;34m[src/memory/paddr.c:97 mtrace_log] R: 0x80002364 (len=4) data=0xfe071ae3[0m
0x80002364: fe 07 1a e3 bnez	a4, -0xc
[1;34m[src/memory/paddr.c:97 mtrace_log] R: 0x80002358 (len=4) data=0x00178793[0m
0x80002358: 00 17 87 93 addi	a5, a5, 1
[1;34m[src/memory/paddr.c:97 mtrace_log] R: 0x8000235c (len=4) data=0x00e68023[0m
[1;34m[src/memory/paddr.c:97 mtrace_log] W: 0xa00003f8 (len=1) data=0x00000074[0m
0x8000235c: 00 e6 80 23 sb	a4, 0(a3)
[1;34m[src/memory/paddr.c:97 mtrace_log] R: 0x80002360 (len=4) data=0x0007c703[0m
[1;34m[src/memory/paddr.c:97 mtrace_log] R: 0x8009552a (len=1) data=0x0000002f[0m
0x80002360: 00 07 c7 03 lbu	a4, 0(a5)
[1;34m[src/memory/paddr.c:97 mtrace_log] R: 0x80002364 (len=4) data=0xfe071ae3[0m
0x80002364: fe 07 1a e3 bnez	a4, -0xc
[1;34m[src/memory/paddr.c:97 mtrace_log] R: 0x80002358 (len=4) data=0x00178793[0m
0x80002358: 00 17 87 93 addi	a5, a5, 1
[1;34m[src/memory/paddr.c:97 mtrace_log] R: 0x8000235c (len=4) data=0x00e68023[0m
[1;34m[src/memory/paddr.c:97 mtrace_log] W: 0xa00003f8 (len=1) data=0x0000002f[0m
0x8000235c: 00 e6 80 23 sb	a4, 0(a3)
[1;34m[src/memory/paddr.c:97 mtrace_log] R: 0x80002360 (len=4) data=0x0007c703[0m
[1;34m[src/memory/paddr.c:97 mtrace_log] R: 0x8009552b (len=1) data=0x00000079[0m
0x80002360: 00 07 c7 03 lbu	a4, 0(a5)
[1;34m[src/memory/paddr.c:97 mtrace_log] R: 0x80002364 (len=4) data=0xfe071ae3[0m
0x80002364: fe 07 1a e3 bnez	a4, -0xc
[1;34m[src/memory/paddr.c:97 mtrace_log] R: 0x80002358 (len=4) data=0x00178793[0m
0x80002358: 00 17 87 93 addi	a5, a5, 1
[1;34m[src/memory/paddr.c:97 mtrace_log] R: 0x8000235c (len=4) data=0x00e68023[0m
[1;34m[src/memory/paddr.c:97 mtrace_log] W: 0xa00003f8 (len=1) data=0x00000079[0m
0x8000235c: 00 e6 80 23 sb	a4, 0(a3)
[1;34m[src/memory/paddr.c:97 mtrace_log] R: 0x80002360 (len=4) data=0x0007c703[0m
[1;34m[src/memory/paddr.c:97 mtrace_log] R: 0x8009552c (len=1) data=0x00000069[0m
0x80002360: 00 07 c7 03 lbu	a4, 0(a5)
[1;34m[src/memory/paddr.c:97 mtrace_log] R: 0x80002364 (len=4) data=0xfe071ae3[0m
0x80002364: fe 07 1a e3 bnez	a4, -0xc
[1;34m[src/memory/paddr.c:97 mtrace_log] R: 0x80002358 (len=4) data=0x00178793[0m
0x80002358: 00 17 87 93 addi	a5, a5, 1
[1;34m[src/memory/paddr.c:97 mtrace_log] R: 0x8000235c (len=4) data=0x00e68023[0m
[1;34m[src/memory/paddr.c:97 mtrace_log] W: 0xa00003f8 (len=1) data=0x00000069[0m
0x8000235c: 00 e6 80 23 sb	a4, 0(a3)
[1;34m[src/memory/paddr.c:97 mtrace_log] R: 0x80002360 (len=4) data=0x0007c703[0m
[1;34m[src/memory/paddr.c:97 mtrace_log] R: 0x8009552d (len=1) data=0x00000065[0m
0x80002360: 00 07 c7 03 lbu	a4, 0(a5)
[1;34m[src/memory/paddr.c:97 mtrace_log] R: 0x80002364 (len=4) data=0xfe071ae3[0m
0x80002364: fe 07 1a e3 bnez	a4, -0xc
[1;34m[src/memory/paddr.c:97 mtrace_log] R: 0x80002358 (len=4) data=0x00178793[0m
0x80002358: 00 17 87 93 addi	a5, a5, 1
[1;34m[src/memory/paddr.c:97 mtrace_log] R: 0x8000235c (len=4) data=0x00e68023[0m
[1;34m[src/memory/paddr.c:97 mtrace_log] W: 0xa00003f8 (len=1) data=0x00000065[0m
0x8000235c: 00 e6 80 23 sb	a4, 0(a3)
[1;34m[src/memory/paddr.c:97 mtrace_log] R: 0x80002360 (len=4) data=0x0007c703[0m
[1;34m[src/memory/paddr.c:97 mtrace_log] R: 0x8009552e (len=1) data=0x0000006c[0m
0x80002360: 00 07 c7 03 lbu	a4, 0(a5)
[1;34m[src/memory/paddr.c:97 mtrace_log] R: 0x80002364 (len=4) data=0xfe071ae3[0m
0x80002364: fe 07 1a e3 bnez	a4, -0xc
[1;34m[src/memory/paddr.c:97 mtrace_log] R: 0x80002358 (len=4) data=0x00178793[0m
0x80002358: 00 17 87 93 addi	a5, a5, 1
[1;34m[src/memory/paddr.c:97 mtrace_log] R: 0x8000235c (len=4) data=0x00e68023[0m
[1;34m[src/memory/paddr.c:97 mtrace_log] W: 0xa00003f8 (len=1) data=0x0000006c[0m
0x8000235c: 00 e6 80 23 sb	a4, 0(a3)
[1;34m[src/memory/paddr.c:97 mtrace_log] R: 0x80002360 (len=4) data=0x0007c703[0m
[1;34m[src/memory/paddr.c:97 mtrace_log] R: 0x8009552f (len=1) data=0x00000064[0m
0x80002360: 00 07 c7 03 lbu	a4, 0(a5)
[1;34m[src/memory/paddr.c:97 mtrace_log] R: 0x80002364 (len=4) data=0xfe071ae3[0m
0x80002364: fe 07 1a e3 bnez	a4, -0xc
[1;34m[src/memory/paddr.c:97 mtrace_log] R: 0x80002358 (len=4) data=0x00178793[0m
0x80002358: 00 17 87 93 addi	a5, a5, 1
[1;34m[src/memory/paddr.c:97 mtrace_log] R: 0x8000235c (len=4) data=0x00e68023[0m
[1;34m[src/memory/paddr.c:97 mtrace_log] W: 0xa00003f8 (len=1) data=0x00000064[0m
0x8000235c: 00 e6 80 23 sb	a4, 0(a3)
[1;34m[src/memory/paddr.c:97 mtrace_log] R: 0x80002360 (len=4) data=0x0007c703[0m
[1;34m[src/memory/paddr.c:97 mtrace_log] R: 0x80095530 (len=1) data=0x00000020[0m
0x80002360: 00 07 c7 03 lbu	a4, 0(a5)
[1;34m[src/memory/paddr.c:97 mtrace_log] R: 0x80002364 (len=4) data=0xfe071ae3[0m
0x80002364: fe 07 1a e3 bnez	a4, -0xc
[1;34m[src/memory/paddr.c:97 mtrace_log] R: 0x80002358 (len=4) data=0x00178793[0m
0x80002358: 00 17 87 93 addi	a5, a5, 1
[1;34m[src/memory/paddr.c:97 mtrace_log] R: 0x8000235c (len=4) data=0x00e68023[0m
[1;34m[src/memory/paddr.c:97 mtrace_log] W: 0xa00003f8 (len=1) data=0x00000020[0m
0x8000235c: 00 e6 80 23 sb	a4, 0(a3)
[1;34m[src/memory/paddr.c:97 mtrace_log] R: 0x80002360 (len=4) data=0x0007c703[0m
[1;34m[src/memory/paddr.c:97 mtrace_log] R: 0x80095531 (len=1) data=0x00000074[0m
0x80002360: 00 07 c7 03 lbu	a4, 0(a5)
[1;34m[src/memory/paddr.c:97 mtrace_log] R: 0x80002364 (len=4) data=0xfe071ae3[0m
0x80002364: fe 07 1a e3 bnez	a4, -0xc
[1;34m[src/memory/paddr.c:97 mtrace_log] R: 0x80002358 (len=4) data=0x00178793[0m
0x80002358: 00 17 87 93 addi	a5, a5, 1
[1;34m[src/memory/paddr.c:97 mtrace_log] R: 0x8000235c (len=4) data=0x00e68023[0m
[1;34m[src/memory/paddr.c:97 mtrace_log] W: 0xa00003f8 (len=1) data=0x00000074[0m
0x8000235c: 00 e6 80 23 sb	a4, 0(a3)
[1;34m[src/memory/paddr.c:97 mtrace_log] R: 0x80002360 (len=4) data=0x0007c703[0m
[1;34m[src/memory/paddr.c:97 mtrace_log] R: 0x80095532 (len=1) data=0x00000065[0m
0x80002360: 00 07 c7 03 lbu	a4, 0(a5)
[1;34m[src/memory/paddr.c:97 mtrace_log] R: 0x80002364 (len=4) data=0xfe071ae3[0m
0x80002364: fe 07 1a e3 bnez	a4, -0xc
[1;34m[src/memory/paddr.c:97 mtrace_log] R: 0x80002358 (len=4) data=0x00178793[0m
0x80002358: 00 17 87 93 addi	a5, a5, 1
[1;34m[src/memory/paddr.c:97 mtrace_log] R: 0x8000235c (len=4) data=0x00e68023[0m
[1;34m[src/memory/paddr.c:97 mtrace_log] W: 0xa00003f8 (len=1) data=0x00000065[0m
0x8000235c: 00 e6 80 23 sb	a4, 0(a3)
[1;34m[src/memory/paddr.c:97 mtrace_log] R: 0x80002360 (len=4) data=0x0007c703[0m
[1;34m[src/memory/paddr.c:97 mtrace_log] R: 0x80095533 (len=1) data=0x00000073[0m
0x80002360: 00 07 c7 03 lbu	a4, 0(a5)
[1;34m[src/memory/paddr.c:97 mtrace_log] R: 0x80002364 (len=4) data=0xfe071ae3[0m
0x80002364: fe 07 1a e3 bnez	a4, -0xc
[1;34m[src/memory/paddr.c:97 mtrace_log] R: 0x80002358 (len=4) data=0x00178793[0m
0x80002358: 00 17 87 93 addi	a5, a5, 1
[1;34m[src/memory/paddr.c:97 mtrace_log] R: 0x8000235c (len=4) data=0x00e68023[0m
[1;34m[src/memory/paddr.c:97 mtrace_log] W: 0xa00003f8 (len=1) data=0x00000073[0m
0x8000235c: 00 e6 80 23 sb	a4, 0(a3)
[1;34m[src/memory/paddr.c:97 mtrace_log] R: 0x80002360 (len=4) data=0x0007c703[0m
[1;34m[src/memory/paddr.c:97 mtrace_log] R: 0x80095534 (len=1) data=0x00000074[0m
0x80002360: 00 07 c7 03 lbu	a4, 0(a5)
[1;34m[src/memory/paddr.c:97 mtrace_log] R: 0x80002364 (len=4) data=0xfe071ae3[0m
0x80002364: fe 07 1a e3 bnez	a4, -0xc
[1;34m[src/memory/paddr.c:97 mtrace_log] R: 0x80002358 (len=4) data=0x00178793[0m
0x80002358: 00 17 87 93 addi	a5, a5, 1
[1;34m[src/memory/paddr.c:97 mtrace_log] R: 0x8000235c (len=4) data=0x00e68023[0m
[1;34m[src/memory/paddr.c:97 mtrace_log] W: 0xa00003f8 (len=1) data=0x00000074[0m
0x8000235c: 00 e6 80 23 sb	a4, 0(a3)
[1;34m[src/memory/paddr.c:97 mtrace_log] R: 0x80002360 (len=4) data=0x0007c703[0m
[1;34m[src/memory/paddr.c:97 mtrace_log] R: 0x80095535 (len=1) data=0x0000000a[0m
0x80002360: 00 07 c7 03 lbu	a4, 0(a5)
[1;34m[src/memory/paddr.c:97 mtrace_log] R: 0x80002364 (len=4) data=0xfe071ae3[0m
0x80002364: fe 07 1a e3 bnez	a4, -0xc
[1;34m[src/memory/paddr.c:97 mtrace_log] R: 0x80002358 (len=4) data=0x00178793[0m
0x80002358: 00 17 87 93 addi	a5, a5, 1
[1;34m[src/memory/paddr.c:97 mtrace_log] R: 0x8000235c (len=4) data=0x00e68023[0m
[1;34m[src/memory/paddr.c:97 mtrace_log] W: 0xa00003f8 (len=1) data=0x0000000a[0m
0x8000235c: 00 e6 80 23 sb	a4, 0(a3)
[1;34m[src/memory/paddr.c:97 mtrace_log] R: 0x80002360 (len=4) data=0x0007c703[0m
[1;34m[src/memory/paddr.c:97 mtrace_log] R: 0x80095536 (len=1) data=0x00000000[0m
0x80002360: 00 07 c7 03 lbu	a4, 0(a5)
[1;34m[src/memory/paddr.c:97 mtrace_log] R: 0x80002364 (len=4) data=0xfe071ae3[0m
0x80002364: fe 07 1a e3 bnez	a4, -0xc
[1;34m[src/memory/paddr.c:97 mtrace_log] R: 0x80002368 (len=4) data=0x01c12083[0m
[1;34m[src/memory/paddr.c:97 mtrace_log] R: 0x8009dfac (len=4) data=0x80000e90[0m
0x80002368: 01 c1 20 83 lw	ra, 0x1c(sp)
[1;34m[src/memory/paddr.c:97 mtrace_log] R: 0x8000236c (len=4) data=0x04010113[0m
0x8000236c: 04 01 01 13 addi	sp, sp, 0x40
[1;34m[src/memory/paddr.c:97 mtrace_log] R: 0x80002370 (len=4) data=0x00008067[0m
0x80002370: 00 00 80 67 ret
[1;34m[src/memory/paddr.c:97 mtrace_log] R: 0x80000e90 (len=4) data=0x00140413[0m
0x80000e90: 00 14 04 13 addi	s0, s0, 1
[1;34m[src/memory/paddr.c:97 mtrace_log] R: 0x80000e94 (len=4) data=0x00448493[0m
0x80000e94: 00 44 84 93 addi	s1, s1, 4
[1;34m[src/memory/paddr.c:97 mtrace_log] R: 0x80000e98 (len=4) data=0xff2412e3[0m
0x80000e98: ff 24 12 e3 bne	s0, s2, -0x1c
[1;34m[src/memory/paddr.c:97 mtrace_log] R: 0x80000e7c (len=4) data=0x0004a603[0m
[1;34m[src/memory/paddr.c:97 mtrace_log] R: 0x80002ea0 (len=4) data=0x00000000[0m
0x80000e7c: 00 04 a6 03 lw	a2, 0(s1)
[1;34m[src/memory/paddr.c:97 mtrace_log] R: 0x80000e80 (len=4) data=0x00060863[0m
0x80000e80: 00 06 08 63 beqz	a2, 0x10
[1;34m[src/memory/paddr.c:97 mtrace_log] R: 0x80000e90 (len=4) data=0x00140413[0m
0x80000e90: 00 14 04 13 addi	s0, s0, 1
[1;34m[src/memory/paddr.c:97 mtrace_log] R: 0x80000e94 (len=4) data=0x00448493[0m
0x80000e94: 00 44 84 93 addi	s1, s1, 4
[1;34m[src/memory/paddr.c:97 mtrace_log] R: 0x80000e98 (len=4) data=0xff2412e3[0m
0x80000e98: ff 24 12 e3 bne	s0, s2, -0x1c
[1;34m[src/memory/paddr.c:97 mtrace_log] R: 0x80000e7c (len=4) data=0x0004a603[0m
[1;34m[src/memory/paddr.c:97 mtrace_log] R: 0x80002ea4 (len=4) data=0x80002978[0m
0x80000e7c: 00 04 a6 03 lw	a2, 0(s1)
[1;34m[src/memory/paddr.c:97 mtrace_log] R: 0x80000e80 (len=4) data=0x00060863[0m
0x80000e80: 00 06 08 63 beqz	a2, 0x10
[1;34m[src/memory/paddr.c:97 mtrace_log] R: 0x80000e84 (len=4) data=0x00040593[0m
0x80000e84: 00 04 05 93 mv	a1, s0
[1;34m[src/memory/paddr.c:97 mtrace_log] R: 0x80000e88 (len=4) data=0x00098513[0m
0x80000e88: 00 09 85 13 mv	a0, s3
[1;34m[src/memory/paddr.c:97 mtrace_log] R: 0x80000e8c (len=4) data=0x474010ef[0m
0x80000e8c: 47 40 10 ef jal	0x1474
[1;34m[src/memory/paddr.c:97 mtrace_log] R: 0x80002300 (len=4) data=0xfc010113[0m
0x80002300: fc 01 01 13 addi	sp, sp, -0x40
[1;34m[src/memory/paddr.c:97 mtrace_log] R: 0x80002304 (len=4) data=0x02410313[0m
0x80002304: 02 41 03 13 addi	t1, sp, 0x24
[1;34m[src/memory/paddr.c:97 mtrace_log] R: 0x80002308 (len=4) data=0x02b12223[0m
[1;34m[src/memory/paddr.c:97 mtrace_log] W: 0x8009dfb4 (len=4) data=0x0000006b[0m
0x80002308: 02 b1 22 23 sw	a1, 0x24(sp)
[1;34m[src/memory/paddr.c:97 mtrace_log] R: 0x8000230c (len=4) data=0x02c12423[0m
[1;34m[src/memory/paddr.c:97 mtrace_log] W: 0x8009dfb8 (len=4) data=0x80002978[0m
0x8000230c: 02 c1 24 23 sw	a2, 0x28(sp)
[1;34m[src/memory/paddr.c:97 mtrace_log] R: 0x80002310 (len=4) data=0x00050593[0m
0x80002310: 00 05 05 93 mv	a1, a0
[1;34m[src/memory/paddr.c:97 mtrace_log] R: 0x80002314 (len=4) data=0x00030613[0m
0x80002314: 00 03 06 13 mv	a2, t1
[1;34m[src/memory/paddr.c:97 mtrace_log] R: 0x80002318 (len=4) data=0x00093517[0m
0x80002318: 00 09 35 17 auipc	a0, 0x93
[1;34m[src/memory/paddr.c:97 mtrace_log] R: 0x8000231c (len=4) data=0x20450513[0m
0x8000231c: 20 45 05 13 addi	a0, a0, 0x204
[1;34m[src/memory/paddr.c:97 mtrace_log] R: 0x80002320 (len=4) data=0x02e12823[0m
[1;34m[src/memory/paddr.c:97 mtrace_log] W: 0x8009dfc0 (len=4) data=0x00000000[0m
0x80002320: 02 e1 28 23 sw	a4, 0x30(sp)
[1;34m[src/memory/paddr.c:97 mtrace_log] R: 0x80002324 (len=4) data=0x02f12a23[0m
[1;34m[src/memory/paddr.c:97 mtrace_log] W: 0x8009dfc4 (len=4) data=0x80095536[0m
0x80002324: 02 f1 2a 23 sw	a5, 0x34(sp)
[1;34m[src/memory/paddr.c:97 mtrace_log] R: 0x80002328 (len=4) data=0x00112e23[0m
[1;34m[src/memory/paddr.c:97 mtrace_log] W: 0x8009dfac (len=4) data=0x80000e90[0m
0x80002328: 00 11 2e 23 sw	ra, 0x1c(sp)
[1;34m[src/memory/paddr.c:97 mtrace_log] R: 0x8000232c (len=4) data=0x02d12623[0m
[1;34m[src/memory/paddr.c:97 mtrace_log] W: 0x8009dfbc (len=4) data=0xa00003f8[0m
0x8000232c: 02 d1 26 23 sw	a3, 0x2c(sp)
[1;34m[src/memory/paddr.c:97 mtrace_log] R: 0x80002330 (len=4) data=0x03012c23[0m
[1;34m[src/memory/paddr.c:97 mtrace_log] W: 0x8009dfc8 (len=4) data=0x800032b4[0m
0x80002330: 03 01 2c 23 sw	a6, 0x38(sp)
[1;34m[src/memory/paddr.c:97 mtrace_log] R: 0x80002334 (len=4) data=0x03112e23[0m
[1;34m[src/memory/paddr.c:97 mtrace_log] W: 0x8009dfcc (len=4) data=0x00000000[0m
0x80002334: 03 11 2e 23 sw	a7, 0x3c(sp)
[1;34m[src/memory/paddr.c:97 mtrace_log] R: 0x80002338 (len=4) data=0x00612623[0m
[1;34m[src/memory/paddr.c:97 mtrace_log] W: 0x8009df9c (len=4) data=0x8009dfb4[0m
0x80002338: 00 61 26 23 sw	t1, 0xc(sp)
[1;34m[src/memory/paddr.c:97 mtrace_log] R: 0x8000233c (len=4) data=0xad5ff0ef[0m
0x8000233c: ad 5f f0 ef jal	-0x52c
[1;34m[src/memory/paddr.c:97 mtrace_log] R: 0x80001e10 (len=4) data=0xfb010113[0m
0x80001e10: fb 01 01 13 addi	sp, sp, -0x50
[1;34m[src/memory/paddr.c:97 mtrace_log] R: 0x80001e14 (len=4) data=0x03612823[0m
[1;34m[src/memory/paddr.c:97 mtrace_log] W: 0x8009df70 (len=4) data=0x00000000[0m
0x80001e14: 03 61 28 23 sw	s6, 0x30(sp)
[1;34m[src/memory/paddr.c:97 mtrace_log] R: 0x80001e18 (len=4) data=0x04112623[0m
[1;34m[src/memory/paddr.c:97 mtrace_log] W: 0x8009df8c (len=4) data=0x80002340[0m
0x80001e18: 04 11 26 23 sw	ra, 0x4c(sp)
[1;34m[src/memory/paddr.c:97 mtrace_log] R: 0x80001e1c (len=4) data=0x04912223[0m
[1;34m[src/memory/paddr.c:97 mtrace_log] W: 0x8009df84 (len=4) data=0x80002ea4[0m
0x80001e1c: 04 91 22 23 sw	s1, 0x44(sp)
[1;34m[src/memory/paddr.c:97 mtrace_log] R: 0x80001e20 (len=4) data=0x0005c783[0m
[1;34m[src/memory/paddr.c:97 mtrace_log] R: 0x80002914 (len=1) data=0x00000020[0m
0x80001e20: 00 05 c7 83 lbu	a5, 0(a1)
[1;34m[src/memory/paddr.c:97 mtrace_log] R: 0x80001e24 (len=4) data=0x00050b13[0m
0x80001e24: 00 05 0b 13 mv	s6, a0
[1;34m[src/memory/paddr.c:97 mtrace_log] R: 0x80001e28 (len=4) data=0x44078a63[0m
0x80001e28: 44 07 8a 63 beqz	a5, 0x454
[1;34m[src/memory/paddr.c:97 mtrace_log] R: 0x80001e2c (len=4) data=0x05212023[0m
[1;34m[src/memory/paddr.c:97 mtrace_log] W: 0x8009df80 (len=4) data=0x00000100[0m
0x80001e2c: 05 21 20 23 sw	s2, 0x40(sp)
[1;34m[src/memory/paddr.c:97 mtrace_log] R: 0x80001e30 (len=4) data=0x03312e23[0m
[1;34m[src/memory/paddr.c:97 mtrace_log] W: 0x8009df7c (len=4) data=0x80002914[0m
0x80001e30: 03 31 2e 23 sw	s3, 0x3c(sp)
[1;34m[src/memory/paddr.c:97 mtrace_log] R: 0x80001e34 (len=4) data=0x03412c23[0m
[1;34m[src/memory/paddr.c:97 mtrace_log] W: 0x8009df78 (len=4) data=0x00000000[0m
0x80001e34: 03 41 2c 23 sw	s4, 0x38(sp)
[1;34m[src/memory/paddr.c:97 mtrace_log] R: 0x80001e38 (len=4) data=0x03512a23[0m
[1;34m[src/memory/paddr.c:97 mtrace_log] W: 0x8009df74 (len=4) data=0x00000000[0m
0x80001e38: 03 51 2a 23 sw	s5, 0x34(sp)
[1;34m[src/memory/paddr.c:97 mtrace_log] R: 0x80001e3c (len=4) data=0x03712623[0m
[1;34m[src/memory/paddr.c:97 mtrace_log] W: 0x8009df6c (len=4) data=0x00000000[0m
0x80001e3c: 03 71 26 23 sw	s7, 0x2c(sp)
[1;34m[src/memory/paddr.c:97 mtrace_log] R: 0x80001e40 (len=4) data=0x03812423[0m
[1;34m[src/memory/paddr.c:97 mtrace_log] W: 0x8009df68 (len=4) data=0x00000000[0m
0x80001e40: 03 81 24 23 sw	s8, 0x28(sp)
[1;34m[src/memory/paddr.c:97 mtrace_log] R: 0x80001e44 (len=4) data=0x03912223[0m
[1;34m[src/memory/paddr.c:97 mtrace_log] W: 0x8009df64 (len=4) data=0x00000000[0m
0x80001e44: 03 91 22 23 sw	s9, 0x24(sp)
[1;34m[src/memory/paddr.c:97 mtrace_log] R: 0x80001e48 (len=4) data=0x03a12023[0m
[1;34m[src/memory/paddr.c:97 mtrace_log] W: 0x8009df60 (len=4) data=0x00000000[0m
0x80001e48: 03 a1 20 23 sw	s10, 0x20(sp)
[1;34m[src/memory/paddr.c:97 mtrace_log] R: 0x80001e4c (len=4) data=0x04812423[0m
[1;34m[src/memory/paddr.c:97 mtrace_log] W: 0x8009df88 (len=4) data=0x0000006b[0m
0x80001e4c: 04 81 24 23 sw	s0, 0x48(sp)
[1;34m[src/memory/paddr.c:97 mtrace_log] R: 0x80001e50 (len=4) data=0x00060a13[0m
0x80001e50: 00 06 0a 13 mv	s4, a2
[1;34m[src/memory/paddr.c:97 mtrace_log] R: 0x80001e54 (len=4) data=0x00050493[0m
0x80001e54: 00 05 04 93 mv	s1, a0
[1;34m[src/memory/paddr.c:97 mtrace_log] R: 0x80001e58 (len=4) data=0x02500a93[0m
0x80001e58: 02 50 0a 93 addi	s5, zero, 0x25
[1;34m[src/memory/paddr.c:97 mtrace_log] R: 0x80001e5c (len=4) data=0x01000993[0m
0x80001e5c: 01 00 09 93 addi	s3, zero, 0x10
[1;34m[src/memory/paddr.c:97 mtrace_log] R: 0x80001e60 (len=4) data=0x00001917[0m
0x80001e60: 00 00 19 17 auipc	s2, 1
[1;34m[src/memory/paddr.c:97 mtrace_log] R: 0x80001e64 (len=4) data=0x2d890913[0m
0x80001e64: 2d 89 09 13 addi	s2, s2, 0x2d8
[1;34m[src/memory/paddr.c:97 mtrace_log] R: 0x80001e68 (len=4) data=0x00900d13[0m
0x80001e68: 00 90 0d 13 addi	s10, zero, 9
[1;34m[src/memory/paddr.c:97 mtrace_log] R: 0x80001e6c (len=4) data=0x02e00c93[0m
0x80001e6c: 02 e0 0c 93 addi	s9, zero, 0x2e
[1;34m[src/memory/paddr.c:97 mtrace_log] R: 0x80001e70 (len=4) data=0x06800c13[0m
0x80001e70: 06 80 0c 13 addi	s8, zero, 0x68
[1;34m[src/memory/paddr.c:97 mtrace_log] R: 0x80001e74 (len=4) data=0x00001b97[0m
0x80001e74: 00 00 1b 97 auipc	s7, 1
[1;34m[src/memory/paddr.c:97 mtrace_log] R: 0x80001e78 (len=4) data=0x308b8b93[0m
0x80001e78: 30 8b 8b 93 addi	s7, s7, 0x308
[1;34m[src/memory/paddr.c:97 mtrace_log] R: 0x80001e7c (len=4) data=0x05578c63[0m
0x80001e7c: 05 57 8c 63 beq	a5, s5, 0x58
[1;34m[src/memory/paddr.c:97 mtrace_log] R: 0x80001e80 (len=4) data=0x00f48023[0m
[1;34m[src/memory/paddr.c:97 mtrace_log] W: 0x8009551c (len=1) data=0x00000020[0m
0x80001e80: 00 f4 80 23 sb	a5, 0(s1)
[1;34m[src/memory/paddr.c:97 mtrace_log] R: 0x80001e84 (len=4) data=0x0015c783[0m
[1;34m[src/memory/paddr.c:97 mtrace_log] R: 0x80002915 (len=1) data=0x00000020[0m
0x80001e84: 00 15 c7 83 lbu	a5, 1(a1)
[1;34m[src/memory/paddr.c:97 mtrace_log] R: 0x80001e88 (len=4) data=0x00148493[0m
0x80001e88: 00 14 84 93 addi	s1, s1, 1
[1;34m[src/memory/paddr.c:97 mtrace_log] R: 0x80001e8c (len=4) data=0x00158593[0m
0x80001e8c: 00 15 85 93 addi	a1, a1, 1
[1;34m[src/memory/paddr.c:97 mtrace_log] R: 0x80001e90 (len=4) data=0xfe0796e3[0m
0x80001e90: fe 07 96 e3 bnez	a5, -0x14
[1;34m[src/memory/paddr.c:97 mtrace_log] R: 0x80001e7c (len=4) data=0x05578c63[0m
0x80001e7c: 05 57 8c 63 beq	a5, s5, 0x58
[1;34m[src/memory/paddr.c:97 mtrace_log] R: 0x80001e80 (len=4) data=0x00f48023[0m
[1;34m[src/memory/paddr.c:97 mtrace_log] W: 0x8009551d (len=1) data=0x00000020[0m
0x80001e80: 00 f4 80 23 sb	a5, 0(s1)
[1;34m[src/memory/paddr.c:97 mtrace_log] R: 0x80001e84 (len=4) data=0x0015c783[0m
[1;34m[src/memory/paddr.c:97 mtrace_log] R: 0x80002916 (len=1) data=0x00000025[0m
0x80001e84: 00 15 c7 83 lbu	a5, 1(a1)
[1;34m[src/memory/paddr.c:97 mtrace_log] R: 0x80001e88 (len=4) data=0x00148493[0m
0x80001e88: 00 14 84 93 addi	s1, s1, 1
[1;34m[src/memory/paddr.c:97 mtrace_log] R: 0x80001e8c (len=4) data=0x00158593[0m
0x80001e8c: 00 15 85 93 addi	a1, a1, 1
[1;34m[src/memory/paddr.c:97 mtrace_log] R: 0x80001e90 (len=4) data=0xfe0796e3[0m
0x80001e90: fe 07 96 e3 bnez	a5, -0x14
[1;34m[src/memory/paddr.c:97 mtrace_log] R: 0x80001e7c (len=4) data=0x05578c63[0m
0x80001e7c: 05 57 8c 63 beq	a5, s5, 0x58
[1;34m[src/memory/paddr.c:97 mtrace_log] R: 0x80001ed4 (len=4) data=0x00000793[0m
0x80001ed4: 00 00 07 93 mv	a5, zero
[1;34m[src/memory/paddr.c:97 mtrace_log] R: 0x80001ed8 (len=4) data=0x0015c803[0m
[1;34m[src/memory/paddr.c:97 mtrace_log] R: 0x80002917 (len=1) data=0x00000063[0m
0x80001ed8: 00 15 c8 03 lbu	a6, 1(a1)
[1;34m[src/memory/paddr.c:97 mtrace_log] R: 0x80001edc (len=4) data=0x00158413[0m
0x80001edc: 00 15 84 13 addi	s0, a1, 1
[1;34m[src/memory/paddr.c:97 mtrace_log] R: 0x80001ee0 (len=4) data=0xfe080713[0m
0x80001ee0: fe 08 07 13 addi	a4, a6, -0x20
[1;34m[src/memory/paddr.c:97 mtrace_log] R: 0x80001ee4 (len=4) data=0x0ff77713[0m
0x80001ee4: 0f f7 77 13 andi	a4, a4, 0xff
[1;34m[src/memory/paddr.c:97 mtrace_log] R: 0x80001ee8 (len=4) data=0x00e9ec63[0m
0x80001ee8: 00 e9 ec 63 bltu	s3, a4, 0x18
[1;34m[src/memory/paddr.c:97 mtrace_log] R: 0x80001f00 (len=4) data=0xfd080713[0m
0x80001f00: fd 08 07 13 addi	a4, a6, -0x30
[1;34m[src/memory/paddr.c:97 mtrace_log] R: 0x80001f04 (len=4) data=0x0ff77713[0m
0x80001f04: 0f f7 77 13 andi	a4, a4, 0xff
[1;34m[src/memory/paddr.c:97 mtrace_log] R: 0x80001f08 (len=4) data=0x0ced7263[0m
0x80001f08: 0c ed 72 63 bgeu	s10, a4, 0xc4
[1;34m[src/memory/paddr.c:97 mtrace_log] R: 0x80001f0c (len=4) data=0x02a00713[0m
0x80001f0c: 02 a0 07 13 addi	a4, zero, 0x2a
[1;34m[src/memory/paddr.c:97 mtrace_log] R: 0x80001f10 (len=4) data=0xfff00693[0m
0x80001f10: ff f0 06 93 addi	a3, zero, -1
[1;34m[src/memory/paddr.c:97 mtrace_log] R: 0x80001f14 (len=4) data=0x00e81a63[0m
0x80001f14: 00 e8 1a 63 bne	a6, a4, 0x14
[1;34m[src/memory/paddr.c:97 mtrace_log] R: 0x80001f28 (len=4) data=0xfff00713[0m
0x80001f28: ff f0 07 13 addi	a4, zero, -1
[1;34m[src/memory/paddr.c:97 mtrace_log] R: 0x80001f2c (len=4) data=0x07980a63[0m
0x80001f2c: 07 98 0a 63 beq	a6, s9, 0x74
[1;34m[src/memory/paddr.c:97 mtrace_log] R: 0x80001f30 (len=4) data=0x0fb87613[0m
0x80001f30: 0f b8 76 13 andi	a2, a6, 0xfb
[1;34m[src/memory/paddr.c:97 mtrace_log] R: 0x80001f34 (len=4) data=0x01861663[0m
0x80001f34: 01 86 16 63 bne	a2, s8, 0xc
[1;34m[src/memory/paddr.c:97 mtrace_log] R: 0x80001f40 (len=4) data=0xfdb80813[0m
0x80001f40: fd b8 08 13 addi	a6, a6, -0x25
[1;34m[src/memory/paddr.c:97 mtrace_log] R: 0x80001f44 (len=4) data=0x0ff87813[0m
0x80001f44: 0f f8 78 13 andi	a6, a6, 0xff
[1;34m[src/memory/paddr.c:97 mtrace_log] R: 0x80001f48 (len=4) data=0x05300613[0m
0x80001f48: 05 30 06 13 addi	a2, zero, 0x53
[1;34m[src/memory/paddr.c:97 mtrace_log] R: 0x80001f4c (len=4) data=0x0b066c63[0m
0x80001f4c: 0b 06 6c 63 bltu	a2, a6, 0xb8
[1;34m[src/memory/paddr.c:97 mtrace_log] R: 0x80001f50 (len=4) data=0x00281813[0m
0x80001f50: 00 28 18 13 slli	a6, a6, 2
[1;34m[src/memory/paddr.c:97 mtrace_log] R: 0x80001f54 (len=4) data=0x01780833[0m
0x80001f54: 01 78 08 33 add	a6, a6, s7
[1;34m[src/memory/paddr.c:97 mtrace_log] R: 0x80001f58 (len=4) data=0x00082603[0m
[1;34m[src/memory/paddr.c:97 mtrace_log] R: 0x80003274 (len=4) data=0xffffef08[0m
0x80001f58: 00 08 26 03 lw	a2, 0(a6)
[1;34m[src/memory/paddr.c:97 mtrace_log] R: 0x80001f5c (len=4) data=0x01760633[0m
0x80001f5c: 01 76 06 33 add	a2, a2, s7
[1;34m[src/memory/paddr.c:97 mtrace_log] R: 0x80001f60 (len=4) data=0x00060067[0m
0x80001f60: 00 06 00 67 jr	a2
[1;34m[src/memory/paddr.c:97 mtrace_log] R: 0x80002084 (len=4) data=0x0017f793[0m
0x80002084: 00 17 f7 93 andi	a5, a5, 1
[1;34m[src/memory/paddr.c:97 mtrace_log] R: 0x80002088 (len=4) data=0x004a0613[0m
0x80002088: 00 4a 06 13 addi	a2, s4, 4
[1;34m[src/memory/paddr.c:97 mtrace_log] R: 0x8000208c (len=4) data=0x00140593[0m
0x8000208c: 00 14 05 93 addi	a1, s0, 1
[1;34m[src/memory/paddr.c:97 mtrace_log] R: 0x80002090 (len=4) data=0x18078c63[0m
0x80002090: 18 07 8c 63 beqz	a5, 0x198
[1;34m[src/memory/paddr.c:97 mtrace_log] R: 0x80002228 (len=4) data=0x00100793[0m
0x80002228: 00 10 07 93 addi	a5, zero, 1
[1;34m[src/memory/paddr.c:97 mtrace_log] R: 0x8000222c (len=4) data=0x0ad7dc63[0m
0x8000222c: 0a d7 dc 63 bge	a5, a3, 0xb8
[1;34m[src/memory/paddr.c:97 mtrace_log] R: 0x800022e4 (len=4) data=0x000a2783[0m
[1;34m[src/memory/paddr.c:97 mtrace_log] R: 0x8009dfb4 (len=4) data=0x0000006b[0m
0x800022e4: 00 0a 27 83 lw	a5, 0(s4)
[1;34m[src/memory/paddr.c:97 mtrace_log] R: 0x800022e8 (len=4) data=0x00148493[0m
0x800022e8: 00 14 84 93 addi	s1, s1, 1
[1;34m[src/memory/paddr.c:97 mtrace_log] R: 0x800022ec (len=4) data=0x00060a13[0m
0x800022ec: 00 06 0a 13 mv	s4, a2
[1;34m[src/memory/paddr.c:97 mtrace_log] R: 0x800022f0 (len=4) data=0xfef48fa3[0m
[1;34m[src/memory/paddr.c:97 mtrace_log] W: 0x8009551e (len=1) data=0x0000006b[0m
0x800022f0: fe f4 8f a3 sb	a5, -1(s1)
[1;34m[src/memory/paddr.c:97 mtrace_log] R: 0x800022f4 (len=4) data=0x00144783[0m
[1;34m[src/memory/paddr.c:97 mtrace_log] R: 0x80002918 (len=1) data=0x0000003a[0m
0x800022f4: 00 14 47 83 lbu	a5, 1(s0)
[1;34m[src/memory/paddr.c:97 mtrace_log] R: 0x800022f8 (len=4) data=0xb80792e3[0m
0x800022f8: b8 07 92 e3 bnez	a5, -0x47c
[1;34m[src/memory/paddr.c:97 mtrace_log] R: 0x80001e7c (len=4) data=0x05578c63[0m
0x80001e7c: 05 57 8c 63 beq	a5, s5, 0x58
[1;34m[src/memory/paddr.c:97 mtrace_log] R: 0x80001e80 (len=4) data=0x00f48023[0m
[1;34m[src/memory/paddr.c:97 mtrace_log] W: 0x8009551f (len=1) data=0x0000003a[0m
0x80001e80: 00 f4 80 23 sb	a5, 0(s1)
[1;34m[src/memory/paddr.c:97 mtrace_log] R: 0x80001e84 (len=4) data=0x0015c783[0m
[1;34m[src/memory/paddr.c:97 mtrace_log] R: 0x80002919 (len=1) data=0x00000020[0m
0x80001e84: 00 15 c7 83 lbu	a5, 1(a1)
[1;34m[src/memory/paddr.c:97 mtrace_log] R: 0x80001e88 (len=4) data=0x00148493[0m
0x80001e88: 00 14 84 93 addi	s1, s1, 1
[1;34m[src/memory/paddr.c:97 mtrace_log] R: 0x80001e8c (len=4) data=0x00158593[0m
0x80001e8c: 00 15 85 93 addi	a1, a1, 1
[1;34m[src/memory/paddr.c:97 mtrace_log] R: 0x80001e90 (len=4) data=0xfe0796e3[0m
0x80001e90: fe 07 96 e3 bnez	a5, -0x14
[1;34m[src/memory/paddr.c:97 mtrace_log] R: 0x80001e7c (len=4) data=0x05578c63[0m
0x80001e7c: 05 57 8c 63 beq	a5, s5, 0x58
[1;34m[src/memory/paddr.c:97 mtrace_log] R: 0x80001e80 (len=4) data=0x00f48023[0m
[1;34m[src/memory/paddr.c:97 mtrace_log] W: 0x80095520 (len=1) data=0x00000020[0m
0x80001e80: 00 f4 80 23 sb	a5, 0(s1)
[1;34m[src/memory/paddr.c:97 mtrace_log] R: 0x80001e84 (len=4) data=0x0015c783[0m
[1;34m[src/memory/paddr.c:97 mtrace_log] R: 0x8000291a (len=1) data=0x00000025[0m
0x80001e84: 00 15 c7 83 lbu	a5, 1(a1)
[1;34m[src/memory/paddr.c:97 mtrace_log] R: 0x80001e88 (len=4) data=0x00148493[0m
0x80001e88: 00 14 84 93 addi	s1, s1, 1
[1;34m[src/memory/paddr.c:97 mtrace_log] R: 0x80001e8c (len=4) data=0x00158593[0m
0x80001e8c: 00 15 85 93 addi	a1, a1, 1
[1;34m[src/memory/paddr.c:97 mtrace_log] R: 0x80001e90 (len=4) data=0xfe0796e3[0m
0x80001e90: fe 07 96 e3 bnez	a5, -0x14
[1;34m[src/memory/paddr.c:97 mtrace_log] R: 0x80001e7c (len=4) data=0x05578c63[0m
0x80001e7c: 05 57 8c 63 beq	a5, s5, 0x58
[1;34m[src/memory/paddr.c:97 mtrace_log] R: 0x80001ed4 (len=4) data=0x00000793[0m
0x80001ed4: 00 00 07 93 mv	a5, zero
[1;34m[src/memory/paddr.c:97 mtrace_log] R: 0x80001ed8 (len=4) data=0x0015c803[0m
[1;34m[src/memory/paddr.c:97 mtrace_log] R: 0x8000291b (len=1) data=0x00000073[0m
0x80001ed8: 00 15 c8 03 lbu	a6, 1(a1)
[1;34m[src/memory/paddr.c:97 mtrace_log] R: 0x80001edc (len=4) data=0x00158413[0m
0x80001edc: 00 15 84 13 addi	s0, a1, 1
[1;34m[src/memory/paddr.c:97 mtrace_log] R: 0x80001ee0 (len=4) data=0xfe080713[0m
0x80001ee0: fe 08 07 13 addi	a4, a6, -0x20
[1;34m[src/memory/paddr.c:97 mtrace_log] R: 0x80001ee4 (len=4) data=0x0ff77713[0m
0x80001ee4: 0f f7 77 13 andi	a4, a4, 0xff
[1;34m[src/memory/paddr.c:97 mtrace_log] R: 0x80001ee8 (len=4) data=0x00e9ec63[0m
0x80001ee8: 00 e9 ec 63 bltu	s3, a4, 0x18
[1;34m[src/memory/paddr.c:97 mtrace_log] R: 0x80001f00 (len=4) data=0xfd080713[0m
0x80001f00: fd 08 07 13 addi	a4, a6, -0x30
[1;34m[src/memory/paddr.c:97 mtrace_log] R: 0x80001f04 (len=4) data=0x0ff77713[0m
0x80001f04: 0f f7 77 13 andi	a4, a4, 0xff
[1;34m[src/memory/paddr.c:97 mtrace_log] R: 0x80001f08 (len=4) data=0x0ced7263[0m
0x80001f08: 0c ed 72 63 bgeu	s10, a4, 0xc4
[1;34m[src/memory/paddr.c:97 mtrace_log] R: 0x80001f0c (len=4) data=0x02a00713[0m
0x80001f0c: 02 a0 07 13 addi	a4, zero, 0x2a
[1;34m[src/memory/paddr.c:97 mtrace_log] R: 0x80001f10 (len=4) data=0xfff00693[0m
0x80001f10: ff f0 06 93 addi	a3, zero, -1
[1;34m[src/memory/paddr.c:97 mtrace_log] R: 0x80001f14 (len=4) data=0x00e81a63[0m
0x80001f14: 00 e8 1a 63 bne	a6, a4, 0x14
[1;34m[src/memory/paddr.c:97 mtrace_log] R: 0x80001f28 (len=4) data=0xfff00713[0m
0x80001f28: ff f0 07 13 addi	a4, zero, -1
[1;34m[src/memory/paddr.c:97 mtrace_log] R: 0x80001f2c (len=4) data=0x07980a63[0m
0x80001f2c: 07 98 0a 63 beq	a6, s9, 0x74
[1;34m[src/memory/paddr.c:97 mtrace_log] R: 0x80001f30 (len=4) data=0x0fb87613[0m
0x80001f30: 0f b8 76 13 andi	a2, a6, 0xfb
[1;34m[src/memory/paddr.c:97 mtrace_log] R: 0x80001f34 (len=4) data=0x01861663[0m
0x80001f34: 01 86 16 63 bne	a2, s8, 0xc
[1;34m[src/memory/paddr.c:97 mtrace_log] R: 0x80001f40 (len=4) data=0xfdb80813[0m
0x80001f40: fd b8 08 13 addi	a6, a6, -0x25
[1;34m[src/memory/paddr.c:97 mtrace_log] R: 0x80001f44 (len=4) data=0x0ff87813[0m
0x80001f44: 0f f8 78 13 andi	a6, a6, 0xff
[1;34m[src/memory/paddr.c:97 mtrace_log] R: 0x80001f48 (len=4) data=0x05300613[0m
0x80001f48: 05 30 06 13 addi	a2, zero, 0x53
[1;34m[src/memory/paddr.c:97 mtrace_log] R: 0x80001f4c (len=4) data=0x0b066c63[0m
0x80001f4c: 0b 06 6c 63 bltu	a2, a6, 0xb8
[1;34m[src/memory/paddr.c:97 mtrace_log] R: 0x80001f50 (len=4) data=0x00281813[0m
0x80001f50: 00 28 18 13 slli	a6, a6, 2
[1;34m[src/memory/paddr.c:97 mtrace_log] R: 0x80001f54 (len=4) data=0x01780833[0m
0x80001f54: 01 78 08 33 add	a6, a6, s7
[1;34m[src/memory/paddr.c:97 mtrace_log] R: 0x80001f58 (len=4) data=0x00082603[0m
[1;34m[src/memory/paddr.c:97 mtrace_log] R: 0x800032b4 (len=4) data=0xffffef50[0m
0x80001f58: 00 08 26 03 lw	a2, 0(a6)
[1;34m[src/memory/paddr.c:97 mtrace_log] R: 0x80001f5c (len=4) data=0x01760633[0m
0x80001f5c: 01 76 06 33 add	a2, a2, s7
[1;34m[src/memory/paddr.c:97 mtrace_log] R: 0x80001f60 (len=4) data=0x00060067[0m
0x80001f60: 00 06 00 67 jr	a2
[1;34m[src/memory/paddr.c:97 mtrace_log] R: 0x800020cc (len=4) data=0x01b12e23[0m
[1;34m[src/memory/paddr.c:97 mtrace_log] W: 0x8009df5c (len=4) data=0x00000000[0m
0x800020cc: 01 b1 2e 23 sw	s11, 0x1c(sp)
[1;34m[src/memory/paddr.c:97 mtrace_log] R: 0x800020d0 (len=4) data=0x000a2d83[0m
[1;34m[src/memory/paddr.c:97 mtrace_log] R: 0x8009dfb8 (len=4) data=0x80002978[0m
0x800020d0: 00 0a 2d 83 lw	s11, 0(s4)
[1;34m[src/memory/paddr.c:97 mtrace_log] R: 0x800020d4 (len=4) data=0x004a0a13[0m
0x800020d4: 00 4a 0a 13 addi	s4, s4, 4
[1;34m[src/memory/paddr.c:97 mtrace_log] R: 0x800020d8 (len=4) data=0x140d8263[0m
0x800020d8: 14 0d 82 63 beqz	s11, 0x144
[1;34m[src/memory/paddr.c:97 mtrace_log] R: 0x800020dc (len=4) data=0x000d8513[0m
0x800020dc: 00 0d 85 13 mv	a0, s11
[1;34m[src/memory/paddr.c:97 mtrace_log] R: 0x800020e0 (len=4) data=0x00d12623[0m
[1;34m[src/memory/paddr.c:97 mtrace_log] W: 0x8009df4c (len=4) data=0xffffffff[0m
0x800020e0: 00 d1 26 23 sw	a3, 0xc(sp)
[1;34m[src/memory/paddr.c:97 mtrace_log] R: 0x800020e4 (len=4) data=0x00f12423[0m
[1;34m[src/memory/paddr.c:97 mtrace_log] W: 0x8009df48 (len=4) data=0x00000000[0m
0x800020e4: 00 f1 24 23 sw	a5, 8(sp)
[1;34m[src/memory/paddr.c:97 mtrace_log] R: 0x800020e8 (len=4) data=0x00e12223[0m
[1;34m[src/memory/paddr.c:97 mtrace_log] W: 0x8009df44 (len=4) data=0xffffffff[0m
0x800020e8: 00 e1 22 23 sw	a4, 4(sp)
[1;34m[src/memory/paddr.c:97 mtrace_log] R: 0x800020ec (len=4) data=0x9c9ff0ef[0m
0x800020ec: 9c 9f f0 ef jal	-0x638
[1;34m[src/memory/paddr.c:97 mtrace_log] R: 0x80001ab4 (len=4) data=0x00054783[0m
[1;34m[src/memory/paddr.c:97 mtrace_log] R: 0x80002978 (len=1) data=0x00000072[0m
0x80001ab4: 00 05 47 83 lbu	a5, 0(a0)
[1;34m[src/memory/paddr.c:97 mtrace_log] R: 0x80001ab8 (len=4) data=0x00050713[0m
0x80001ab8: 00 05 07 13 mv	a4, a0
[1;34m[src/memory/paddr.c:97 mtrace_log] R: 0x80001abc (len=4) data=0x00000513[0m
0x80001abc: 00 00 05 13 mv	a0, zero
[1;34m[src/memory/paddr.c:97 mtrace_log] R: 0x80001ac0 (len=4) data=0x00078c63[0m
0x80001ac0: 00 07 8c 63 beqz	a5, 0x18
[1;34m[src/memory/paddr.c:97 mtrace_log] R: 0x80001ac4 (len=4) data=0x00150513[0m
0x80001ac4: 00 15 05 13 addi	a0, a0, 1
[1;34m[src/memory/paddr.c:97 mtrace_log] R: 0x80001ac8 (len=4) data=0x00a707b3[0m
0x80001ac8: 00 a7 07 b3 add	a5, a4, a0
[1;34m[src/memory/paddr.c:97 mtrace_log] R: 0x80001acc (len=4) data=0x0007c783[0m
[1;34m[src/memory/paddr.c:97 mtrace_log] R: 0x80002979 (len=1) data=0x00000065[0m
0x80001acc: 00 07 c7 83 lbu	a5, 0(a5)
[1;34m[src/memory/paddr.c:97 mtrace_log] R: 0x80001ad0 (len=4) data=0xfe079ae3[0m
0x80001ad0: fe 07 9a e3 bnez	a5, -0xc
[1;34m[src/memory/paddr.c:97 mtrace_log] R: 0x80001ac4 (len=4) data=0x00150513[0m
0x80001ac4: 00 15 05 13 addi	a0, a0, 1
[1;34m[src/memory/paddr.c:97 mtrace_log] R: 0x80001ac8 (len=4) data=0x00a707b3[0m
0x80001ac8: 00 a7 07 b3 add	a5, a4, a0
[1;34m[src/memory/paddr.c:97 mtrace_log] R: 0x80001acc (len=4) data=0x0007c783[0m
[1;34m[src/memory/paddr.c:97 mtrace_log] R: 0x8000297a (len=1) data=0x00000061[0m
0x80001acc: 00 07 c7 83 lbu	a5, 0(a5)
[1;34m[src/memory/paddr.c:97 mtrace_log] R: 0x80001ad0 (len=4) data=0xfe079ae3[0m
0x80001ad0: fe 07 9a e3 bnez	a5, -0xc
[1;34m[src/memory/paddr.c:97 mtrace_log] R: 0x80001ac4 (len=4) data=0x00150513[0m
0x80001ac4: 00 15 05 13 addi	a0, a0, 1
[1;34m[src/memory/paddr.c:97 mtrace_log] R: 0x80001ac8 (len=4) data=0x00a707b3[0m
0x80001ac8: 00 a7 07 b3 add	a5, a4, a0
[1;34m[src/memory/paddr.c:97 mtrace_log] R: 0x80001acc (len=4) data=0x0007c783[0m
[1;34m[src/memory/paddr.c:97 mtrace_log] R: 0x8000297b (len=1) data=0x00000064[0m
0x80001acc: 00 07 c7 83 lbu	a5, 0(a5)
[1;34m[src/memory/paddr.c:97 mtrace_log] R: 0x80001ad0 (len=4) data=0xfe079ae3[0m
0x80001ad0: fe 07 9a e3 bnez	a5, -0xc
[1;34m[src/memory/paddr.c:97 mtrace_log] R: 0x80001ac4 (len=4) data=0x00150513[0m
0x80001ac4: 00 15 05 13 addi	a0, a0, 1
[1;34m[src/memory/paddr.c:97 mtrace_log] R: 0x80001ac8 (len=4) data=0x00a707b3[0m
0x80001ac8: 00 a7 07 b3 add	a5, a4, a0
[1;34m[src/memory/paddr.c:97 mtrace_log] R: 0x80001acc (len=4) data=0x0007c783[0m
[1;34m[src/memory/paddr.c:97 mtrace_log] R: 0x8000297c (len=1) data=0x0000006b[0m
0x80001acc: 00 07 c7 83 lbu	a5, 0(a5)
[1;34m[src/memory/paddr.c:97 mtrace_log] R: 0x80001ad0 (len=4) data=0xfe079ae3[0m
0x80001ad0: fe 07 9a e3 bnez	a5, -0xc
[1;34m[src/memory/paddr.c:97 mtrace_log] R: 0x80001ac4 (len=4) data=0x00150513[0m
0x80001ac4: 00 15 05 13 addi	a0, a0, 1
[1;34m[src/memory/paddr.c:97 mtrace_log] R: 0x80001ac8 (len=4) data=0x00a707b3[0m
0x80001ac8: 00 a7 07 b3 add	a5, a4, a0
[1;34m[src/memory/paddr.c:97 mtrace_log] R: 0x80001acc (len=4) data=0x0007c783[0m
[1;34m[src/memory/paddr.c:97 mtrace_log] R: 0x8000297d (len=1) data=0x00000065[0m
0x80001acc: 00 07 c7 83 lbu	a5, 0(a5)
[1;34m[src/memory/paddr.c:97 mtrace_log] R: 0x80001ad0 (len=4) data=0xfe079ae3[0m
0x80001ad0: fe 07 9a e3 bnez	a5, -0xc
[1;34m[src/memory/paddr.c:97 mtrace_log] R: 0x80001ac4 (len=4) data=0x00150513[0m
0x80001ac4: 00 15 05 13 addi	a0, a0, 1
[1;34m[src/memory/paddr.c:97 mtrace_log] R: 0x80001ac8 (len=4) data=0x00a707b3[0m
0x80001ac8: 00 a7 07 b3 add	a5, a4, a0
[1;34m[src/memory/paddr.c:97 mtrace_log] R: 0x80001acc (len=4) data=0x0007c783[0m
[1;34m[src/memory/paddr.c:97 mtrace_log] R: 0x8000297e (len=1) data=0x00000079[0m
0x80001acc: 00 07 c7 83 lbu	a5, 0(a5)
[1;34m[src/memory/paddr.c:97 mtrace_log] R: 0x80001ad0 (len=4) data=0xfe079ae3[0m
0x80001ad0: fe 07 9a e3 bnez	a5, -0xc
[1;34m[src/memory/paddr.c:97 mtrace_log] R: 0x80001ac4 (len=4) data=0x00150513[0m
0x80001ac4: 00 15 05 13 addi	a0, a0, 1
[1;34m[src/memory/paddr.c:97 mtrace_log] R: 0x80001ac8 (len=4) data=0x00a707b3[0m
0x80001ac8: 00 a7 07 b3 add	a5, a4, a0
[1;34m[src/memory/paddr.c:97 mtrace_log] R: 0x80001acc (len=4) data=0x0007c783[0m
[1;34m[src/memory/paddr.c:97 mtrace_log] R: 0x8000297f (len=1) data=0x00000020[0m
0x80001acc: 00 07 c7 83 lbu	a5, 0(a5)
[1;34m[src/memory/paddr.c:97 mtrace_log] R: 0x80001ad0 (len=4) data=0xfe079ae3[0m
0x80001ad0: fe 07 9a e3 bnez	a5, -0xc
[1;34m[src/memory/paddr.c:97 mtrace_log] R: 0x80001ac4 (len=4) data=0x00150513[0m
0x80001ac4: 00 15 05 13 addi	a0, a0, 1
[1;34m[src/memory/paddr.c:97 mtrace_log] R: 0x80001ac8 (len=4) data=0x00a707b3[0m
0x80001ac8: 00 a7 07 b3 add	a5, a4, a0
[1;34m[src/memory/paddr.c:97 mtrace_log] R: 0x80001acc (len=4) data=0x0007c783[0m
[1;34m[src/memory/paddr.c:97 mtrace_log] R: 0x80002980 (len=1) data=0x00000074[0m
0x80001acc: 00 07 c7 83 lbu	a5, 0(a5)
[1;34m[src/memory/paddr.c:97 mtrace_log] R: 0x80001ad0 (len=4) data=0xfe079ae3[0m
0x80001ad0: fe 07 9a e3 bnez	a5, -0xc
[1;34m[src/memory/paddr.c:97 mtrace_log] R: 0x80001ac4 (len=4) data=0x00150513[0m
0x80001ac4: 00 15 05 13 addi	a0, a0, 1
[1;34m[src/memory/paddr.c:97 mtrace_log] R: 0x80001ac8 (len=4) data=0x00a707b3[0m
0x80001ac8: 00 a7 07 b3 add	a5, a4, a0
[1;34m[src/memory/paddr.c:97 mtrace_log] R: 0x80001acc (len=4) data=0x0007c783[0m
[1;34m[src/memory/paddr.c:97 mtrace_log] R: 0x80002981 (len=1) data=0x00000065[0m
0x80001acc: 00 07 c7 83 lbu	a5, 0(a5)
[1;34m[src/memory/paddr.c:97 mtrace_log] R: 0x80001ad0 (len=4) data=0xfe079ae3[0m
0x80001ad0: fe 07 9a e3 bnez	a5, -0xc
[1;34m[src/memory/paddr.c:97 mtrace_log] R: 0x80001ac4 (len=4) data=0x00150513[0m
0x80001ac4: 00 15 05 13 addi	a0, a0, 1
[1;34m[src/memory/paddr.c:97 mtrace_log] R: 0x80001ac8 (len=4) data=0x00a707b3[0m
0x80001ac8: 00 a7 07 b3 add	a5, a4, a0
[1;34m[src/memory/paddr.c:97 mtrace_log] R: 0x80001acc (len=4) data=0x0007c783[0m
[1;34m[src/memory/paddr.c:97 mtrace_log] R: 0x80002982 (len=1) data=0x00000073[0m
0x80001acc: 00 07 c7 83 lbu	a5, 0(a5)
[1;34m[src/memory/paddr.c:97 mtrace_log] R: 0x80001ad0 (len=4) data=0xfe079ae3[0m
0x80001ad0: fe 07 9a e3 bnez	a5, -0xc
[1;34m[src/memory/paddr.c:97 mtrace_log] R: 0x80001ac4 (len=4) data=0x00150513[0m
0x80001ac4: 00 15 05 13 addi	a0, a0, 1
[1;34m[src/memory/paddr.c:97 mtrace_log] R: 0x80001ac8 (len=4) data=0x00a707b3[0m
0x80001ac8: 00 a7 07 b3 add	a5, a4, a0
[1;34m[src/memory/paddr.c:97 mtrace_log] R: 0x80001acc (len=4) data=0x0007c783[0m
[1;34m[src/memory/paddr.c:97 mtrace_log] R: 0x80002983 (len=1) data=0x00000074[0m
0x80001acc: 00 07 c7 83 lbu	a5, 0(a5)
[1;34m[src/memory/paddr.c:97 mtrace_log] R: 0x80001ad0 (len=4) data=0xfe079ae3[0m
0x80001ad0: fe 07 9a e3 bnez	a5, -0xc
[1;34m[src/memory/paddr.c:97 mtrace_log] R: 0x80001ac4 (len=4) data=0x00150513[0m
0x80001ac4: 00 15 05 13 addi	a0, a0, 1
[1;34m[src/memory/paddr.c:97 mtrace_log] R: 0x80001ac8 (len=4) data=0x00a707b3[0m
0x80001ac8: 00 a7 07 b3 add	a5, a4, a0
[1;34m[src/memory/paddr.c:97 mtrace_log] R: 0x80001acc (len=4) data=0x0007c783[0m
[1;34m[src/memory/paddr.c:97 mtrace_log] R: 0x80002984 (len=1) data=0x00000000[0m
0x80001acc: 00 07 c7 83 lbu	a5, 0(a5)
[1;34m[src/memory/paddr.c:97 mtrace_log] R: 0x80001ad0 (len=4) data=0xfe079ae3[0m
0x80001ad0: fe 07 9a e3 bnez	a5, -0xc
[1;34m[src/memory/paddr.c:97 mtrace_log] R: 0x80001ad4 (len=4) data=0x00008067[0m
0x80001ad4: 00 00 80 67 ret
[1;34m[src/memory/paddr.c:97 mtrace_log] R: 0x800020f0 (len=4) data=0x00412703[0m
[1;34m[src/memory/paddr.c:97 mtrace_log] R: 0x8009df44 (len=4) data=0xffffffff[0m
0x800020f0: 00 41 27 03 lw	a4, 4(sp)
[1;34m[src/memory/paddr.c:97 mtrace_log] R: 0x800020f4 (len=4) data=0xfff00613[0m
0x800020f4: ff f0 06 13 addi	a2, zero, -1
[1;34m[src/memory/paddr.c:97 mtrace_log] R: 0x800020f8 (len=4) data=0x00812783[0m
[1;34m[src/memory/paddr.c:97 mtrace_log] R: 0x8009df48 (len=4) data=0x00000000[0m
0x800020f8: 00 81 27 83 lw	a5, 8(sp)
[1;34m[src/memory/paddr.c:97 mtrace_log] R: 0x800020fc (len=4) data=0x00c12683[0m
[1;34m[src/memory/paddr.c:97 mtrace_log] R: 0x8009df4c (len=4) data=0xffffffff[0m
0x800020fc: 00 c1 26 83 lw	a3, 0xc(sp)
[1;34m[src/memory/paddr.c:97 mtrace_log] R: 0x80002100 (len=4) data=0x00c70663[0m
0x80002100: 00 c7 06 63 beq	a4, a2, 0xc
[1;34m[src/memory/paddr.c:97 mtrace_log] R: 0x8000210c (len=4) data=0x0017f793[0m
0x8000210c: 00 17 f7 93 andi	a5, a5, 1
[1;34m[src/memory/paddr.c:97 mtrace_log] R: 0x80002110 (len=4) data=0x14078063[0m
0x80002110: 14 07 80 63 beqz	a5, 0x140
[1;34m[src/memory/paddr.c:97 mtrace_log] R: 0x80002250 (len=4) data=0xfff68613[0m
0x80002250: ff f6 86 13 addi	a2, a3, -1
[1;34m[src/memory/paddr.c:97 mtrace_log] R: 0x80002254 (len=4) data=0x08d55463[0m
0x80002254: 08 d5 54 63 bge	a0, a3, 0x88
[1;34m[src/memory/paddr.c:97 mtrace_log] R: 0x800022dc (len=4) data=0x00060693[0m
0x800022dc: 00 06 06 93 mv	a3, a2
[1;34m[src/memory/paddr.c:97 mtrace_log] R: 0x800022e0 (len=4) data=0xe35ff06f[0m
0x800022e0: e3 5f f0 6f j	-0x1cc
[1;34m[src/memory/paddr.c:97 mtrace_log] R: 0x80002114 (len=4) data=0x1aa05663[0m
0x80002114: 1a a0 56 63 blez	a0, 0x1ac
[1;34m[src/memory/paddr.c:97 mtrace_log] R: 0x80002118 (len=4) data=0x00a48733[0m
0x80002118: 00 a4 87 33 add	a4, s1, a0
[1;34m[src/memory/paddr.c:97 mtrace_log] R: 0x8000211c (len=4) data=0x000dc783[0m
[1;34m[src/memory/paddr.c:97 mtrace_log] R: 0x80002978 (len=1) data=0x00000072[0m
0x8000211c: 00 0d c7 83 lbu	a5, 0(s11)
[1;34m[src/memory/paddr.c:97 mtrace_log] R: 0x80002120 (len=4) data=0x00148493[0m
0x80002120: 00 14 84 93 addi	s1, s1, 1
[1;34m[src/memory/paddr.c:97 mtrace_log] R: 0x80002124 (len=4) data=0x001d8d93[0m
0x80002124: 00 1d 8d 93 addi	s11, s11, 1
[1;34m[src/memory/paddr.c:97 mtrace_log] R: 0x80002128 (len=4) data=0xfef48fa3[0m
[1;34m[src/memory/paddr.c:97 mtrace_log] W: 0x80095521 (len=1) data=0x00000072[0m
0x80002128: fe f4 8f a3 sb	a5, -1(s1)
[1;34m[src/memory/paddr.c:97 mtrace_log] R: 0x8000212c (len=4) data=0xfe9718e3[0m
0x8000212c: fe 97 18 e3 bne	a4, s1, -0x10
[1;34m[src/memory/paddr.c:97 mtrace_log] R: 0x8000211c (len=4) data=0x000dc783[0m
[1;34m[src/memory/paddr.c:97 mtrace_log] R: 0x80002979 (len=1) data=0x00000065[0m
0x8000211c: 00 0d c7 83 lbu	a5, 0(s11)
[1;34m[src/memory/paddr.c:97 mtrace_log] R: 0x80002120 (len=4) data=0x00148493[0m
0x80002120: 00 14 84 93 addi	s1, s1, 1
[1;34m[src/memory/paddr.c:97 mtrace_log] R: 0x80002124 (len=4) data=0x001d8d93[0m
0x80002124: 00 1d 8d 93 addi	s11, s11, 1
[1;34m[src/memory/paddr.c:97 mtrace_log] R: 0x80002128 (len=4) data=0xfef48fa3[0m
[1;34m[src/memory/paddr.c:97 mtrace_log] W: 0x80095522 (len=1) data=0x00000065[0m
0x80002128: fe f4 8f a3 sb	a5, -1(s1)
[1;34m[src/memory/paddr.c:97 mtrace_log] R: 0x8000212c (len=4) data=0xfe9718e3[0m
0x8000212c: fe 97 18 e3 bne	a4, s1, -0x10
[1;34m[src/memory/paddr.c:97 mtrace_log] R: 0x8000211c (len=4) data=0x000dc783[0m
[1;34m[src/memory/paddr.c:97 mtrace_log] R: 0x8000297a (len=1) data=0x00000061[0m
0x8000211c: 00 0d c7 83 lbu	a5, 0(s11)
[1;34m[src/memory/paddr.c:97 mtrace_log] R: 0x80002120 (len=4) data=0x00148493[0m
0x80002120: 00 14 84 93 addi	s1, s1, 1
[1;34m[src/memory/paddr.c:97 mtrace_log] R: 0x80002124 (len=4) data=0x001d8d93[0m
0x80002124: 00 1d 8d 93 addi	s11, s11, 1
[1;34m[src/memory/paddr.c:97 mtrace_log] R: 0x80002128 (len=4) data=0xfef48fa3[0m
[1;34m[src/memory/paddr.c:97 mtrace_log] W: 0x80095523 (len=1) data=0x00000061[0m
0x80002128: fe f4 8f a3 sb	a5, -1(s1)
[1;34m[src/memory/paddr.c:97 mtrace_log] R: 0x8000212c (len=4) data=0xfe9718e3[0m
0x8000212c: fe 97 18 e3 bne	a4, s1, -0x10
[1;34m[src/memory/paddr.c:97 mtrace_log] R: 0x8000211c (len=4) data=0x000dc783[0m
[1;34m[src/memory/paddr.c:97 mtrace_log] R: 0x8000297b (len=1) data=0x00000064[0m
0x8000211c: 00 0d c7 83 lbu	a5, 0(s11)
[1;34m[src/memory/paddr.c:97 mtrace_log] R: 0x80002120 (len=4) data=0x00148493[0m
0x80002120: 00 14 84 93 addi	s1, s1, 1
[1;34m[src/memory/paddr.c:97 mtrace_log] R: 0x80002124 (len=4) data=0x001d8d93[0m
0x80002124: 00 1d 8d 93 addi	s11, s11, 1
[1;34m[src/memory/paddr.c:97 mtrace_log] R: 0x80002128 (len=4) data=0xfef48fa3[0m
[1;34m[src/memory/paddr.c:97 mtrace_log] W: 0x80095524 (len=1) data=0x00000064[0m
0x80002128: fe f4 8f a3 sb	a5, -1(s1)
[1;34m[src/memory/paddr.c:97 mtrace_log] R: 0x8000212c (len=4) data=0xfe9718e3[0m
0x8000212c: fe 97 18 e3 bne	a4, s1, -0x10
[1;34m[src/memory/paddr.c:97 mtrace_log] R: 0x8000211c (len=4) data=0x000dc783[0m
[1;34m[src/memory/paddr.c:97 mtrace_log] R: 0x8000297c (len=1) data=0x0000006b[0m
0x8000211c: 00 0d c7 83 lbu	a5, 0(s11)
[1;34m[src/memory/paddr.c:97 mtrace_log] R: 0x80002120 (len=4) data=0x00148493[0m
0x80002120: 00 14 84 93 addi	s1, s1, 1
[1;34m[src/memory/paddr.c:97 mtrace_log] R: 0x80002124 (len=4) data=0x001d8d93[0m
0x80002124: 00 1d 8d 93 addi	s11, s11, 1
[1;34m[src/memory/paddr.c:97 mtrace_log] R: 0x80002128 (len=4) data=0xfef48fa3[0m
[1;34m[src/memory/paddr.c:97 mtrace_log] W: 0x80095525 (len=1) data=0x0000006b[0m
0x80002128: fe f4 8f a3 sb	a5, -1(s1)
[1;34m[src/memory/paddr.c:97 mtrace_log] R: 0x8000212c (len=4) data=0xfe9718e3[0m
0x8000212c: fe 97 18 e3 bne	a4, s1, -0x10
[1;34m[src/memory/paddr.c:97 mtrace_log] R: 0x8000211c (len=4) data=0x000dc783[0m
[1;34m[src/memory/paddr.c:97 mtrace_log] R: 0x8000297d (len=1) data=0x00000065[0m
0x8000211c: 00 0d c7 83 lbu	a5, 0(s11)
[1;34m[src/memory/paddr.c:97 mtrace_log] R: 0x80002120 (len=4) data=0x00148493[0m
0x80002120: 00 14 84 93 addi	s1, s1, 1
[1;34m[src/memory/paddr.c:97 mtrace_log] R: 0x80002124 (len=4) data=0x001d8d93[0m
0x80002124: 00 1d 8d 93 addi	s11, s11, 1
[1;34m[src/memory/paddr.c:97 mtrace_log] R: 0x80002128 (len=4) data=0xfef48fa3[0m
[1;34m[src/memory/paddr.c:97 mtrace_log] W: 0x80095526 (len=1) data=0x00000065[0m
0x80002128: fe f4 8f a3 sb	a5, -1(s1)
[1;34m[src/memory/paddr.c:97 mtrace_log] R: 0x8000212c (len=4) data=0xfe9718e3[0m
0x8000212c: fe 97 18 e3 bne	a4, s1, -0x10
[1;34m[src/memory/paddr.c:97 mtrace_log] R: 0x8000211c (len=4) data=0x000dc783[0m
[1;34m[src/memory/paddr.c:97 mtrace_log] R: 0x8000297e (len=1) data=0x00000079[0m
0x8000211c: 00 0d c7 83 lbu	a5, 0(s11)
[1;34m[src/memory/paddr.c:97 mtrace_log] R: 0x80002120 (len=4) data=0x00148493[0m
0x80002120: 00 14 84 93 addi	s1, s1, 1
[1;34m[src/memory/paddr.c:97 mtrace_log] R: 0x80002124 (len=4) data=0x001d8d93[0m
0x80002124: 00 1d 8d 93 addi	s11, s11, 1
[1;34m[src/memory/paddr.c:97 mtrace_log] R: 0x80002128 (len=4) data=0xfef48fa3[0m
[1;34m[src/memory/paddr.c:97 mtrace_log] W: 0x80095527 (len=1) data=0x00000079[0m
0x80002128: fe f4 8f a3 sb	a5, -1(s1)
[1;34m[src/memory/paddr.c:97 mtrace_log] R: 0x8000212c (len=4) data=0xfe9718e3[0m
0x8000212c: fe 97 18 e3 bne	a4, s1, -0x10
[1;34m[src/memory/paddr.c:97 mtrace_log] R: 0x8000211c (len=4) data=0x000dc783[0m
[1;34m[src/memory/paddr.c:97 mtrace_log] R: 0x8000297f (len=1) data=0x00000020[0m
0x8000211c: 00 0d c7 83 lbu	a5, 0(s11)
[1;34m[src/memory/paddr.c:97 mtrace_log] R: 0x80002120 (len=4) data=0x00148493[0m
0x80002120: 00 14 84 93 addi	s1, s1, 1
[1;34m[src/memory/paddr.c:97 mtrace_log] R: 0x80002124 (len=4) data=0x001d8d93[0m
0x80002124: 00 1d 8d 93 addi	s11, s11, 1
[1;34m[src/memory/paddr.c:97 mtrace_log] R: 0x80002128 (len=4) data=0xfef48fa3[0m
[1;34m[src/memory/paddr.c:97 mtrace_log] W: 0x80095528 (len=1) data=0x00000020[0m
0x80002128: fe f4 8f a3 sb	a5, -1(s1)
[1;34m[src/memory/paddr.c:97 mtrace_log] R: 0x8000212c (len=4) data=0xfe9718e3[0m
0x8000212c: fe 97 18 e3 bne	a4, s1, -0x10
[1;34m[src/memory/paddr.c:97 mtrace_log] R: 0x8000211c (len=4) data=0x000dc783[0m
[1;34m[src/memory/paddr.c:97 mtrace_log] R: 0x80002980 (len=1) data=0x00000074[0m
0x8000211c: 00 0d c7 83 lbu	a5, 0(s11)
[1;34m[src/memory/paddr.c:97 mtrace_log] R: 0x80002120 (len=4) data=0x00148493[0m
0x80002120: 00 14 84 93 addi	s1, s1, 1
[1;34m[src/memory/paddr.c:97 mtrace_log] R: 0x80002124 (len=4) data=0x001d8d93[0m
0x80002124: 00 1d 8d 93 addi	s11, s11, 1
[1;34m[src/memory/paddr.c:97 mtrace_log] R: 0x80002128 (len=4) data=0xfef48fa3[0m
[1;34m[src/memory/paddr.c:97 mtrace_log] W: 0x80095529 (len=1) data=0x00000074[0m
0x80002128: fe f4 8f a3 sb	a5, -1(s1)
[1;34m[src/memory/paddr.c:97 mtrace_log] R: 0x8000212c (len=4) data=0xfe9718e3[0m
0x8000212c: fe 97 18 e3 bne	a4, s1, -0x10
[1;34m[src/memory/paddr.c:97 mtrace_log] R: 0x8000211c (len=4) data=0x000dc783[0m
[1;34m[src/memory/paddr.c:97 mtrace_log] R: 0x80002981 (len=1) data=0x00000065[0m
0x8000211c: 00 0d c7 83 lbu	a5, 0(s11)
[1;34m[src/memory/paddr.c:97 mtrace_log] R: 0x80002120 (len=4) data=0x00148493[0m
0x80002120: 00 14 84 93 addi	s1, s1, 1
[1;34m[src/memory/paddr.c:97 mtrace_log] R: 0x80002124 (len=4) data=0x001d8d93[0m
0x80002124: 00 1d 8d 93 addi	s11, s11, 1
[1;34m[src/memory/paddr.c:97 mtrace_log] R: 0x80002128 (len=4) data=0xfef48fa3[0m
[1;34m[src/memory/paddr.c:97 mtrace_log] W: 0x8009552a (len=1) data=0x00000065[0m
0x80002128: fe f4 8f a3 sb	a5, -1(s1)
[1;34m[src/memory/paddr.c:97 mtrace_log] R: 0x8000212c (len=4) data=0xfe9718e3[0m
0x8000212c: fe 97 18 e3 bne	a4, s1, -0x10
[1;34m[src/memory/paddr.c:97 mtrace_log] R: 0x8000211c (len=4) data=0x000dc783[0m
[1;34m[src/memory/paddr.c:97 mtrace_log] R: 0x80002982 (len=1) data=0x00000073[0m
0x8000211c: 00 0d c7 83 lbu	a5, 0(s11)
[1;34m[src/memory/paddr.c:97 mtrace_log] R: 0x80002120 (len=4) data=0x00148493[0m
0x80002120: 00 14 84 93 addi	s1, s1, 1
[1;34m[src/memory/paddr.c:97 mtrace_log] R: 0x80002124 (len=4) data=0x001d8d93[0m
0x80002124: 00 1d 8d 93 addi	s11, s11, 1
[1;34m[src/memory/paddr.c:97 mtrace_log] R: 0x80002128 (len=4) data=0xfef48fa3[0m
[1;34m[src/memory/paddr.c:97 mtrace_log] W: 0x8009552b (len=1) data=0x00000073[0m
0x80002128: fe f4 8f a3 sb	a5, -1(s1)
[1;34m[src/memory/paddr.c:97 mtrace_log] R: 0x8000212c (len=4) data=0xfe9718e3[0m
0x8000212c: fe 97 18 e3 bne	a4, s1, -0x10
[1;34m[src/memory/paddr.c:97 mtrace_log] R: 0x8000211c (len=4) data=0x000dc783[0m
[1;34m[src/memory/paddr.c:97 mtrace_log] R: 0x80002983 (len=1) data=0x00000074[0m
0x8000211c: 00 0d c7 83 lbu	a5, 0(s11)
[1;34m[src/memory/paddr.c:97 mtrace_log] R: 0x80002120 (len=4) data=0x00148493[0m
0x80002120: 00 14 84 93 addi	s1, s1, 1
[1;34m[src/memory/paddr.c:97 mtrace_log] R: 0x80002124 (len=4) data=0x001d8d93[0m
0x80002124: 00 1d 8d 93 addi	s11, s11, 1
[1;34m[src/memory/paddr.c:97 mtrace_log] R: 0x80002128 (len=4) data=0xfef48fa3[0m
[1;34m[src/memory/paddr.c:97 mtrace_log] W: 0x8009552c (len=1) data=0x00000074[0m
0x80002128: fe f4 8f a3 sb	a5, -1(s1)
[1;34m[src/memory/paddr.c:97 mtrace_log] R: 0x8000212c (len=4) data=0xfe9718e3[0m
0x8000212c: fe 97 18 e3 bne	a4, s1, -0x10
[1;34m[src/memory/paddr.c:97 mtrace_log] R: 0x80002130 (len=4) data=0x40a684b3[0m
0x80002130: 40 a6 84 b3 sub	s1, a3, a0
[1;34m[src/memory/paddr.c:97 mtrace_log] R: 0x80002134 (len=4) data=0x00140593[0m
0x80002134: 00 14 05 93 addi	a1, s0, 1
[1;34m[src/memory/paddr.c:97 mtrace_log] R: 0x80002138 (len=4) data=0x009704b3[0m
0x80002138: 00 97 04 b3 add	s1, a4, s1
[1;34m[src/memory/paddr.c:97 mtrace_log] R: 0x8000213c (len=4) data=0x02000793[0m
0x8000213c: 02 00 07 93 addi	a5, zero, 0x20
[1;34m[src/memory/paddr.c:97 mtrace_log] R: 0x80002140 (len=4) data=0x16d55663[0m
0x80002140: 16 d5 56 63 bge	a0, a3, 0x16c
[1;34m[src/memory/paddr.c:97 mtrace_log] R: 0x800022ac (len=4) data=0x00144783[0m
[1;34m[src/memory/paddr.c:97 mtrace_log] R: 0x8000291c (len=1) data=0x0000000a[0m
0x800022ac: 00 14 47 83 lbu	a5, 1(s0)
[1;34m[src/memory/paddr.c:97 mtrace_log] R: 0x800022b0 (len=4) data=0x01c12d83[0m
[1;34m[src/memory/paddr.c:97 mtrace_log] R: 0x8009df5c (len=4) data=0x00000000[0m
0x800022b0: 01 c1 2d 83 lw	s11, 0x1c(sp)
[1;34m[src/memory/paddr.c:97 mtrace_log] R: 0x800022b4 (len=4) data=0x00070493[0m
0x800022b4: 00 07 04 93 mv	s1, a4
[1;34m[src/memory/paddr.c:97 mtrace_log] R: 0x800022b8 (len=4) data=0xbc0792e3[0m
0x800022b8: bc 07 92 e3 bnez	a5, -0x43c
[1;34m[src/memory/paddr.c:97 mtrace_log] R: 0x80001e7c (len=4) data=0x05578c63[0m
0x80001e7c: 05 57 8c 63 beq	a5, s5, 0x58
[1;34m[src/memory/paddr.c:97 mtrace_log] R: 0x80001e80 (len=4) data=0x00f48023[0m
[1;34m[src/memory/paddr.c:97 mtrace_log] W: 0x8009552d (len=1) data=0x0000000a[0m
0x80001e80: 00 f4 80 23 sb	a5, 0(s1)
[1;34m[src/memory/paddr.c:97 mtrace_log] R: 0x80001e84 (len=4) data=0x0015c783[0m
[1;34m[src/memory/paddr.c:97 mtrace_log] R: 0x8000291d (len=1) data=0x00000000[0m
0x80001e84: 00 15 c7 83 lbu	a5, 1(a1)
[1;34m[src/memory/paddr.c:97 mtrace_log] R: 0x80001e88 (len=4) data=0x00148493[0m
0x80001e88: 00 14 84 93 addi	s1, s1, 1
[1;34m[src/memory/paddr.c:97 mtrace_log] R: 0x80001e8c (len=4) data=0x00158593[0m
0x80001e8c: 00 15 85 93 addi	a1, a1, 1
[1;34m[src/memory/paddr.c:97 mtrace_log] R: 0x80001e90 (len=4) data=0xfe0796e3[0m
0x80001e90: fe 07 96 e3 bnez	a5, -0x14
[1;34m[src/memory/paddr.c:97 mtrace_log] R: 0x80001e94 (len=4) data=0x04812403[0m
[1;34m[src/memory/paddr.c:97 mtrace_log] R: 0x8009df88 (len=4) data=0x0000006b[0m
0x80001e94: 04 81 24 03 lw	s0, 0x48(sp)
[1;34m[src/memory/paddr.c:97 mtrace_log] R: 0x80001e98 (len=4) data=0x04012903[0m
[1;34m[src/memory/paddr.c:97 mtrace_log] R: 0x8009df80 (len=4) data=0x00000100[0m
0x80001e98: 04 01 29 03 lw	s2, 0x40(sp)
[1;34m[src/memory/paddr.c:97 mtrace_log] R: 0x80001e9c (len=4) data=0x03c12983[0m
[1;34m[src/memory/paddr.c:97 mtrace_log] R: 0x8009df7c (len=4) data=0x80002914[0m
0x80001e9c: 03 c1 29 83 lw	s3, 0x3c(sp)
[1;34m[src/memory/paddr.c:97 mtrace_log] R: 0x80001ea0 (len=4) data=0x03812a03[0m
[1;34m[src/memory/paddr.c:97 mtrace_log] R: 0x8009df78 (len=4) data=0x00000000[0m
0x80001ea0: 03 81 2a 03 lw	s4, 0x38(sp)
[1;34m[src/memory/paddr.c:97 mtrace_log] R: 0x80001ea4 (len=4) data=0x03412a83[0m
[1;34m[src/memory/paddr.c:97 mtrace_log] R: 0x8009df74 (len=4) data=0x00000000[0m
0x80001ea4: 03 41 2a 83 lw	s5, 0x34(sp)
[1;34m[src/memory/paddr.c:97 mtrace_log] R: 0x80001ea8 (len=4) data=0x02c12b83[0m
[1;34m[src/memory/paddr.c:97 mtrace_log] R: 0x8009df6c (len=4) data=0x00000000[0m
0x80001ea8: 02 c1 2b 83 lw	s7, 0x2c(sp)
[1;34m[src/memory/paddr.c:97 mtrace_log] R: 0x80001eac (len=4) data=0x02812c03[0m
[1;34m[src/memory/paddr.c:97 mtrace_log] R: 0x8009df68 (len=4) data=0x00000000[0m
0x80001eac: 02 81 2c 03 lw	s8, 0x28(sp)
[1;34m[src/memory/paddr.c:97 mtrace_log] R: 0x80001eb0 (len=4) data=0x02412c83[0m
[1;34m[src/memory/paddr.c:97 mtrace_log] R: 0x8009df64 (len=4) data=0x00000000[0m
0x80001eb0: 02 41 2c 83 lw	s9, 0x24(sp)
[1;34m[src/memory/paddr.c:97 mtrace_log] R: 0x80001eb4 (len=4) data=0x02012d03[0m
[1;34m[src/memory/paddr.c:97 mtrace_log] R: 0x8009df60 (len=4) data=0x00000000[0m
0x80001eb4: 02 01 2d 03 lw	s10, 0x20(sp)
[1;34m[src/memory/paddr.c:97 mtrace_log] R: 0x80001eb8 (len=4) data=0x00048023[0m
[1;34m[src/memory/paddr.c:97 mtrace_log] W: 0x8009552e (len=1) data=0x00000000[0m
0x80001eb8: 00 04 80 23 sb	zero, 0(s1)
[1;34m[src/memory/paddr.c:97 mtrace_log] R: 0x80001ebc (len=4) data=0x04c12083[0m
[1;34m[src/memory/paddr.c:97 mtrace_log] R: 0x8009df8c (len=4) data=0x80002340[0m
0x80001ebc: 04 c1 20 83 lw	ra, 0x4c(sp)
[1;34m[src/memory/paddr.c:97 mtrace_log] R: 0x80001ec0 (len=4) data=0x41648533[0m
0x80001ec0: 41 64 85 33 sub	a0, s1, s6
[1;34m[src/memory/paddr.c:97 mtrace_log] R: 0x80001ec4 (len=4) data=0x04412483[0m
[1;34m[src/memory/paddr.c:97 mtrace_log] R: 0x8009df84 (len=4) data=0x80002ea4[0m
0x80001ec4: 04 41 24 83 lw	s1, 0x44(sp)
[1;34m[src/memory/paddr.c:97 mtrace_log] R: 0x80001ec8 (len=4) data=0x03012b03[0m
[1;34m[src/memory/paddr.c:97 mtrace_log] R: 0x8009df70 (len=4) data=0x00000000[0m
0x80001ec8: 03 01 2b 03 lw	s6, 0x30(sp)
[1;34m[src/memory/paddr.c:97 mtrace_log] R: 0x80001ecc (len=4) data=0x05010113[0m
0x80001ecc: 05 01 01 13 addi	sp, sp, 0x50
[1;34m[src/memory/paddr.c:97 mtrace_log] R: 0x80001ed0 (len=4) data=0x00008067[0m
0x80001ed0: 00 00 80 67 ret
[1;34m[src/memory/paddr.c:97 mtrace_log] R: 0x80002340 (len=4) data=0x00093797[0m
0x80002340: 00 09 37 97 auipc	a5, 0x93
[1;34m[src/memory/paddr.c:97 mtrace_log] R: 0x80002344 (len=4) data=0x1dc78793[0m
0x80002344: 1d c7 87 93 addi	a5, a5, 0x1dc
[1;34m[src/memory/paddr.c:97 mtrace_log] R: 0x80002348 (len=4) data=0x0007c703[0m
[1;34m[src/memory/paddr.c:97 mtrace_log] R: 0x8009551c (len=1) data=0x00000020[0m
0x80002348: 00 07 c7 03 lbu	a4, 0(a5)
[1;34m[src/memory/paddr.c:97 mtrace_log] R: 0x8000234c (len=4) data=0x00070e63[0m
0x8000234c: 00 07 0e 63 beqz	a4, 0x1c
[1;34m[src/memory/paddr.c:97 mtrace_log] R: 0x80002350 (len=4) data=0xa00006b7[0m
0x80002350: a0 00 06 b7 lui	a3, 0xa0000
[1;34m[src/memory/paddr.c:97 mtrace_log] R: 0x80002354 (len=4) data=0x3f868693[0m
0x80002354: 3f 86 86 93 addi	a3, a3, 0x3f8
[1;34m[src/memory/paddr.c:97 mtrace_log] R: 0x80002358 (len=4) data=0x00178793[0m
0x80002358: 00 17 87 93 addi	a5, a5, 1
[1;34m[src/memory/paddr.c:97 mtrace_log] R: 0x8000235c (len=4) data=0x00e68023[0m
[1;34m[src/memory/paddr.c:97 mtrace_log] W: 0xa00003f8 (len=1) data=0x00000020[0m
0x8000235c: 00 e6 80 23 sb	a4, 0(a3)
[1;34m[src/memory/paddr.c:97 mtrace_log] R: 0x80002360 (len=4) data=0x0007c703[0m
[1;34m[src/memory/paddr.c:97 mtrace_log] R: 0x8009551d (len=1) data=0x00000020[0m
0x80002360: 00 07 c7 03 lbu	a4, 0(a5)
[1;34m[src/memory/paddr.c:97 mtrace_log] R: 0x80002364 (len=4) data=0xfe071ae3[0m
0x80002364: fe 07 1a e3 bnez	a4, -0xc
[1;34m[src/memory/paddr.c:97 mtrace_log] R: 0x80002358 (len=4) data=0x00178793[0m
0x80002358: 00 17 87 93 addi	a5, a5, 1
[1;34m[src/memory/paddr.c:97 mtrace_log] R: 0x8000235c (len=4) data=0x00e68023[0m
[1;34m[src/memory/paddr.c:97 mtrace_log] W: 0xa00003f8 (len=1) data=0x00000020[0m
0x8000235c: 00 e6 80 23 sb	a4, 0(a3)
[1;34m[src/memory/paddr.c:97 mtrace_log] R: 0x80002360 (len=4) data=0x0007c703[0m
[1;34m[src/memory/paddr.c:97 mtrace_log] R: 0x8009551e (len=1) data=0x0000006b[0m
0x80002360: 00 07 c7 03 lbu	a4, 0(a5)
[1;34m[src/memory/paddr.c:97 mtrace_log] R: 0x80002364 (len=4) data=0xfe071ae3[0m
0x80002364: fe 07 1a e3 bnez	a4, -0xc
[1;34m[src/memory/paddr.c:97 mtrace_log] R: 0x80002358 (len=4) data=0x00178793[0m
0x80002358: 00 17 87 93 addi	a5, a5, 1
[1;34m[src/memory/paddr.c:97 mtrace_log] R: 0x8000235c (len=4) data=0x00e68023[0m
[1;34m[src/memory/paddr.c:97 mtrace_log] W: 0xa00003f8 (len=1) data=0x0000006b[0m
0x8000235c: 00 e6 80 23 sb	a4, 0(a3)
[1;34m[src/memory/paddr.c:97 mtrace_log] R: 0x80002360 (len=4) data=0x0007c703[0m
[1;34m[src/memory/paddr.c:97 mtrace_log] R: 0x8009551f (len=1) data=0x0000003a[0m
0x80002360: 00 07 c7 03 lbu	a4, 0(a5)
[1;34m[src/memory/paddr.c:97 mtrace_log] R: 0x80002364 (len=4) data=0xfe071ae3[0m
0x80002364: fe 07 1a e3 bnez	a4, -0xc
[1;34m[src/memory/paddr.c:97 mtrace_log] R: 0x80002358 (len=4) data=0x00178793[0m
0x80002358: 00 17 87 93 addi	a5, a5, 1
[1;34m[src/memory/paddr.c:97 mtrace_log] R: 0x8000235c (len=4) data=0x00e68023[0m
[1;34m[src/memory/paddr.c:97 mtrace_log] W: 0xa00003f8 (len=1) data=0x0000003a[0m
0x8000235c: 00 e6 80 23 sb	a4, 0(a3)
[1;34m[src/memory/paddr.c:97 mtrace_log] R: 0x80002360 (len=4) data=0x0007c703[0m
[1;34m[src/memory/paddr.c:97 mtrace_log] R: 0x80095520 (len=1) data=0x00000020[0m
0x80002360: 00 07 c7 03 lbu	a4, 0(a5)
[1;34m[src/memory/paddr.c:97 mtrace_log] R: 0x80002364 (len=4) data=0xfe071ae3[0m
0x80002364: fe 07 1a e3 bnez	a4, -0xc
[1;34m[src/memory/paddr.c:97 mtrace_log] R: 0x80002358 (len=4) data=0x00178793[0m
0x80002358: 00 17 87 93 addi	a5, a5, 1
[1;34m[src/memory/paddr.c:97 mtrace_log] R: 0x8000235c (len=4) data=0x00e68023[0m
[1;34m[src/memory/paddr.c:97 mtrace_log] W: 0xa00003f8 (len=1) data=0x00000020[0m
0x8000235c: 00 e6 80 23 sb	a4, 0(a3)
[1;34m[src/memory/paddr.c:97 mtrace_log] R: 0x80002360 (len=4) data=0x0007c703[0m
[1;34m[src/memory/paddr.c:97 mtrace_log] R: 0x80095521 (len=1) data=0x00000072[0m
0x80002360: 00 07 c7 03 lbu	a4, 0(a5)
[1;34m[src/memory/paddr.c:97 mtrace_log] R: 0x80002364 (len=4) data=0xfe071ae3[0m
0x80002364: fe 07 1a e3 bnez	a4, -0xc
[1;34m[src/memory/paddr.c:97 mtrace_log] R: 0x80002358 (len=4) data=0x00178793[0m
0x80002358: 00 17 87 93 addi	a5, a5, 1
[1;34m[src/memory/paddr.c:97 mtrace_log] R: 0x8000235c (len=4) data=0x00e68023[0m
[1;34m[src/memory/paddr.c:97 mtrace_log] W: 0xa00003f8 (len=1) data=0x00000072[0m
0x8000235c: 00 e6 80 23 sb	a4, 0(a3)
[1;34m[src/memory/paddr.c:97 mtrace_log] R: 0x80002360 (len=4) data=0x0007c703[0m
[1;34m[src/memory/paddr.c:97 mtrace_log] R: 0x80095522 (len=1) data=0x00000065[0m
0x80002360: 00 07 c7 03 lbu	a4, 0(a5)
[1;34m[src/memory/paddr.c:97 mtrace_log] R: 0x80002364 (len=4) data=0xfe071ae3[0m
0x80002364: fe 07 1a e3 bnez	a4, -0xc
[1;34m[src/memory/paddr.c:97 mtrace_log] R: 0x80002358 (len=4) data=0x00178793[0m
0x80002358: 00 17 87 93 addi	a5, a5, 1
[1;34m[src/memory/paddr.c:97 mtrace_log] R: 0x8000235c (len=4) data=0x00e68023[0m
[1;34m[src/memory/paddr.c:97 mtrace_log] W: 0xa00003f8 (len=1) data=0x00000065[0m
0x8000235c: 00 e6 80 23 sb	a4, 0(a3)
[1;34m[src/memory/paddr.c:97 mtrace_log] R: 0x80002360 (len=4) data=0x0007c703[0m
[1;34m[src/memory/paddr.c:97 mtrace_log] R: 0x80095523 (len=1) data=0x00000061[0m
0x80002360: 00 07 c7 03 lbu	a4, 0(a5)
[1;34m[src/memory/paddr.c:97 mtrace_log] R: 0x80002364 (len=4) data=0xfe071ae3[0m
0x80002364: fe 07 1a e3 bnez	a4, -0xc
[1;34m[src/memory/paddr.c:97 mtrace_log] R: 0x80002358 (len=4) data=0x00178793[0m
0x80002358: 00 17 87 93 addi	a5, a5, 1
[1;34m[src/memory/paddr.c:97 mtrace_log] R: 0x8000235c (len=4) data=0x00e68023[0m
[1;34m[src/memory/paddr.c:97 mtrace_log] W: 0xa00003f8 (len=1) data=0x00000061[0m
0x8000235c: 00 e6 80 23 sb	a4, 0(a3)
[1;34m[src/memory/paddr.c:97 mtrace_log] R: 0x80002360 (len=4) data=0x0007c703[0m
[1;34m[src/memory/paddr.c:97 mtrace_log] R: 0x80095524 (len=1) data=0x00000064[0m
0x80002360: 00 07 c7 03 lbu	a4, 0(a5)
[1;34m[src/memory/paddr.c:97 mtrace_log] R: 0x80002364 (len=4) data=0xfe071ae3[0m
0x80002364: fe 07 1a e3 bnez	a4, -0xc
[1;34m[src/memory/paddr.c:97 mtrace_log] R: 0x80002358 (len=4) data=0x00178793[0m
0x80002358: 00 17 87 93 addi	a5, a5, 1
[1;34m[src/memory/paddr.c:97 mtrace_log] R: 0x8000235c (len=4) data=0x00e68023[0m
[1;34m[src/memory/paddr.c:97 mtrace_log] W: 0xa00003f8 (len=1) data=0x00000064[0m
0x8000235c: 00 e6 80 23 sb	a4, 0(a3)
[1;34m[src/memory/paddr.c:97 mtrace_log] R: 0x80002360 (len=4) data=0x0007c703[0m
[1;34m[src/memory/paddr.c:97 mtrace_log] R: 0x80095525 (len=1) data=0x0000006b[0m
0x80002360: 00 07 c7 03 lbu	a4, 0(a5)
[1;34m[src/memory/paddr.c:97 mtrace_log] R: 0x80002364 (len=4) data=0xfe071ae3[0m
0x80002364: fe 07 1a e3 bnez	a4, -0xc
[1;34m[src/memory/paddr.c:97 mtrace_log] R: 0x80002358 (len=4) data=0x00178793[0m
0x80002358: 00 17 87 93 addi	a5, a5, 1
[1;34m[src/memory/paddr.c:97 mtrace_log] R: 0x8000235c (len=4) data=0x00e68023[0m
[1;34m[src/memory/paddr.c:97 mtrace_log] W: 0xa00003f8 (len=1) data=0x0000006b[0m
0x8000235c: 00 e6 80 23 sb	a4, 0(a3)
[1;34m[src/memory/paddr.c:97 mtrace_log] R: 0x80002360 (len=4) data=0x0007c703[0m
[1;34m[src/memory/paddr.c:97 mtrace_log] R: 0x80095526 (len=1) data=0x00000065[0m
0x80002360: 00 07 c7 03 lbu	a4, 0(a5)
[1;34m[src/memory/paddr.c:97 mtrace_log] R: 0x80002364 (len=4) data=0xfe071ae3[0m
0x80002364: fe 07 1a e3 bnez	a4, -0xc
[1;34m[src/memory/paddr.c:97 mtrace_log] R: 0x80002358 (len=4) data=0x00178793[0m
0x80002358: 00 17 87 93 addi	a5, a5, 1
[1;34m[src/memory/paddr.c:97 mtrace_log] R: 0x8000235c (len=4) data=0x00e68023[0m
[1;34m[src/memory/paddr.c:97 mtrace_log] W: 0xa00003f8 (len=1) data=0x00000065[0m
0x8000235c: 00 e6 80 23 sb	a4, 0(a3)
[1;34m[src/memory/paddr.c:97 mtrace_log] R: 0x80002360 (len=4) data=0x0007c703[0m
[1;34m[src/memory/paddr.c:97 mtrace_log] R: 0x80095527 (len=1) data=0x00000079[0m
0x80002360: 00 07 c7 03 lbu	a4, 0(a5)
[1;34m[src/memory/paddr.c:97 mtrace_log] R: 0x80002364 (len=4) data=0xfe071ae3[0m
0x80002364: fe 07 1a e3 bnez	a4, -0xc
[1;34m[src/memory/paddr.c:97 mtrace_log] R: 0x80002358 (len=4) data=0x00178793[0m
0x80002358: 00 17 87 93 addi	a5, a5, 1
[1;34m[src/memory/paddr.c:97 mtrace_log] R: 0x8000235c (len=4) data=0x00e68023[0m
[1;34m[src/memory/paddr.c:97 mtrace_log] W: 0xa00003f8 (len=1) data=0x00000079[0m
0x8000235c: 00 e6 80 23 sb	a4, 0(a3)
[1;34m[src/memory/paddr.c:97 mtrace_log] R: 0x80002360 (len=4) data=0x0007c703[0m
[1;34m[src/memory/paddr.c:97 mtrace_log] R: 0x80095528 (len=1) data=0x00000020[0m
0x80002360: 00 07 c7 03 lbu	a4, 0(a5)
[1;34m[src/memory/paddr.c:97 mtrace_log] R: 0x80002364 (len=4) data=0xfe071ae3[0m
0x80002364: fe 07 1a e3 bnez	a4, -0xc
[1;34m[src/memory/paddr.c:97 mtrace_log] R: 0x80002358 (len=4) data=0x00178793[0m
0x80002358: 00 17 87 93 addi	a5, a5, 1
[1;34m[src/memory/paddr.c:97 mtrace_log] R: 0x8000235c (len=4) data=0x00e68023[0m
[1;34m[src/memory/paddr.c:97 mtrace_log] W: 0xa00003f8 (len=1) data=0x00000020[0m
0x8000235c: 00 e6 80 23 sb	a4, 0(a3)
[1;34m[src/memory/paddr.c:97 mtrace_log] R: 0x80002360 (len=4) data=0x0007c703[0m
[1;34m[src/memory/paddr.c:97 mtrace_log] R: 0x80095529 (len=1) data=0x00000074[0m
0x80002360: 00 07 c7 03 lbu	a4, 0(a5)
[1;34m[src/memory/paddr.c:97 mtrace_log] R: 0x80002364 (len=4) data=0xfe071ae3[0m
0x80002364: fe 07 1a e3 bnez	a4, -0xc
[1;34m[src/memory/paddr.c:97 mtrace_log] R: 0x80002358 (len=4) data=0x00178793[0m
0x80002358: 00 17 87 93 addi	a5, a5, 1
[1;34m[src/memory/paddr.c:97 mtrace_log] R: 0x8000235c (len=4) data=0x00e68023[0m
[1;34m[src/memory/paddr.c:97 mtrace_log] W: 0xa00003f8 (len=1) data=0x00000074[0m
0x8000235c: 00 e6 80 23 sb	a4, 0(a3)
[1;34m[src/memory/paddr.c:97 mtrace_log] R: 0x80002360 (len=4) data=0x0007c703[0m
[1;34m[src/memory/paddr.c:97 mtrace_log] R: 0x8009552a (len=1) data=0x00000065[0m
0x80002360: 00 07 c7 03 lbu	a4, 0(a5)
[1;34m[src/memory/paddr.c:97 mtrace_log] R: 0x80002364 (len=4) data=0xfe071ae3[0m
0x80002364: fe 07 1a e3 bnez	a4, -0xc
[1;34m[src/memory/paddr.c:97 mtrace_log] R: 0x80002358 (len=4) data=0x00178793[0m
0x80002358: 00 17 87 93 addi	a5, a5, 1
[1;34m[src/memory/paddr.c:97 mtrace_log] R: 0x8000235c (len=4) data=0x00e68023[0m
[1;34m[src/memory/paddr.c:97 mtrace_log] W: 0xa00003f8 (len=1) data=0x00000065[0m
0x8000235c: 00 e6 80 23 sb	a4, 0(a3)
[1;34m[src/memory/paddr.c:97 mtrace_log] R: 0x80002360 (len=4) data=0x0007c703[0m
[1;34m[src/memory/paddr.c:97 mtrace_log] R: 0x8009552b (len=1) data=0x00000073[0m
0x80002360: 00 07 c7 03 lbu	a4, 0(a5)
[1;34m[src/memory/paddr.c:97 mtrace_log] R: 0x80002364 (len=4) data=0xfe071ae3[0m
0x80002364: fe 07 1a e3 bnez	a4, -0xc
[1;34m[src/memory/paddr.c:97 mtrace_log] R: 0x80002358 (len=4) data=0x00178793[0m
0x80002358: 00 17 87 93 addi	a5, a5, 1
[1;34m[src/memory/paddr.c:97 mtrace_log] R: 0x8000235c (len=4) data=0x00e68023[0m
[1;34m[src/memory/paddr.c:97 mtrace_log] W: 0xa00003f8 (len=1) data=0x00000073[0m
0x8000235c: 00 e6 80 23 sb	a4, 0(a3)
[1;34m[src/memory/paddr.c:97 mtrace_log] R: 0x80002360 (len=4) data=0x0007c703[0m
[1;34m[src/memory/paddr.c:97 mtrace_log] R: 0x8009552c (len=1) data=0x00000074[0m
0x80002360: 00 07 c7 03 lbu	a4, 0(a5)
[1;34m[src/memory/paddr.c:97 mtrace_log] R: 0x80002364 (len=4) data=0xfe071ae3[0m
0x80002364: fe 07 1a e3 bnez	a4, -0xc
[1;34m[src/memory/paddr.c:97 mtrace_log] R: 0x80002358 (len=4) data=0x00178793[0m
0x80002358: 00 17 87 93 addi	a5, a5, 1
[1;34m[src/memory/paddr.c:97 mtrace_log] R: 0x8000235c (len=4) data=0x00e68023[0m
[1;34m[src/memory/paddr.c:97 mtrace_log] W: 0xa00003f8 (len=1) data=0x00000074[0m
0x8000235c: 00 e6 80 23 sb	a4, 0(a3)
[1;34m[src/memory/paddr.c:97 mtrace_log] R: 0x80002360 (len=4) data=0x0007c703[0m
[1;34m[src/memory/paddr.c:97 mtrace_log] R: 0x8009552d (len=1) data=0x0000000a[0m
0x80002360: 00 07 c7 03 lbu	a4, 0(a5)
[1;34m[src/memory/paddr.c:97 mtrace_log] R: 0x80002364 (len=4) data=0xfe071ae3[0m
0x80002364: fe 07 1a e3 bnez	a4, -0xc
[1;34m[src/memory/paddr.c:97 mtrace_log] R: 0x80002358 (len=4) data=0x00178793[0m
0x80002358: 00 17 87 93 addi	a5, a5, 1
[1;34m[src/memory/paddr.c:97 mtrace_log] R: 0x8000235c (len=4) data=0x00e68023[0m
[1;34m[src/memory/paddr.c:97 mtrace_log] W: 0xa00003f8 (len=1) data=0x0000000a[0m
0x8000235c: 00 e6 80 23 sb	a4, 0(a3)
[1;34m[src/memory/paddr.c:97 mtrace_log] R: 0x80002360 (len=4) data=0x0007c703[0m
[1;34m[src/memory/paddr.c:97 mtrace_log] R: 0x8009552e (len=1) data=0x00000000[0m
0x80002360: 00 07 c7 03 lbu	a4, 0(a5)
[1;34m[src/memory/paddr.c:97 mtrace_log] R: 0x80002364 (len=4) data=0xfe071ae3[0m
0x80002364: fe 07 1a e3 bnez	a4, -0xc
[1;34m[src/memory/paddr.c:97 mtrace_log] R: 0x80002368 (len=4) data=0x01c12083[0m
[1;34m[src/memory/paddr.c:97 mtrace_log] R: 0x8009dfac (len=4) data=0x80000e90[0m
0x80002368: 01 c1 20 83 lw	ra, 0x1c(sp)
[1;34m[src/memory/paddr.c:97 mtrace_log] R: 0x8000236c (len=4) data=0x04010113[0m
0x8000236c: 04 01 01 13 addi	sp, sp, 0x40
[1;34m[src/memory/paddr.c:97 mtrace_log] R: 0x80002370 (len=4) data=0x00008067[0m
0x80002370: 00 00 80 67 ret
[1;34m[src/memory/paddr.c:97 mtrace_log] R: 0x80000e90 (len=4) data=0x00140413[0m
0x80000e90: 00 14 04 13 addi	s0, s0, 1
[1;34m[src/memory/paddr.c:97 mtrace_log] R: 0x80000e94 (len=4) data=0x00448493[0m
0x80000e94: 00 44 84 93 addi	s1, s1, 4
[1;34m[src/memory/paddr.c:97 mtrace_log] R: 0x80000e98 (len=4) data=0xff2412e3[0m
0x80000e98: ff 24 12 e3 bne	s0, s2, -0x1c
[1;34m[src/memory/paddr.c:97 mtrace_log] R: 0x80000e7c (len=4) data=0x0004a603[0m
[1;34m[src/memory/paddr.c:97 mtrace_log] R: 0x80002ea8 (len=4) data=0x00000000[0m
0x80000e7c: 00 04 a6 03 lw	a2, 0(s1)
[1;34m[src/memory/paddr.c:97 mtrace_log] R: 0x80000e80 (len=4) data=0x00060863[0m
0x80000e80: 00 06 08 63 beqz	a2, 0x10
[1;34m[src/memory/paddr.c:97 mtrace_log] R: 0x80000e90 (len=4) data=0x00140413[0m
0x80000e90: 00 14 04 13 addi	s0, s0, 1
[1;34m[src/memory/paddr.c:97 mtrace_log] R: 0x80000e94 (len=4) data=0x00448493[0m
0x80000e94: 00 44 84 93 addi	s1, s1, 4
[1;34m[src/memory/paddr.c:97 mtrace_log] R: 0x80000e98 (len=4) data=0xff2412e3[0m
0x80000e98: ff 24 12 e3 bne	s0, s2, -0x1c
[1;34m[src/memory/paddr.c:97 mtrace_log] R: 0x80000e7c (len=4) data=0x0004a603[0m
[1;34m[src/memory/paddr.c:97 mtrace_log] R: 0x80002eac (len=4) data=0x80002988[0m
0x80000e7c: 00 04 a6 03 lw	a2, 0(s1)
[1;34m[src/memory/paddr.c:97 mtrace_log] R: 0x80000e80 (len=4) data=0x00060863[0m
0x80000e80: 00 06 08 63 beqz	a2, 0x10
[1;34m[src/memory/paddr.c:97 mtrace_log] R: 0x80000e84 (len=4) data=0x00040593[0m
0x80000e84: 00 04 05 93 mv	a1, s0
[1;34m[src/memory/paddr.c:97 mtrace_log] R: 0x80000e88 (len=4) data=0x00098513[0m
0x80000e88: 00 09 85 13 mv	a0, s3
[1;34m[src/memory/paddr.c:97 mtrace_log] R: 0x80000e8c (len=4) data=0x474010ef[0m
0x80000e8c: 47 40 10 ef jal	0x1474
[1;34m[src/memory/paddr.c:97 mtrace_log] R: 0x80002300 (len=4) data=0xfc010113[0m
0x80002300: fc 01 01 13 addi	sp, sp, -0x40
[1;34m[src/memory/paddr.c:97 mtrace_log] R: 0x80002304 (len=4) data=0x02410313[0m
0x80002304: 02 41 03 13 addi	t1, sp, 0x24
[1;34m[src/memory/paddr.c:97 mtrace_log] R: 0x80002308 (len=4) data=0x02b12223[0m
[1;34m[src/memory/paddr.c:97 mtrace_log] W: 0x8009dfb4 (len=4) data=0x0000006d[0m
0x80002308: 02 b1 22 23 sw	a1, 0x24(sp)
[1;34m[src/memory/paddr.c:97 mtrace_log] R: 0x8000230c (len=4) data=0x02c12423[0m
[1;34m[src/memory/paddr.c:97 mtrace_log] W: 0x8009dfb8 (len=4) data=0x80002988[0m
0x8000230c: 02 c1 24 23 sw	a2, 0x28(sp)
[1;34m[src/memory/paddr.c:97 mtrace_log] R: 0x80002310 (len=4) data=0x00050593[0m
0x80002310: 00 05 05 93 mv	a1, a0
[1;34m[src/memory/paddr.c:97 mtrace_log] R: 0x80002314 (len=4) data=0x00030613[0m
0x80002314: 00 03 06 13 mv	a2, t1
[1;34m[src/memory/paddr.c:97 mtrace_log] R: 0x80002318 (len=4) data=0x00093517[0m
0x80002318: 00 09 35 17 auipc	a0, 0x93
[1;34m[src/memory/paddr.c:97 mtrace_log] R: 0x8000231c (len=4) data=0x20450513[0m
0x8000231c: 20 45 05 13 addi	a0, a0, 0x204
[1;34m[src/memory/paddr.c:97 mtrace_log] R: 0x80002320 (len=4) data=0x02e12823[0m
[1;34m[src/memory/paddr.c:97 mtrace_log] W: 0x8009dfc0 (len=4) data=0x00000000[0m
0x80002320: 02 e1 28 23 sw	a4, 0x30(sp)
[1;34m[src/memory/paddr.c:97 mtrace_log] R: 0x80002324 (len=4) data=0x02f12a23[0m
[1;34m[src/memory/paddr.c:97 mtrace_log] W: 0x8009dfc4 (len=4) data=0x8009552e[0m
0x80002324: 02 f1 2a 23 sw	a5, 0x34(sp)
[1;34m[src/memory/paddr.c:97 mtrace_log] R: 0x80002328 (len=4) data=0x00112e23[0m
[1;34m[src/memory/paddr.c:97 mtrace_log] W: 0x8009dfac (len=4) data=0x80000e90[0m
0x80002328: 00 11 2e 23 sw	ra, 0x1c(sp)
[1;34m[src/memory/paddr.c:97 mtrace_log] R: 0x8000232c (len=4) data=0x02d12623[0m
[1;34m[src/memory/paddr.c:97 mtrace_log] W: 0x8009dfbc (len=4) data=0xa00003f8[0m
0x8000232c: 02 d1 26 23 sw	a3, 0x2c(sp)
[1;34m[src/memory/paddr.c:97 mtrace_log] R: 0x80002330 (len=4) data=0x03012c23[0m
[1;34m[src/memory/paddr.c:97 mtrace_log] W: 0x8009dfc8 (len=4) data=0x800032b4[0m
0x80002330: 03 01 2c 23 sw	a6, 0x38(sp)
[1;34m[src/memory/paddr.c:97 mtrace_log] R: 0x80002334 (len=4) data=0x03112e23[0m
[1;34m[src/memory/paddr.c:97 mtrace_log] W: 0x8009dfcc (len=4) data=0x00000000[0m
0x80002334: 03 11 2e 23 sw	a7, 0x3c(sp)
[1;34m[src/memory/paddr.c:97 mtrace_log] R: 0x80002338 (len=4) data=0x00612623[0m
[1;34m[src/memory/paddr.c:97 mtrace_log] W: 0x8009df9c (len=4) data=0x8009dfb4[0m
0x80002338: 00 61 26 23 sw	t1, 0xc(sp)
[1;34m[src/memory/paddr.c:97 mtrace_log] R: 0x8000233c (len=4) data=0xad5ff0ef[0m
0x8000233c: ad 5f f0 ef jal	-0x52c
[1;34m[src/memory/paddr.c:97 mtrace_log] R: 0x80001e10 (len=4) data=0xfb010113[0m
0x80001e10: fb 01 01 13 addi	sp, sp, -0x50
[1;34m[src/memory/paddr.c:97 mtrace_log] R: 0x80001e14 (len=4) data=0x03612823[0m
[1;34m[src/memory/paddr.c:97 mtrace_log] W: 0x8009df70 (len=4) data=0x00000000[0m
0x80001e14: 03 61 28 23 sw	s6, 0x30(sp)
[1;34m[src/memory/paddr.c:97 mtrace_log] R: 0x80001e18 (len=4) data=0x04112623[0m
[1;34m[src/memory/paddr.c:97 mtrace_log] W: 0x8009df8c (len=4) data=0x80002340[0m
0x80001e18: 04 11 26 23 sw	ra, 0x4c(sp)
[1;34m[src/memory/paddr.c:97 mtrace_log] R: 0x80001e1c (len=4) data=0x04912223[0m
[1;34m[src/memory/paddr.c:97 mtrace_log] W: 0x8009df84 (len=4) data=0x80002eac[0m
0x80001e1c: 04 91 22 23 sw	s1, 0x44(sp)
[1;34m[src/memory/paddr.c:97 mtrace_log] R: 0x80001e20 (len=4) data=0x0005c783[0m
[1;34m[src/memory/paddr.c:97 mtrace_log] R: 0x80002914 (len=1) data=0x00000020[0m
0x80001e20: 00 05 c7 83 lbu	a5, 0(a1)
[1;34m[src/memory/paddr.c:97 mtrace_log] R: 0x80001e24 (len=4) data=0x00050b13[0m
0x80001e24: 00 05 0b 13 mv	s6, a0
[1;34m[src/memory/paddr.c:97 mtrace_log] R: 0x80001e28 (len=4) data=0x44078a63[0m
0x80001e28: 44 07 8a 63 beqz	a5, 0x454
[1;34m[src/memory/paddr.c:97 mtrace_log] R: 0x80001e2c (len=4) data=0x05212023[0m
[1;34m[src/memory/paddr.c:97 mtrace_log] W: 0x8009df80 (len=4) data=0x00000100[0m
0x80001e2c: 05 21 20 23 sw	s2, 0x40(sp)
[1;34m[src/memory/paddr.c:97 mtrace_log] R: 0x80001e30 (len=4) data=0x03312e23[0m
[1;34m[src/memory/paddr.c:97 mtrace_log] W: 0x8009df7c (len=4) data=0x80002914[0m
0x80001e30: 03 31 2e 23 sw	s3, 0x3c(sp)
[1;34m[src/memory/paddr.c:97 mtrace_log] R: 0x80001e34 (len=4) data=0x03412c23[0m
[1;34m[src/memory/paddr.c:97 mtrace_log] W: 0x8009df78 (len=4) data=0x00000000[0m
0x80001e34: 03 41 2c 23 sw	s4, 0x38(sp)
[1;34m[src/memory/paddr.c:97 mtrace_log] R: 0x80001e38 (len=4) data=0x03512a23[0m
[1;34m[src/memory/paddr.c:97 mtrace_log] W: 0x8009df74 (len=4) data=0x00000000[0m
0x80001e38: 03 51 2a 23 sw	s5, 0x34(sp)
[1;34m[src/memory/paddr.c:97 mtrace_log] R: 0x80001e3c (len=4) data=0x03712623[0m
[1;34m[src/memory/paddr.c:97 mtrace_log] W: 0x8009df6c (len=4) data=0x00000000[0m
0x80001e3c: 03 71 26 23 sw	s7, 0x2c(sp)
[1;34m[src/memory/paddr.c:97 mtrace_log] R: 0x80001e40 (len=4) data=0x03812423[0m
[1;34m[src/memory/paddr.c:97 mtrace_log] W: 0x8009df68 (len=4) data=0x00000000[0m
0x80001e40: 03 81 24 23 sw	s8, 0x28(sp)
[1;34m[src/memory/paddr.c:97 mtrace_log] R: 0x80001e44 (len=4) data=0x03912223[0m
[1;34m[src/memory/paddr.c:97 mtrace_log] W: 0x8009df64 (len=4) data=0x00000000[0m
0x80001e44: 03 91 22 23 sw	s9, 0x24(sp)
[1;34m[src/memory/paddr.c:97 mtrace_log] R: 0x80001e48 (len=4) data=0x03a12023[0m
[1;34m[src/memory/paddr.c:97 mtrace_log] W: 0x8009df60 (len=4) data=0x00000000[0m
0x80001e48: 03 a1 20 23 sw	s10, 0x20(sp)
[1;34m[src/memory/paddr.c:97 mtrace_log] R: 0x80001e4c (len=4) data=0x04812423[0m
[1;34m[src/memory/paddr.c:97 mtrace_log] W: 0x8009df88 (len=4) data=0x0000006d[0m
0x80001e4c: 04 81 24 23 sw	s0, 0x48(sp)
[1;34m[src/memory/paddr.c:97 mtrace_log] R: 0x80001e50 (len=4) data=0x00060a13[0m
0x80001e50: 00 06 0a 13 mv	s4, a2
[1;34m[src/memory/paddr.c:97 mtrace_log] R: 0x80001e54 (len=4) data=0x00050493[0m
0x80001e54: 00 05 04 93 mv	s1, a0
[1;34m[src/memory/paddr.c:97 mtrace_log] R: 0x80001e58 (len=4) data=0x02500a93[0m
0x80001e58: 02 50 0a 93 addi	s5, zero, 0x25
[1;34m[src/memory/paddr.c:97 mtrace_log] R: 0x80001e5c (len=4) data=0x01000993[0m
0x80001e5c: 01 00 09 93 addi	s3, zero, 0x10
[1;34m[src/memory/paddr.c:97 mtrace_log] R: 0x80001e60 (len=4) data=0x00001917[0m
0x80001e60: 00 00 19 17 auipc	s2, 1
[1;34m[src/memory/paddr.c:97 mtrace_log] R: 0x80001e64 (len=4) data=0x2d890913[0m
0x80001e64: 2d 89 09 13 addi	s2, s2, 0x2d8
[1;34m[src/memory/paddr.c:97 mtrace_log] R: 0x80001e68 (len=4) data=0x00900d13[0m
0x80001e68: 00 90 0d 13 addi	s10, zero, 9
[1;34m[src/memory/paddr.c:97 mtrace_log] R: 0x80001e6c (len=4) data=0x02e00c93[0m
0x80001e6c: 02 e0 0c 93 addi	s9, zero, 0x2e
[1;34m[src/memory/paddr.c:97 mtrace_log] R: 0x80001e70 (len=4) data=0x06800c13[0m
0x80001e70: 06 80 0c 13 addi	s8, zero, 0x68
[1;34m[src/memory/paddr.c:97 mtrace_log] R: 0x80001e74 (len=4) data=0x00001b97[0m
0x80001e74: 00 00 1b 97 auipc	s7, 1
[1;34m[src/memory/paddr.c:97 mtrace_log] R: 0x80001e78 (len=4) data=0x308b8b93[0m
0x80001e78: 30 8b 8b 93 addi	s7, s7, 0x308
[1;34m[src/memory/paddr.c:97 mtrace_log] R: 0x80001e7c (len=4) data=0x05578c63[0m
0x80001e7c: 05 57 8c 63 beq	a5, s5, 0x58
[1;34m[src/memory/paddr.c:97 mtrace_log] R: 0x80001e80 (len=4) data=0x00f48023[0m
[1;34m[src/memory/paddr.c:97 mtrace_log] W: 0x8009551c (len=1) data=0x00000020[0m
0x80001e80: 00 f4 80 23 sb	a5, 0(s1)
[1;34m[src/memory/paddr.c:97 mtrace_log] R: 0x80001e84 (len=4) data=0x0015c783[0m
[1;34m[src/memory/paddr.c:97 mtrace_log] R: 0x80002915 (len=1) data=0x00000020[0m
0x80001e84: 00 15 c7 83 lbu	a5, 1(a1)
[1;34m[src/memory/paddr.c:97 mtrace_log] R: 0x80001e88 (len=4) data=0x00148493[0m
0x80001e88: 00 14 84 93 addi	s1, s1, 1
[1;34m[src/memory/paddr.c:97 mtrace_log] R: 0x80001e8c (len=4) data=0x00158593[0m
0x80001e8c: 00 15 85 93 addi	a1, a1, 1
[1;34m[src/memory/paddr.c:97 mtrace_log] R: 0x80001e90 (len=4) data=0xfe0796e3[0m
0x80001e90: fe 07 96 e3 bnez	a5, -0x14
[1;34m[src/memory/paddr.c:97 mtrace_log] R: 0x80001e7c (len=4) data=0x05578c63[0m
0x80001e7c: 05 57 8c 63 beq	a5, s5, 0x58
[1;34m[src/memory/paddr.c:97 mtrace_log] R: 0x80001e80 (len=4) data=0x00f48023[0m
[1;34m[src/memory/paddr.c:97 mtrace_log] W: 0x8009551d (len=1) data=0x00000020[0m
0x80001e80: 00 f4 80 23 sb	a5, 0(s1)
[1;34m[src/memory/paddr.c:97 mtrace_log] R: 0x80001e84 (len=4) data=0x0015c783[0m
[1;34m[src/memory/paddr.c:97 mtrace_log] R: 0x80002916 (len=1) data=0x00000025[0m
0x80001e84: 00 15 c7 83 lbu	a5, 1(a1)
[1;34m[src/memory/paddr.c:97 mtrace_log] R: 0x80001e88 (len=4) data=0x00148493[0m
0x80001e88: 00 14 84 93 addi	s1, s1, 1
[1;34m[src/memory/paddr.c:97 mtrace_log] R: 0x80001e8c (len=4) data=0x00158593[0m
0x80001e8c: 00 15 85 93 addi	a1, a1, 1
[1;34m[src/memory/paddr.c:97 mtrace_log] R: 0x80001e90 (len=4) data=0xfe0796e3[0m
0x80001e90: fe 07 96 e3 bnez	a5, -0x14
[1;34m[src/memory/paddr.c:97 mtrace_log] R: 0x80001e7c (len=4) data=0x05578c63[0m
0x80001e7c: 05 57 8c 63 beq	a5, s5, 0x58
[1;34m[src/memory/paddr.c:97 mtrace_log] R: 0x80001ed4 (len=4) data=0x00000793[0m
0x80001ed4: 00 00 07 93 mv	a5, zero
[1;34m[src/memory/paddr.c:97 mtrace_log] R: 0x80001ed8 (len=4) data=0x0015c803[0m
[1;34m[src/memory/paddr.c:97 mtrace_log] R: 0x80002917 (len=1) data=0x00000063[0m
0x80001ed8: 00 15 c8 03 lbu	a6, 1(a1)
[1;34m[src/memory/paddr.c:97 mtrace_log] R: 0x80001edc (len=4) data=0x00158413[0m
0x80001edc: 00 15 84 13 addi	s0, a1, 1
[1;34m[src/memory/paddr.c:97 mtrace_log] R: 0x80001ee0 (len=4) data=0xfe080713[0m
0x80001ee0: fe 08 07 13 addi	a4, a6, -0x20
[1;34m[src/memory/paddr.c:97 mtrace_log] R: 0x80001ee4 (len=4) data=0x0ff77713[0m
0x80001ee4: 0f f7 77 13 andi	a4, a4, 0xff
[1;34m[src/memory/paddr.c:97 mtrace_log] R: 0x80001ee8 (len=4) data=0x00e9ec63[0m
0x80001ee8: 00 e9 ec 63 bltu	s3, a4, 0x18
[1;34m[src/memory/paddr.c:97 mtrace_log] R: 0x80001f00 (len=4) data=0xfd080713[0m
0x80001f00: fd 08 07 13 addi	a4, a6, -0x30
[1;34m[src/memory/paddr.c:97 mtrace_log] R: 0x80001f04 (len=4) data=0x0ff77713[0m
0x80001f04: 0f f7 77 13 andi	a4, a4, 0xff
[1;34m[src/memory/paddr.c:97 mtrace_log] R: 0x80001f08 (len=4) data=0x0ced7263[0m
0x80001f08: 0c ed 72 63 bgeu	s10, a4, 0xc4
[1;34m[src/memory/paddr.c:97 mtrace_log] R: 0x80001f0c (len=4) data=0x02a00713[0m
0x80001f0c: 02 a0 07 13 addi	a4, zero, 0x2a
[1;34m[src/memory/paddr.c:97 mtrace_log] R: 0x80001f10 (len=4) data=0xfff00693[0m
0x80001f10: ff f0 06 93 addi	a3, zero, -1
[1;34m[src/memory/paddr.c:97 mtrace_log] R: 0x80001f14 (len=4) data=0x00e81a63[0m
0x80001f14: 00 e8 1a 63 bne	a6, a4, 0x14
[1;34m[src/memory/paddr.c:97 mtrace_log] R: 0x80001f28 (len=4) data=0xfff00713[0m
0x80001f28: ff f0 07 13 addi	a4, zero, -1
[1;34m[src/memory/paddr.c:97 mtrace_log] R: 0x80001f2c (len=4) data=0x07980a63[0m
0x80001f2c: 07 98 0a 63 beq	a6, s9, 0x74
[1;34m[src/memory/paddr.c:97 mtrace_log] R: 0x80001f30 (len=4) data=0x0fb87613[0m
0x80001f30: 0f b8 76 13 andi	a2, a6, 0xfb
[1;34m[src/memory/paddr.c:97 mtrace_log] R: 0x80001f34 (len=4) data=0x01861663[0m
0x80001f34: 01 86 16 63 bne	a2, s8, 0xc
[1;34m[src/memory/paddr.c:97 mtrace_log] R: 0x80001f40 (len=4) data=0xfdb80813[0m
0x80001f40: fd b8 08 13 addi	a6, a6, -0x25
[1;34m[src/memory/paddr.c:97 mtrace_log] R: 0x80001f44 (len=4) data=0x0ff87813[0m
0x80001f44: 0f f8 78 13 andi	a6, a6, 0xff
[1;34m[src/memory/paddr.c:97 mtrace_log] R: 0x80001f48 (len=4) data=0x05300613[0m
0x80001f48: 05 30 06 13 addi	a2, zero, 0x53
[1;34m[src/memory/paddr.c:97 mtrace_log] R: 0x80001f4c (len=4) data=0x0b066c63[0m
0x80001f4c: 0b 06 6c 63 bltu	a2, a6, 0xb8
[1;34m[src/memory/paddr.c:97 mtrace_log] R: 0x80001f50 (len=4) data=0x00281813[0m
0x80001f50: 00 28 18 13 slli	a6, a6, 2
[1;34m[src/memory/paddr.c:97 mtrace_log] R: 0x80001f54 (len=4) data=0x01780833[0m
0x80001f54: 01 78 08 33 add	a6, a6, s7
[1;34m[src/memory/paddr.c:97 mtrace_log] R: 0x80001f58 (len=4) data=0x00082603[0m
[1;34m[src/memory/paddr.c:97 mtrace_log] R: 0x80003274 (len=4) data=0xffffef08[0m
0x80001f58: 00 08 26 03 lw	a2, 0(a6)
[1;34m[src/memory/paddr.c:97 mtrace_log] R: 0x80001f5c (len=4) data=0x01760633[0m
0x80001f5c: 01 76 06 33 add	a2, a2, s7
[1;34m[src/memory/paddr.c:97 mtrace_log] R: 0x80001f60 (len=4) data=0x00060067[0m
0x80001f60: 00 06 00 67 jr	a2
[1;34m[src/memory/paddr.c:97 mtrace_log] R: 0x80002084 (len=4) data=0x0017f793[0m
0x80002084: 00 17 f7 93 andi	a5, a5, 1
[1;34m[src/memory/paddr.c:97 mtrace_log] R: 0x80002088 (len=4) data=0x004a0613[0m
0x80002088: 00 4a 06 13 addi	a2, s4, 4
[1;34m[src/memory/paddr.c:97 mtrace_log] R: 0x8000208c (len=4) data=0x00140593[0m
0x8000208c: 00 14 05 93 addi	a1, s0, 1
[1;34m[src/memory/paddr.c:97 mtrace_log] R: 0x80002090 (len=4) data=0x18078c63[0m
0x80002090: 18 07 8c 63 beqz	a5, 0x198
[1;34m[src/memory/paddr.c:97 mtrace_log] R: 0x80002228 (len=4) data=0x00100793[0m
0x80002228: 00 10 07 93 addi	a5, zero, 1
[1;34m[src/memory/paddr.c:97 mtrace_log] R: 0x8000222c (len=4) data=0x0ad7dc63[0m
0x8000222c: 0a d7 dc 63 bge	a5, a3, 0xb8
[1;34m[src/memory/paddr.c:97 mtrace_log] R: 0x800022e4 (len=4) data=0x000a2783[0m
[1;34m[src/memory/paddr.c:97 mtrace_log] R: 0x8009dfb4 (len=4) data=0x0000006d[0m
0x800022e4: 00 0a 27 83 lw	a5, 0(s4)
[1;34m[src/memory/paddr.c:97 mtrace_log] R: 0x800022e8 (len=4) data=0x00148493[0m
0x800022e8: 00 14 84 93 addi	s1, s1, 1
[1;34m[src/memory/paddr.c:97 mtrace_log] R: 0x800022ec (len=4) data=0x00060a13[0m
0x800022ec: 00 06 0a 13 mv	s4, a2
[1;34m[src/memory/paddr.c:97 mtrace_log] R: 0x800022f0 (len=4) data=0xfef48fa3[0m
[1;34m[src/memory/paddr.c:97 mtrace_log] W: 0x8009551e (len=1) data=0x0000006d[0m
0x800022f0: fe f4 8f a3 sb	a5, -1(s1)
[1;34m[src/memory/paddr.c:97 mtrace_log] R: 0x800022f4 (len=4) data=0x00144783[0m
[1;34m[src/memory/paddr.c:97 mtrace_log] R: 0x80002918 (len=1) data=0x0000003a[0m
0x800022f4: 00 14 47 83 lbu	a5, 1(s0)
[1;34m[src/memory/paddr.c:97 mtrace_log] R: 0x800022f8 (len=4) data=0xb80792e3[0m
0x800022f8: b8 07 92 e3 bnez	a5, -0x47c
[1;34m[src/memory/paddr.c:97 mtrace_log] R: 0x80001e7c (len=4) data=0x05578c63[0m
0x80001e7c: 05 57 8c 63 beq	a5, s5, 0x58
[1;34m[src/memory/paddr.c:97 mtrace_log] R: 0x80001e80 (len=4) data=0x00f48023[0m
[1;34m[src/memory/paddr.c:97 mtrace_log] W: 0x8009551f (len=1) data=0x0000003a[0m
0x80001e80: 00 f4 80 23 sb	a5, 0(s1)
[1;34m[src/memory/paddr.c:97 mtrace_log] R: 0x80001e84 (len=4) data=0x0015c783[0m
[1;34m[src/memory/paddr.c:97 mtrace_log] R: 0x80002919 (len=1) data=0x00000020[0m
0x80001e84: 00 15 c7 83 lbu	a5, 1(a1)
[1;34m[src/memory/paddr.c:97 mtrace_log] R: 0x80001e88 (len=4) data=0x00148493[0m
0x80001e88: 00 14 84 93 addi	s1, s1, 1
[1;34m[src/memory/paddr.c:97 mtrace_log] R: 0x80001e8c (len=4) data=0x00158593[0m
0x80001e8c: 00 15 85 93 addi	a1, a1, 1
[1;34m[src/memory/paddr.c:97 mtrace_log] R: 0x80001e90 (len=4) data=0xfe0796e3[0m
0x80001e90: fe 07 96 e3 bnez	a5, -0x14
[1;34m[src/memory/paddr.c:97 mtrace_log] R: 0x80001e7c (len=4) data=0x05578c63[0m
0x80001e7c: 05 57 8c 63 beq	a5, s5, 0x58
[1;34m[src/memory/paddr.c:97 mtrace_log] R: 0x80001e80 (len=4) data=0x00f48023[0m
[1;34m[src/memory/paddr.c:97 mtrace_log] W: 0x80095520 (len=1) data=0x00000020[0m
0x80001e80: 00 f4 80 23 sb	a5, 0(s1)
[1;34m[src/memory/paddr.c:97 mtrace_log] R: 0x80001e84 (len=4) data=0x0015c783[0m
[1;34m[src/memory/paddr.c:97 mtrace_log] R: 0x8000291a (len=1) data=0x00000025[0m
0x80001e84: 00 15 c7 83 lbu	a5, 1(a1)
[1;34m[src/memory/paddr.c:97 mtrace_log] R: 0x80001e88 (len=4) data=0x00148493[0m
0x80001e88: 00 14 84 93 addi	s1, s1, 1
[1;34m[src/memory/paddr.c:97 mtrace_log] R: 0x80001e8c (len=4) data=0x00158593[0m
0x80001e8c: 00 15 85 93 addi	a1, a1, 1
[1;34m[src/memory/paddr.c:97 mtrace_log] R: 0x80001e90 (len=4) data=0xfe0796e3[0m
0x80001e90: fe 07 96 e3 bnez	a5, -0x14
[1;34m[src/memory/paddr.c:97 mtrace_log] R: 0x80001e7c (len=4) data=0x05578c63[0m
0x80001e7c: 05 57 8c 63 beq	a5, s5, 0x58
[1;34m[src/memory/paddr.c:97 mtrace_log] R: 0x80001ed4 (len=4) data=0x00000793[0m
0x80001ed4: 00 00 07 93 mv	a5, zero
[1;34m[src/memory/paddr.c:97 mtrace_log] R: 0x80001ed8 (len=4) data=0x0015c803[0m
[1;34m[src/memory/paddr.c:97 mtrace_log] R: 0x8000291b (len=1) data=0x00000073[0m
0x80001ed8: 00 15 c8 03 lbu	a6, 1(a1)
[1;34m[src/memory/paddr.c:97 mtrace_log] R: 0x80001edc (len=4) data=0x00158413[0m
0x80001edc: 00 15 84 13 addi	s0, a1, 1
[1;34m[src/memory/paddr.c:97 mtrace_log] R: 0x80001ee0 (len=4) data=0xfe080713[0m
0x80001ee0: fe 08 07 13 addi	a4, a6, -0x20
[1;34m[src/memory/paddr.c:97 mtrace_log] R: 0x80001ee4 (len=4) data=0x0ff77713[0m
0x80001ee4: 0f f7 77 13 andi	a4, a4, 0xff
[1;34m[src/memory/paddr.c:97 mtrace_log] R: 0x80001ee8 (len=4) data=0x00e9ec63[0m
0x80001ee8: 00 e9 ec 63 bltu	s3, a4, 0x18
[1;34m[src/memory/paddr.c:97 mtrace_log] R: 0x80001f00 (len=4) data=0xfd080713[0m
0x80001f00: fd 08 07 13 addi	a4, a6, -0x30
[1;34m[src/memory/paddr.c:97 mtrace_log] R: 0x80001f04 (len=4) data=0x0ff77713[0m
0x80001f04: 0f f7 77 13 andi	a4, a4, 0xff
[1;34m[src/memory/paddr.c:97 mtrace_log] R: 0x80001f08 (len=4) data=0x0ced7263[0m
0x80001f08: 0c ed 72 63 bgeu	s10, a4, 0xc4
[1;34m[src/memory/paddr.c:97 mtrace_log] R: 0x80001f0c (len=4) data=0x02a00713[0m
0x80001f0c: 02 a0 07 13 addi	a4, zero, 0x2a
[1;34m[src/memory/paddr.c:97 mtrace_log] R: 0x80001f10 (len=4) data=0xfff00693[0m
0x80001f10: ff f0 06 93 addi	a3, zero, -1
[1;34m[src/memory/paddr.c:97 mtrace_log] R: 0x80001f14 (len=4) data=0x00e81a63[0m
0x80001f14: 00 e8 1a 63 bne	a6, a4, 0x14
[1;34m[src/memory/paddr.c:97 mtrace_log] R: 0x80001f28 (len=4) data=0xfff00713[0m
0x80001f28: ff f0 07 13 addi	a4, zero, -1
[1;34m[src/memory/paddr.c:97 mtrace_log] R: 0x80001f2c (len=4) data=0x07980a63[0m
0x80001f2c: 07 98 0a 63 beq	a6, s9, 0x74
[1;34m[src/memory/paddr.c:97 mtrace_log] R: 0x80001f30 (len=4) data=0x0fb87613[0m
0x80001f30: 0f b8 76 13 andi	a2, a6, 0xfb
[1;34m[src/memory/paddr.c:97 mtrace_log] R: 0x80001f34 (len=4) data=0x01861663[0m
0x80001f34: 01 86 16 63 bne	a2, s8, 0xc
[1;34m[src/memory/paddr.c:97 mtrace_log] R: 0x80001f40 (len=4) data=0xfdb80813[0m
0x80001f40: fd b8 08 13 addi	a6, a6, -0x25
[1;34m[src/memory/paddr.c:97 mtrace_log] R: 0x80001f44 (len=4) data=0x0ff87813[0m
0x80001f44: 0f f8 78 13 andi	a6, a6, 0xff
[1;34m[src/memory/paddr.c:97 mtrace_log] R: 0x80001f48 (len=4) data=0x05300613[0m
0x80001f48: 05 30 06 13 addi	a2, zero, 0x53
[1;34m[src/memory/paddr.c:97 mtrace_log] R: 0x80001f4c (len=4) data=0x0b066c63[0m
0x80001f4c: 0b 06 6c 63 bltu	a2, a6, 0xb8
[1;34m[src/memory/paddr.c:97 mtrace_log] R: 0x80001f50 (len=4) data=0x00281813[0m
0x80001f50: 00 28 18 13 slli	a6, a6, 2
[1;34m[src/memory/paddr.c:97 mtrace_log] R: 0x80001f54 (len=4) data=0x01780833[0m
0x80001f54: 01 78 08 33 add	a6, a6, s7
[1;34m[src/memory/paddr.c:97 mtrace_log] R: 0x80001f58 (len=4) data=0x00082603[0m
[1;34m[src/memory/paddr.c:97 mtrace_log] R: 0x800032b4 (len=4) data=0xffffef50[0m
0x80001f58: 00 08 26 03 lw	a2, 0(a6)
[1;34m[src/memory/paddr.c:97 mtrace_log] R: 0x80001f5c (len=4) data=0x01760633[0m
0x80001f5c: 01 76 06 33 add	a2, a2, s7
[1;34m[src/memory/paddr.c:97 mtrace_log] R: 0x80001f60 (len=4) data=0x00060067[0m
0x80001f60: 00 06 00 67 jr	a2
[1;34m[src/memory/paddr.c:97 mtrace_log] R: 0x800020cc (len=4) data=0x01b12e23[0m
[1;34m[src/memory/paddr.c:97 mtrace_log] W: 0x8009df5c (len=4) data=0x00000000[0m
0x800020cc: 01 b1 2e 23 sw	s11, 0x1c(sp)
[1;34m[src/memory/paddr.c:97 mtrace_log] R: 0x800020d0 (len=4) data=0x000a2d83[0m
[1;34m[src/memory/paddr.c:97 mtrace_log] R: 0x8009dfb8 (len=4) data=0x80002988[0m
0x800020d0: 00 0a 2d 83 lw	s11, 0(s4)
[1;34m[src/memory/paddr.c:97 mtrace_log] R: 0x800020d4 (len=4) data=0x004a0a13[0m
0x800020d4: 00 4a 0a 13 addi	s4, s4, 4
[1;34m[src/memory/paddr.c:97 mtrace_log] R: 0x800020d8 (len=4) data=0x140d8263[0m
0x800020d8: 14 0d 82 63 beqz	s11, 0x144
[1;34m[src/memory/paddr.c:97 mtrace_log] R: 0x800020dc (len=4) data=0x000d8513[0m
0x800020dc: 00 0d 85 13 mv	a0, s11
[1;34m[src/memory/paddr.c:97 mtrace_log] R: 0x800020e0 (len=4) data=0x00d12623[0m
[1;34m[src/memory/paddr.c:97 mtrace_log] W: 0x8009df4c (len=4) data=0xffffffff[0m
0x800020e0: 00 d1 26 23 sw	a3, 0xc(sp)
[1;34m[src/memory/paddr.c:97 mtrace_log] R: 0x800020e4 (len=4) data=0x00f12423[0m
[1;34m[src/memory/paddr.c:97 mtrace_log] W: 0x8009df48 (len=4) data=0x00000000[0m
0x800020e4: 00 f1 24 23 sw	a5, 8(sp)
[1;34m[src/memory/paddr.c:97 mtrace_log] R: 0x800020e8 (len=4) data=0x00e12223[0m
[1;34m[src/memory/paddr.c:97 mtrace_log] W: 0x8009df44 (len=4) data=0xffffffff[0m
0x800020e8: 00 e1 22 23 sw	a4, 4(sp)
[1;34m[src/memory/paddr.c:97 mtrace_log] R: 0x800020ec (len=4) data=0x9c9ff0ef[0m
0x800020ec: 9c 9f f0 ef jal	-0x638
[1;34m[src/memory/paddr.c:97 mtrace_log] R: 0x80001ab4 (len=4) data=0x00054783[0m
[1;34m[src/memory/paddr.c:97 mtrace_log] R: 0x80002988 (len=1) data=0x0000006d[0m
0x80001ab4: 00 05 47 83 lbu	a5, 0(a0)
[1;34m[src/memory/paddr.c:97 mtrace_log] R: 0x80001ab8 (len=4) data=0x00050713[0m
0x80001ab8: 00 05 07 13 mv	a4, a0
[1;34m[src/memory/paddr.c:97 mtrace_log] R: 0x80001abc (len=4) data=0x00000513[0m
0x80001abc: 00 00 05 13 mv	a0, zero
[1;34m[src/memory/paddr.c:97 mtrace_log] R: 0x80001ac0 (len=4) data=0x00078c63[0m
0x80001ac0: 00 07 8c 63 beqz	a5, 0x18
[1;34m[src/memory/paddr.c:97 mtrace_log] R: 0x80001ac4 (len=4) data=0x00150513[0m
0x80001ac4: 00 15 05 13 addi	a0, a0, 1
[1;34m[src/memory/paddr.c:97 mtrace_log] R: 0x80001ac8 (len=4) data=0x00a707b3[0m
0x80001ac8: 00 a7 07 b3 add	a5, a4, a0
[1;34m[src/memory/paddr.c:97 mtrace_log] R: 0x80001acc (len=4) data=0x0007c783[0m
[1;34m[src/memory/paddr.c:97 mtrace_log] R: 0x80002989 (len=1) data=0x00000075[0m
0x80001acc: 00 07 c7 83 lbu	a5, 0(a5)
[1;34m[src/memory/paddr.c:97 mtrace_log] R: 0x80001ad0 (len=4) data=0xfe079ae3[0m
0x80001ad0: fe 07 9a e3 bnez	a5, -0xc
[1;34m[src/memory/paddr.c:97 mtrace_log] R: 0x80001ac4 (len=4) data=0x00150513[0m
0x80001ac4: 00 15 05 13 addi	a0, a0, 1
[1;34m[src/memory/paddr.c:97 mtrace_log] R: 0x80001ac8 (len=4) data=0x00a707b3[0m
0x80001ac8: 00 a7 07 b3 add	a5, a4, a0
[1;34m[src/memory/paddr.c:97 mtrace_log] R: 0x80001acc (len=4) data=0x0007c783[0m
[1;34m[src/memory/paddr.c:97 mtrace_log] R: 0x8000298a (len=1) data=0x0000006c[0m
0x80001acc: 00 07 c7 83 lbu	a5, 0(a5)
[1;34m[src/memory/paddr.c:97 mtrace_log] R: 0x80001ad0 (len=4) data=0xfe079ae3[0m
0x80001ad0: fe 07 9a e3 bnez	a5, -0xc
[1;34m[src/memory/paddr.c:97 mtrace_log] R: 0x80001ac4 (len=4) data=0x00150513[0m
0x80001ac4: 00 15 05 13 addi	a0, a0, 1
[1;34m[src/memory/paddr.c:97 mtrace_log] R: 0x80001ac8 (len=4) data=0x00a707b3[0m
0x80001ac8: 00 a7 07 b3 add	a5, a4, a0
[1;34m[src/memory/paddr.c:97 mtrace_log] R: 0x80001acc (len=4) data=0x0007c783[0m
[1;34m[src/memory/paddr.c:97 mtrace_log] R: 0x8000298b (len=1) data=0x00000074[0m
0x80001acc: 00 07 c7 83 lbu	a5, 0(a5)
[1;34m[src/memory/paddr.c:97 mtrace_log] R: 0x80001ad0 (len=4) data=0xfe079ae3[0m
0x80001ad0: fe 07 9a e3 bnez	a5, -0xc
[1;34m[src/memory/paddr.c:97 mtrace_log] R: 0x80001ac4 (len=4) data=0x00150513[0m
0x80001ac4: 00 15 05 13 addi	a0, a0, 1
[1;34m[src/memory/paddr.c:97 mtrace_log] R: 0x80001ac8 (len=4) data=0x00a707b3[0m
0x80001ac8: 00 a7 07 b3 add	a5, a4, a0
[1;34m[src/memory/paddr.c:97 mtrace_log] R: 0x80001acc (len=4) data=0x0007c783[0m
[1;34m[src/memory/paddr.c:97 mtrace_log] R: 0x8000298c (len=1) data=0x00000069[0m
0x80001acc: 00 07 c7 83 lbu	a5, 0(a5)
[1;34m[src/memory/paddr.c:97 mtrace_log] R: 0x80001ad0 (len=4) data=0xfe079ae3[0m
0x80001ad0: fe 07 9a e3 bnez	a5, -0xc
[1;34m[src/memory/paddr.c:97 mtrace_log] R: 0x80001ac4 (len=4) data=0x00150513[0m
0x80001ac4: 00 15 05 13 addi	a0, a0, 1
[1;34m[src/memory/paddr.c:97 mtrace_log] R: 0x80001ac8 (len=4) data=0x00a707b3[0m
0x80001ac8: 00 a7 07 b3 add	a5, a4, a0
[1;34m[src/memory/paddr.c:97 mtrace_log] R: 0x80001acc (len=4) data=0x0007c783[0m
[1;34m[src/memory/paddr.c:97 mtrace_log] R: 0x8000298d (len=1) data=0x00000070[0m
0x80001acc: 00 07 c7 83 lbu	a5, 0(a5)
[1;34m[src/memory/paddr.c:97 mtrace_log] R: 0x80001ad0 (len=4) data=0xfe079ae3[0m
0x80001ad0: fe 07 9a e3 bnez	a5, -0xc
[1;34m[src/memory/paddr.c:97 mtrace_log] R: 0x80001ac4 (len=4) data=0x00150513[0m
0x80001ac4: 00 15 05 13 addi	a0, a0, 1
[1;34m[src/memory/paddr.c:97 mtrace_log] R: 0x80001ac8 (len=4) data=0x00a707b3[0m
0x80001ac8: 00 a7 07 b3 add	a5, a4, a0
[1;34m[src/memory/paddr.c:97 mtrace_log] R: 0x80001acc (len=4) data=0x0007c783[0m
[1;34m[src/memory/paddr.c:97 mtrace_log] R: 0x8000298e (len=1) data=0x00000072[0m
0x80001acc: 00 07 c7 83 lbu	a5, 0(a5)
[1;34m[src/memory/paddr.c:97 mtrace_log] R: 0x80001ad0 (len=4) data=0xfe079ae3[0m
0x80001ad0: fe 07 9a e3 bnez	a5, -0xc
[1;34m[src/memory/paddr.c:97 mtrace_log] R: 0x80001ac4 (len=4) data=0x00150513[0m
0x80001ac4: 00 15 05 13 addi	a0, a0, 1
[1;34m[src/memory/paddr.c:97 mtrace_log] R: 0x80001ac8 (len=4) data=0x00a707b3[0m
0x80001ac8: 00 a7 07 b3 add	a5, a4, a0
[1;34m[src/memory/paddr.c:97 mtrace_log] R: 0x80001acc (len=4) data=0x0007c783[0m
[1;34m[src/memory/paddr.c:97 mtrace_log] R: 0x8000298f (len=1) data=0x0000006f[0m
0x80001acc: 00 07 c7 83 lbu	a5, 0(a5)
[1;34m[src/memory/paddr.c:97 mtrace_log] R: 0x80001ad0 (len=4) data=0xfe079ae3[0m
0x80001ad0: fe 07 9a e3 bnez	a5, -0xc
[1;34m[src/memory/paddr.c:97 mtrace_log] R: 0x80001ac4 (len=4) data=0x00150513[0m
0x80001ac4: 00 15 05 13 addi	a0, a0, 1
[1;34m[src/memory/paddr.c:97 mtrace_log] R: 0x80001ac8 (len=4) data=0x00a707b3[0m
0x80001ac8: 00 a7 07 b3 add	a5, a4, a0
[1;34m[src/memory/paddr.c:97 mtrace_log] R: 0x80001acc (len=4) data=0x0007c783[0m
[1;34m[src/memory/paddr.c:97 mtrace_log] R: 0x80002990 (len=1) data=0x00000063[0m
0x80001acc: 00 07 c7 83 lbu	a5, 0(a5)
[1;34m[src/memory/paddr.c:97 mtrace_log] R: 0x80001ad0 (len=4) data=0xfe079ae3[0m
0x80001ad0: fe 07 9a e3 bnez	a5, -0xc
[1;34m[src/memory/paddr.c:97 mtrace_log] R: 0x80001ac4 (len=4) data=0x00150513[0m
0x80001ac4: 00 15 05 13 addi	a0, a0, 1
[1;34m[src/memory/paddr.c:97 mtrace_log] R: 0x80001ac8 (len=4) data=0x00a707b3[0m
0x80001ac8: 00 a7 07 b3 add	a5, a4, a0
[1;34m[src/memory/paddr.c:97 mtrace_log] R: 0x80001acc (len=4) data=0x0007c783[0m
[1;34m[src/memory/paddr.c:97 mtrace_log] R: 0x80002991 (len=1) data=0x00000065[0m
0x80001acc: 00 07 c7 83 lbu	a5, 0(a5)
[1;34m[src/memory/paddr.c:97 mtrace_log] R: 0x80001ad0 (len=4) data=0xfe079ae3[0m
0x80001ad0: fe 07 9a e3 bnez	a5, -0xc
[1;34m[src/memory/paddr.c:97 mtrace_log] R: 0x80001ac4 (len=4) data=0x00150513[0m
0x80001ac4: 00 15 05 13 addi	a0, a0, 1
[1;34m[src/memory/paddr.c:97 mtrace_log] R: 0x80001ac8 (len=4) data=0x00a707b3[0m
0x80001ac8: 00 a7 07 b3 add	a5, a4, a0
[1;34m[src/memory/paddr.c:97 mtrace_log] R: 0x80001acc (len=4) data=0x0007c783[0m
[1;34m[src/memory/paddr.c:97 mtrace_log] R: 0x80002992 (len=1) data=0x00000073[0m
0x80001acc: 00 07 c7 83 lbu	a5, 0(a5)
[1;34m[src/memory/paddr.c:97 mtrace_log] R: 0x80001ad0 (len=4) data=0xfe079ae3[0m
0x80001ad0: fe 07 9a e3 bnez	a5, -0xc
[1;34m[src/memory/paddr.c:97 mtrace_log] R: 0x80001ac4 (len=4) data=0x00150513[0m
0x80001ac4: 00 15 05 13 addi	a0, a0, 1
[1;34m[src/memory/paddr.c:97 mtrace_log] R: 0x80001ac8 (len=4) data=0x00a707b3[0m
0x80001ac8: 00 a7 07 b3 add	a5, a4, a0
[1;34m[src/memory/paddr.c:97 mtrace_log] R: 0x80001acc (len=4) data=0x0007c783[0m
[1;34m[src/memory/paddr.c:97 mtrace_log] R: 0x80002993 (len=1) data=0x00000073[0m
0x80001acc: 00 07 c7 83 lbu	a5, 0(a5)
[1;34m[src/memory/paddr.c:97 mtrace_log] R: 0x80001ad0 (len=4) data=0xfe079ae3[0m
0x80001ad0: fe 07 9a e3 bnez	a5, -0xc
[1;34m[src/memory/paddr.c:97 mtrace_log] R: 0x80001ac4 (len=4) data=0x00150513[0m
0x80001ac4: 00 15 05 13 addi	a0, a0, 1
[1;34m[src/memory/paddr.c:97 mtrace_log] R: 0x80001ac8 (len=4) data=0x00a707b3[0m
0x80001ac8: 00 a7 07 b3 add	a5, a4, a0
[1;34m[src/memory/paddr.c:97 mtrace_log] R: 0x80001acc (len=4) data=0x0007c783[0m
[1;34m[src/memory/paddr.c:97 mtrace_log] R: 0x80002994 (len=1) data=0x0000006f[0m
0x80001acc: 00 07 c7 83 lbu	a5, 0(a5)
[1;34m[src/memory/paddr.c:97 mtrace_log] R: 0x80001ad0 (len=4) data=0xfe079ae3[0m
0x80001ad0: fe 07 9a e3 bnez	a5, -0xc
[1;34m[src/memory/paddr.c:97 mtrace_log] R: 0x80001ac4 (len=4) data=0x00150513[0m
0x80001ac4: 00 15 05 13 addi	a0, a0, 1
[1;34m[src/memory/paddr.c:97 mtrace_log] R: 0x80001ac8 (len=4) data=0x00a707b3[0m
0x80001ac8: 00 a7 07 b3 add	a5, a4, a0
[1;34m[src/memory/paddr.c:97 mtrace_log] R: 0x80001acc (len=4) data=0x0007c783[0m
[1;34m[src/memory/paddr.c:97 mtrace_log] R: 0x80002995 (len=1) data=0x00000072[0m
0x80001acc: 00 07 c7 83 lbu	a5, 0(a5)
[1;34m[src/memory/paddr.c:97 mtrace_log] R: 0x80001ad0 (len=4) data=0xfe079ae3[0m
0x80001ad0: fe 07 9a e3 bnez	a5, -0xc
[1;34m[src/memory/paddr.c:97 mtrace_log] R: 0x80001ac4 (len=4) data=0x00150513[0m
0x80001ac4: 00 15 05 13 addi	a0, a0, 1
[1;34m[src/memory/paddr.c:97 mtrace_log] R: 0x80001ac8 (len=4) data=0x00a707b3[0m
0x80001ac8: 00 a7 07 b3 add	a5, a4, a0
[1;34m[src/memory/paddr.c:97 mtrace_log] R: 0x80001acc (len=4) data=0x0007c783[0m
[1;34m[src/memory/paddr.c:97 mtrace_log] R: 0x80002996 (len=1) data=0x00000020[0m
0x80001acc: 00 07 c7 83 lbu	a5, 0(a5)
[1;34m[src/memory/paddr.c:97 mtrace_log] R: 0x80001ad0 (len=4) data=0xfe079ae3[0m
0x80001ad0: fe 07 9a e3 bnez	a5, -0xc
[1;34m[src/memory/paddr.c:97 mtrace_log] R: 0x80001ac4 (len=4) data=0x00150513[0m
0x80001ac4: 00 15 05 13 addi	a0, a0, 1
[1;34m[src/memory/paddr.c:97 mtrace_log] R: 0x80001ac8 (len=4) data=0x00a707b3[0m
0x80001ac8: 00 a7 07 b3 add	a5, a4, a0
[1;34m[src/memory/paddr.c:97 mtrace_log] R: 0x80001acc (len=4) data=0x0007c783[0m
[1;34m[src/memory/paddr.c:97 mtrace_log] R: 0x80002997 (len=1) data=0x00000074[0m
0x80001acc: 00 07 c7 83 lbu	a5, 0(a5)
[1;34m[src/memory/paddr.c:97 mtrace_log] R: 0x80001ad0 (len=4) data=0xfe079ae3[0m
0x80001ad0: fe 07 9a e3 bnez	a5, -0xc
[1;34m[src/memory/paddr.c:97 mtrace_log] R: 0x80001ac4 (len=4) data=0x00150513[0m
0x80001ac4: 00 15 05 13 addi	a0, a0, 1
[1;34m[src/memory/paddr.c:97 mtrace_log] R: 0x80001ac8 (len=4) data=0x00a707b3[0m
0x80001ac8: 00 a7 07 b3 add	a5, a4, a0
[1;34m[src/memory/paddr.c:97 mtrace_log] R: 0x80001acc (len=4) data=0x0007c783[0m
[1;34m[src/memory/paddr.c:97 mtrace_log] R: 0x80002998 (len=1) data=0x00000065[0m
0x80001acc: 00 07 c7 83 lbu	a5, 0(a5)
[1;34m[src/memory/paddr.c:97 mtrace_log] R: 0x80001ad0 (len=4) data=0xfe079ae3[0m
0x80001ad0: fe 07 9a e3 bnez	a5, -0xc
[1;34m[src/memory/paddr.c:97 mtrace_log] R: 0x80001ac4 (len=4) data=0x00150513[0m
0x80001ac4: 00 15 05 13 addi	a0, a0, 1
[1;34m[src/memory/paddr.c:97 mtrace_log] R: 0x80001ac8 (len=4) data=0x00a707b3[0m
0x80001ac8: 00 a7 07 b3 add	a5, a4, a0
[1;34m[src/memory/paddr.c:97 mtrace_log] R: 0x80001acc (len=4) data=0x0007c783[0m
[1;34m[src/memory/paddr.c:97 mtrace_log] R: 0x80002999 (len=1) data=0x00000073[0m
0x80001acc: 00 07 c7 83 lbu	a5, 0(a5)
[1;34m[src/memory/paddr.c:97 mtrace_log] R: 0x80001ad0 (len=4) data=0xfe079ae3[0m
0x80001ad0: fe 07 9a e3 bnez	a5, -0xc
[1;34m[src/memory/paddr.c:97 mtrace_log] R: 0x80001ac4 (len=4) data=0x00150513[0m
0x80001ac4: 00 15 05 13 addi	a0, a0, 1
[1;34m[src/memory/paddr.c:97 mtrace_log] R: 0x80001ac8 (len=4) data=0x00a707b3[0m
0x80001ac8: 00 a7 07 b3 add	a5, a4, a0
[1;34m[src/memory/paddr.c:97 mtrace_log] R: 0x80001acc (len=4) data=0x0007c783[0m
[1;34m[src/memory/paddr.c:97 mtrace_log] R: 0x8000299a (len=1) data=0x00000074[0m
0x80001acc: 00 07 c7 83 lbu	a5, 0(a5)
[1;34m[src/memory/paddr.c:97 mtrace_log] R: 0x80001ad0 (len=4) data=0xfe079ae3[0m
0x80001ad0: fe 07 9a e3 bnez	a5, -0xc
[1;34m[src/memory/paddr.c:97 mtrace_log] R: 0x80001ac4 (len=4) data=0x00150513[0m
0x80001ac4: 00 15 05 13 addi	a0, a0, 1
[1;34m[src/memory/paddr.c:97 mtrace_log] R: 0x80001ac8 (len=4) data=0x00a707b3[0m
0x80001ac8: 00 a7 07 b3 add	a5, a4, a0
[1;34m[src/memory/paddr.c:97 mtrace_log] R: 0x80001acc (len=4) data=0x0007c783[0m
[1;34m[src/memory/paddr.c:97 mtrace_log] R: 0x8000299b (len=1) data=0x00000000[0m
0x80001acc: 00 07 c7 83 lbu	a5, 0(a5)
[1;34m[src/memory/paddr.c:97 mtrace_log] R: 0x80001ad0 (len=4) data=0xfe079ae3[0m
0x80001ad0: fe 07 9a e3 bnez	a5, -0xc
[1;34m[src/memory/paddr.c:97 mtrace_log] R: 0x80001ad4 (len=4) data=0x00008067[0m
0x80001ad4: 00 00 80 67 ret
[1;34m[src/memory/paddr.c:97 mtrace_log] R: 0x800020f0 (len=4) data=0x00412703[0m
[1;34m[src/memory/paddr.c:97 mtrace_log] R: 0x8009df44 (len=4) data=0xffffffff[0m
0x800020f0: 00 41 27 03 lw	a4, 4(sp)
[1;34m[src/memory/paddr.c:97 mtrace_log] R: 0x800020f4 (len=4) data=0xfff00613[0m
0x800020f4: ff f0 06 13 addi	a2, zero, -1
[1;34m[src/memory/paddr.c:97 mtrace_log] R: 0x800020f8 (len=4) data=0x00812783[0m
[1;34m[src/memory/paddr.c:97 mtrace_log] R: 0x8009df48 (len=4) data=0x00000000[0m
0x800020f8: 00 81 27 83 lw	a5, 8(sp)
[1;34m[src/memory/paddr.c:97 mtrace_log] R: 0x800020fc (len=4) data=0x00c12683[0m
[1;34m[src/memory/paddr.c:97 mtrace_log] R: 0x8009df4c (len=4) data=0xffffffff[0m
0x800020fc: 00 c1 26 83 lw	a3, 0xc(sp)
[1;34m[src/memory/paddr.c:97 mtrace_log] R: 0x80002100 (len=4) data=0x00c70663[0m
0x80002100: 00 c7 06 63 beq	a4, a2, 0xc
[1;34m[src/memory/paddr.c:97 mtrace_log] R: 0x8000210c (len=4) data=0x0017f793[0m
0x8000210c: 00 17 f7 93 andi	a5, a5, 1
[1;34m[src/memory/paddr.c:97 mtrace_log] R: 0x80002110 (len=4) data=0x14078063[0m
0x80002110: 14 07 80 63 beqz	a5, 0x140
[1;34m[src/memory/paddr.c:97 mtrace_log] R: 0x80002250 (len=4) data=0xfff68613[0m
0x80002250: ff f6 86 13 addi	a2, a3, -1
[1;34m[src/memory/paddr.c:97 mtrace_log] R: 0x80002254 (len=4) data=0x08d55463[0m
0x80002254: 08 d5 54 63 bge	a0, a3, 0x88
[1;34m[src/memory/paddr.c:97 mtrace_log] R: 0x800022dc (len=4) data=0x00060693[0m
0x800022dc: 00 06 06 93 mv	a3, a2
[1;34m[src/memory/paddr.c:97 mtrace_log] R: 0x800022e0 (len=4) data=0xe35ff06f[0m
0x800022e0: e3 5f f0 6f j	-0x1cc
[1;34m[src/memory/paddr.c:97 mtrace_log] R: 0x80002114 (len=4) data=0x1aa05663[0m
0x80002114: 1a a0 56 63 blez	a0, 0x1ac
[1;34m[src/memory/paddr.c:97 mtrace_log] R: 0x80002118 (len=4) data=0x00a48733[0m
0x80002118: 00 a4 87 33 add	a4, s1, a0
[1;34m[src/memory/paddr.c:97 mtrace_log] R: 0x8000211c (len=4) data=0x000dc783[0m
[1;34m[src/memory/paddr.c:97 mtrace_log] R: 0x80002988 (len=1) data=0x0000006d[0m
0x8000211c: 00 0d c7 83 lbu	a5, 0(s11)
[1;34m[src/memory/paddr.c:97 mtrace_log] R: 0x80002120 (len=4) data=0x00148493[0m
0x80002120: 00 14 84 93 addi	s1, s1, 1
[1;34m[src/memory/paddr.c:97 mtrace_log] R: 0x80002124 (len=4) data=0x001d8d93[0m
0x80002124: 00 1d 8d 93 addi	s11, s11, 1
[1;34m[src/memory/paddr.c:97 mtrace_log] R: 0x80002128 (len=4) data=0xfef48fa3[0m
[1;34m[src/memory/paddr.c:97 mtrace_log] W: 0x80095521 (len=1) data=0x0000006d[0m
0x80002128: fe f4 8f a3 sb	a5, -1(s1)
[1;34m[src/memory/paddr.c:97 mtrace_log] R: 0x8000212c (len=4) data=0xfe9718e3[0m
0x8000212c: fe 97 18 e3 bne	a4, s1, -0x10
[1;34m[src/memory/paddr.c:97 mtrace_log] R: 0x8000211c (len=4) data=0x000dc783[0m
[1;34m[src/memory/paddr.c:97 mtrace_log] R: 0x80002989 (len=1) data=0x00000075[0m
0x8000211c: 00 0d c7 83 lbu	a5, 0(s11)
[1;34m[src/memory/paddr.c:97 mtrace_log] R: 0x80002120 (len=4) data=0x00148493[0m
0x80002120: 00 14 84 93 addi	s1, s1, 1
[1;34m[src/memory/paddr.c:97 mtrace_log] R: 0x80002124 (len=4) data=0x001d8d93[0m
0x80002124: 00 1d 8d 93 addi	s11, s11, 1
[1;34m[src/memory/paddr.c:97 mtrace_log] R: 0x80002128 (len=4) data=0xfef48fa3[0m
[1;34m[src/memory/paddr.c:97 mtrace_log] W: 0x80095522 (len=1) data=0x00000075[0m
0x80002128: fe f4 8f a3 sb	a5, -1(s1)
[1;34m[src/memory/paddr.c:97 mtrace_log] R: 0x8000212c (len=4) data=0xfe9718e3[0m
0x8000212c: fe 97 18 e3 bne	a4, s1, -0x10
[1;34m[src/memory/paddr.c:97 mtrace_log] R: 0x8000211c (len=4) data=0x000dc783[0m
[1;34m[src/memory/paddr.c:97 mtrace_log] R: 0x8000298a (len=1) data=0x0000006c[0m
0x8000211c: 00 0d c7 83 lbu	a5, 0(s11)
[1;34m[src/memory/paddr.c:97 mtrace_log] R: 0x80002120 (len=4) data=0x00148493[0m
0x80002120: 00 14 84 93 addi	s1, s1, 1
[1;34m[src/memory/paddr.c:97 mtrace_log] R: 0x80002124 (len=4) data=0x001d8d93[0m
0x80002124: 00 1d 8d 93 addi	s11, s11, 1
[1;34m[src/memory/paddr.c:97 mtrace_log] R: 0x80002128 (len=4) data=0xfef48fa3[0m
[1;34m[src/memory/paddr.c:97 mtrace_log] W: 0x80095523 (len=1) data=0x0000006c[0m
0x80002128: fe f4 8f a3 sb	a5, -1(s1)
[1;34m[src/memory/paddr.c:97 mtrace_log] R: 0x8000212c (len=4) data=0xfe9718e3[0m
0x8000212c: fe 97 18 e3 bne	a4, s1, -0x10
[1;34m[src/memory/paddr.c:97 mtrace_log] R: 0x8000211c (len=4) data=0x000dc783[0m
[1;34m[src/memory/paddr.c:97 mtrace_log] R: 0x8000298b (len=1) data=0x00000074[0m
0x8000211c: 00 0d c7 83 lbu	a5, 0(s11)
[1;34m[src/memory/paddr.c:97 mtrace_log] R: 0x80002120 (len=4) data=0x00148493[0m
0x80002120: 00 14 84 93 addi	s1, s1, 1
[1;34m[src/memory/paddr.c:97 mtrace_log] R: 0x80002124 (len=4) data=0x001d8d93[0m
0x80002124: 00 1d 8d 93 addi	s11, s11, 1
[1;34m[src/memory/paddr.c:97 mtrace_log] R: 0x80002128 (len=4) data=0xfef48fa3[0m
[1;34m[src/memory/paddr.c:97 mtrace_log] W: 0x80095524 (len=1) data=0x00000074[0m
0x80002128: fe f4 8f a3 sb	a5, -1(s1)
[1;34m[src/memory/paddr.c:97 mtrace_log] R: 0x8000212c (len=4) data=0xfe9718e3[0m
0x8000212c: fe 97 18 e3 bne	a4, s1, -0x10
[1;34m[src/memory/paddr.c:97 mtrace_log] R: 0x8000211c (len=4) data=0x000dc783[0m
[1;34m[src/memory/paddr.c:97 mtrace_log] R: 0x8000298c (len=1) data=0x00000069[0m
0x8000211c: 00 0d c7 83 lbu	a5, 0(s11)
[1;34m[src/memory/paddr.c:97 mtrace_log] R: 0x80002120 (len=4) data=0x00148493[0m
0x80002120: 00 14 84 93 addi	s1, s1, 1
[1;34m[src/memory/paddr.c:97 mtrace_log] R: 0x80002124 (len=4) data=0x001d8d93[0m
0x80002124: 00 1d 8d 93 addi	s11, s11, 1
[1;34m[src/memory/paddr.c:97 mtrace_log] R: 0x80002128 (len=4) data=0xfef48fa3[0m
[1;34m[src/memory/paddr.c:97 mtrace_log] W: 0x80095525 (len=1) data=0x00000069[0m
0x80002128: fe f4 8f a3 sb	a5, -1(s1)
[1;34m[src/memory/paddr.c:97 mtrace_log] R: 0x8000212c (len=4) data=0xfe9718e3[0m
0x8000212c: fe 97 18 e3 bne	a4, s1, -0x10
[1;34m[src/memory/paddr.c:97 mtrace_log] R: 0x8000211c (len=4) data=0x000dc783[0m
[1;34m[src/memory/paddr.c:97 mtrace_log] R: 0x8000298d (len=1) data=0x00000070[0m
0x8000211c: 00 0d c7 83 lbu	a5, 0(s11)
[1;34m[src/memory/paddr.c:97 mtrace_log] R: 0x80002120 (len=4) data=0x00148493[0m
0x80002120: 00 14 84 93 addi	s1, s1, 1
[1;34m[src/memory/paddr.c:97 mtrace_log] R: 0x80002124 (len=4) data=0x001d8d93[0m
0x80002124: 00 1d 8d 93 addi	s11, s11, 1
[1;34m[src/memory/paddr.c:97 mtrace_log] R: 0x80002128 (len=4) data=0xfef48fa3[0m
[1;34m[src/memory/paddr.c:97 mtrace_log] W: 0x80095526 (len=1) data=0x00000070[0m
0x80002128: fe f4 8f a3 sb	a5, -1(s1)
[1;34m[src/memory/paddr.c:97 mtrace_log] R: 0x8000212c (len=4) data=0xfe9718e3[0m
0x8000212c: fe 97 18 e3 bne	a4, s1, -0x10
[1;34m[src/memory/paddr.c:97 mtrace_log] R: 0x8000211c (len=4) data=0x000dc783[0m
[1;34m[src/memory/paddr.c:97 mtrace_log] R: 0x8000298e (len=1) data=0x00000072[0m
0x8000211c: 00 0d c7 83 lbu	a5, 0(s11)
[1;34m[src/memory/paddr.c:97 mtrace_log] R: 0x80002120 (len=4) data=0x00148493[0m
0x80002120: 00 14 84 93 addi	s1, s1, 1
[1;34m[src/memory/paddr.c:97 mtrace_log] R: 0x80002124 (len=4) data=0x001d8d93[0m
0x80002124: 00 1d 8d 93 addi	s11, s11, 1
[1;34m[src/memory/paddr.c:97 mtrace_log] R: 0x80002128 (len=4) data=0xfef48fa3[0m
[1;34m[src/memory/paddr.c:97 mtrace_log] W: 0x80095527 (len=1) data=0x00000072[0m
0x80002128: fe f4 8f a3 sb	a5, -1(s1)
[1;34m[src/memory/paddr.c:97 mtrace_log] R: 0x8000212c (len=4) data=0xfe9718e3[0m
0x8000212c: fe 97 18 e3 bne	a4, s1, -0x10
[1;34m[src/memory/paddr.c:97 mtrace_log] R: 0x8000211c (len=4) data=0x000dc783[0m
[1;34m[src/memory/paddr.c:97 mtrace_log] R: 0x8000298f (len=1) data=0x0000006f[0m
0x8000211c: 00 0d c7 83 lbu	a5, 0(s11)
[1;34m[src/memory/paddr.c:97 mtrace_log] R: 0x80002120 (len=4) data=0x00148493[0m
0x80002120: 00 14 84 93 addi	s1, s1, 1
[1;34m[src/memory/paddr.c:97 mtrace_log] R: 0x80002124 (len=4) data=0x001d8d93[0m
0x80002124: 00 1d 8d 93 addi	s11, s11, 1
[1;34m[src/memory/paddr.c:97 mtrace_log] R: 0x80002128 (len=4) data=0xfef48fa3[0m
[1;34m[src/memory/paddr.c:97 mtrace_log] W: 0x80095528 (len=1) data=0x0000006f[0m
0x80002128: fe f4 8f a3 sb	a5, -1(s1)
[1;34m[src/memory/paddr.c:97 mtrace_log] R: 0x8000212c (len=4) data=0xfe9718e3[0m
0x8000212c: fe 97 18 e3 bne	a4, s1, -0x10
[1;34m[src/memory/paddr.c:97 mtrace_log] R: 0x8000211c (len=4) data=0x000dc783[0m
[1;34m[src/memory/paddr.c:97 mtrace_log] R: 0x80002990 (len=1) data=0x00000063[0m
0x8000211c: 00 0d c7 83 lbu	a5, 0(s11)
[1;34m[src/memory/paddr.c:97 mtrace_log] R: 0x80002120 (len=4) data=0x00148493[0m
0x80002120: 00 14 84 93 addi	s1, s1, 1
[1;34m[src/memory/paddr.c:97 mtrace_log] R: 0x80002124 (len=4) data=0x001d8d93[0m
0x80002124: 00 1d 8d 93 addi	s11, s11, 1
[1;34m[src/memory/paddr.c:97 mtrace_log] R: 0x80002128 (len=4) data=0xfef48fa3[0m
[1;34m[src/memory/paddr.c:97 mtrace_log] W: 0x80095529 (len=1) data=0x00000063[0m
0x80002128: fe f4 8f a3 sb	a5, -1(s1)
[1;34m[src/memory/paddr.c:97 mtrace_log] R: 0x8000212c (len=4) data=0xfe9718e3[0m
0x8000212c: fe 97 18 e3 bne	a4, s1, -0x10
[1;34m[src/memory/paddr.c:97 mtrace_log] R: 0x8000211c (len=4) data=0x000dc783[0m
[1;34m[src/memory/paddr.c:97 mtrace_log] R: 0x80002991 (len=1) data=0x00000065[0m
0x8000211c: 00 0d c7 83 lbu	a5, 0(s11)
[1;34m[src/memory/paddr.c:97 mtrace_log] R: 0x80002120 (len=4) data=0x00148493[0m
0x80002120: 00 14 84 93 addi	s1, s1, 1
[1;34m[src/memory/paddr.c:97 mtrace_log] R: 0x80002124 (len=4) data=0x001d8d93[0m
0x80002124: 00 1d 8d 93 addi	s11, s11, 1
[1;34m[src/memory/paddr.c:97 mtrace_log] R: 0x80002128 (len=4) data=0xfef48fa3[0m
[1;34m[src/memory/paddr.c:97 mtrace_log] W: 0x8009552a (len=1) data=0x00000065[0m
0x80002128: fe f4 8f a3 sb	a5, -1(s1)
[1;34m[src/memory/paddr.c:97 mtrace_log] R: 0x8000212c (len=4) data=0xfe9718e3[0m
0x8000212c: fe 97 18 e3 bne	a4, s1, -0x10
[1;34m[src/memory/paddr.c:97 mtrace_log] R: 0x8000211c (len=4) data=0x000dc783[0m
[1;34m[src/memory/paddr.c:97 mtrace_log] R: 0x80002992 (len=1) data=0x00000073[0m
0x8000211c: 00 0d c7 83 lbu	a5, 0(s11)
[1;34m[src/memory/paddr.c:97 mtrace_log] R: 0x80002120 (len=4) data=0x00148493[0m
0x80002120: 00 14 84 93 addi	s1, s1, 1
[1;34m[src/memory/paddr.c:97 mtrace_log] R: 0x80002124 (len=4) data=0x001d8d93[0m
0x80002124: 00 1d 8d 93 addi	s11, s11, 1
[1;34m[src/memory/paddr.c:97 mtrace_log] R: 0x80002128 (len=4) data=0xfef48fa3[0m
[1;34m[src/memory/paddr.c:97 mtrace_log] W: 0x8009552b (len=1) data=0x00000073[0m
0x80002128: fe f4 8f a3 sb	a5, -1(s1)
[1;34m[src/memory/paddr.c:97 mtrace_log] R: 0x8000212c (len=4) data=0xfe9718e3[0m
0x8000212c: fe 97 18 e3 bne	a4, s1, -0x10
[1;34m[src/memory/paddr.c:97 mtrace_log] R: 0x8000211c (len=4) data=0x000dc783[0m
[1;34m[src/memory/paddr.c:97 mtrace_log] R: 0x80002993 (len=1) data=0x00000073[0m
0x8000211c: 00 0d c7 83 lbu	a5, 0(s11)
[1;34m[src/memory/paddr.c:97 mtrace_log] R: 0x80002120 (len=4) data=0x00148493[0m
0x80002120: 00 14 84 93 addi	s1, s1, 1
[1;34m[src/memory/paddr.c:97 mtrace_log] R: 0x80002124 (len=4) data=0x001d8d93[0m
0x80002124: 00 1d 8d 93 addi	s11, s11, 1
[1;34m[src/memory/paddr.c:97 mtrace_log] R: 0x80002128 (len=4) data=0xfef48fa3[0m
[1;34m[src/memory/paddr.c:97 mtrace_log] W: 0x8009552c (len=1) data=0x00000073[0m
0x80002128: fe f4 8f a3 sb	a5, -1(s1)
[1;34m[src/memory/paddr.c:97 mtrace_log] R: 0x8000212c (len=4) data=0xfe9718e3[0m
0x8000212c: fe 97 18 e3 bne	a4, s1, -0x10
[1;34m[src/memory/paddr.c:97 mtrace_log] R: 0x8000211c (len=4) data=0x000dc783[0m
[1;34m[src/memory/paddr.c:97 mtrace_log] R: 0x80002994 (len=1) data=0x0000006f[0m
0x8000211c: 00 0d c7 83 lbu	a5, 0(s11)
[1;34m[src/memory/paddr.c:97 mtrace_log] R: 0x80002120 (len=4) data=0x00148493[0m
0x80002120: 00 14 84 93 addi	s1, s1, 1
[1;34m[src/memory/paddr.c:97 mtrace_log] R: 0x80002124 (len=4) data=0x001d8d93[0m
0x80002124: 00 1d 8d 93 addi	s11, s11, 1
[1;34m[src/memory/paddr.c:97 mtrace_log] R: 0x80002128 (len=4) data=0xfef48fa3[0m
[1;34m[src/memory/paddr.c:97 mtrace_log] W: 0x8009552d (len=1) data=0x0000006f[0m
0x80002128: fe f4 8f a3 sb	a5, -1(s1)
[1;34m[src/memory/paddr.c:97 mtrace_log] R: 0x8000212c (len=4) data=0xfe9718e3[0m
0x8000212c: fe 97 18 e3 bne	a4, s1, -0x10
[1;34m[src/memory/paddr.c:97 mtrace_log] R: 0x8000211c (len=4) data=0x000dc783[0m
[1;34m[src/memory/paddr.c:97 mtrace_log] R: 0x80002995 (len=1) data=0x00000072[0m
0x8000211c: 00 0d c7 83 lbu	a5, 0(s11)
[1;34m[src/memory/paddr.c:97 mtrace_log] R: 0x80002120 (len=4) data=0x00148493[0m
0x80002120: 00 14 84 93 addi	s1, s1, 1
[1;34m[src/memory/paddr.c:97 mtrace_log] R: 0x80002124 (len=4) data=0x001d8d93[0m
0x80002124: 00 1d 8d 93 addi	s11, s11, 1
[1;34m[src/memory/paddr.c:97 mtrace_log] R: 0x80002128 (len=4) data=0xfef48fa3[0m
[1;34m[src/memory/paddr.c:97 mtrace_log] W: 0x8009552e (len=1) data=0x00000072[0m
0x80002128: fe f4 8f a3 sb	a5, -1(s1)
[1;34m[src/memory/paddr.c:97 mtrace_log] R: 0x8000212c (len=4) data=0xfe9718e3[0m
0x8000212c: fe 97 18 e3 bne	a4, s1, -0x10
[1;34m[src/memory/paddr.c:97 mtrace_log] R: 0x8000211c (len=4) data=0x000dc783[0m
[1;34m[src/memory/paddr.c:97 mtrace_log] R: 0x80002996 (len=1) data=0x00000020[0m
0x8000211c: 00 0d c7 83 lbu	a5, 0(s11)
[1;34m[src/memory/paddr.c:97 mtrace_log] R: 0x80002120 (len=4) data=0x00148493[0m
0x80002120: 00 14 84 93 addi	s1, s1, 1
[1;34m[src/memory/paddr.c:97 mtrace_log] R: 0x80002124 (len=4) data=0x001d8d93[0m
0x80002124: 00 1d 8d 93 addi	s11, s11, 1
[1;34m[src/memory/paddr.c:97 mtrace_log] R: 0x80002128 (len=4) data=0xfef48fa3[0m
[1;34m[src/memory/paddr.c:97 mtrace_log] W: 0x8009552f (len=1) data=0x00000020[0m
0x80002128: fe f4 8f a3 sb	a5, -1(s1)
[1;34m[src/memory/paddr.c:97 mtrace_log] R: 0x8000212c (len=4) data=0xfe9718e3[0m
0x8000212c: fe 97 18 e3 bne	a4, s1, -0x10
[1;34m[src/memory/paddr.c:97 mtrace_log] R: 0x8000211c (len=4) data=0x000dc783[0m
[1;34m[src/memory/paddr.c:97 mtrace_log] R: 0x80002997 (len=1) data=0x00000074[0m
0x8000211c: 00 0d c7 83 lbu	a5, 0(s11)
[1;34m[src/memory/paddr.c:97 mtrace_log] R: 0x80002120 (len=4) data=0x00148493[0m
0x80002120: 00 14 84 93 addi	s1, s1, 1
[1;34m[src/memory/paddr.c:97 mtrace_log] R: 0x80002124 (len=4) data=0x001d8d93[0m
0x80002124: 00 1d 8d 93 addi	s11, s11, 1
[1;34m[src/memory/paddr.c:97 mtrace_log] R: 0x80002128 (len=4) data=0xfef48fa3[0m
[1;34m[src/memory/paddr.c:97 mtrace_log] W: 0x80095530 (len=1) data=0x00000074[0m
0x80002128: fe f4 8f a3 sb	a5, -1(s1)
[1;34m[src/memory/paddr.c:97 mtrace_log] R: 0x8000212c (len=4) data=0xfe9718e3[0m
0x8000212c: fe 97 18 e3 bne	a4, s1, -0x10
[1;34m[src/memory/paddr.c:97 mtrace_log] R: 0x8000211c (len=4) data=0x000dc783[0m
[1;34m[src/memory/paddr.c:97 mtrace_log] R: 0x80002998 (len=1) data=0x00000065[0m
0x8000211c: 00 0d c7 83 lbu	a5, 0(s11)
[1;34m[src/memory/paddr.c:97 mtrace_log] R: 0x80002120 (len=4) data=0x00148493[0m
0x80002120: 00 14 84 93 addi	s1, s1, 1
[1;34m[src/memory/paddr.c:97 mtrace_log] R: 0x80002124 (len=4) data=0x001d8d93[0m
0x80002124: 00 1d 8d 93 addi	s11, s11, 1
[1;34m[src/memory/paddr.c:97 mtrace_log] R: 0x80002128 (len=4) data=0xfef48fa3[0m
[1;34m[src/memory/paddr.c:97 mtrace_log] W: 0x80095531 (len=1) data=0x00000065[0m
0x80002128: fe f4 8f a3 sb	a5, -1(s1)
[1;34m[src/memory/paddr.c:97 mtrace_log] R: 0x8000212c (len=4) data=0xfe9718e3[0m
0x8000212c: fe 97 18 e3 bne	a4, s1, -0x10
[1;34m[src/memory/paddr.c:97 mtrace_log] R: 0x8000211c (len=4) data=0x000dc783[0m
[1;34m[src/memory/paddr.c:97 mtrace_log] R: 0x80002999 (len=1) data=0x00000073[0m
0x8000211c: 00 0d c7 83 lbu	a5, 0(s11)
[1;34m[src/memory/paddr.c:97 mtrace_log] R: 0x80002120 (len=4) data=0x00148493[0m
0x80002120: 00 14 84 93 addi	s1, s1, 1
[1;34m[src/memory/paddr.c:97 mtrace_log] R: 0x80002124 (len=4) data=0x001d8d93[0m
0x80002124: 00 1d 8d 93 addi	s11, s11, 1
[1;34m[src/memory/paddr.c:97 mtrace_log] R: 0x80002128 (len=4) data=0xfef48fa3[0m
[1;34m[src/memory/paddr.c:97 mtrace_log] W: 0x80095532 (len=1) data=0x00000073[0m
0x80002128: fe f4 8f a3 sb	a5, -1(s1)
[1;34m[src/memory/paddr.c:97 mtrace_log] R: 0x8000212c (len=4) data=0xfe9718e3[0m
0x8000212c: fe 97 18 e3 bne	a4, s1, -0x10
[1;34m[src/memory/paddr.c:97 mtrace_log] R: 0x8000211c (len=4) data=0x000dc783[0m
[1;34m[src/memory/paddr.c:97 mtrace_log] R: 0x8000299a (len=1) data=0x00000074[0m
0x8000211c: 00 0d c7 83 lbu	a5, 0(s11)
[1;34m[src/memory/paddr.c:97 mtrace_log] R: 0x80002120 (len=4) data=0x00148493[0m
0x80002120: 00 14 84 93 addi	s1, s1, 1
[1;34m[src/memory/paddr.c:97 mtrace_log] R: 0x80002124 (len=4) data=0x001d8d93[0m
0x80002124: 00 1d 8d 93 addi	s11, s11, 1
[1;34m[src/memory/paddr.c:97 mtrace_log] R: 0x80002128 (len=4) data=0xfef48fa3[0m
[1;34m[src/memory/paddr.c:97 mtrace_log] W: 0x80095533 (len=1) data=0x00000074[0m
0x80002128: fe f4 8f a3 sb	a5, -1(s1)
[1;34m[src/memory/paddr.c:97 mtrace_log] R: 0x8000212c (len=4) data=0xfe9718e3[0m
0x8000212c: fe 97 18 e3 bne	a4, s1, -0x10
[1;34m[src/memory/paddr.c:97 mtrace_log] R: 0x80002130 (len=4) data=0x40a684b3[0m
0x80002130: 40 a6 84 b3 sub	s1, a3, a0
[1;34m[src/memory/paddr.c:97 mtrace_log] R: 0x80002134 (len=4) data=0x00140593[0m
0x80002134: 00 14 05 93 addi	a1, s0, 1
[1;34m[src/memory/paddr.c:97 mtrace_log] R: 0x80002138 (len=4) data=0x009704b3[0m
0x80002138: 00 97 04 b3 add	s1, a4, s1
[1;34m[src/memory/paddr.c:97 mtrace_log] R: 0x8000213c (len=4) data=0x02000793[0m
0x8000213c: 02 00 07 93 addi	a5, zero, 0x20
[1;34m[src/memory/paddr.c:97 mtrace_log] R: 0x80002140 (len=4) data=0x16d55663[0m
0x80002140: 16 d5 56 63 bge	a0, a3, 0x16c
[1;34m[src/memory/paddr.c:97 mtrace_log] R: 0x800022ac (len=4) data=0x00144783[0m
[1;34m[src/memory/paddr.c:97 mtrace_log] R: 0x8000291c (len=1) data=0x0000000a[0m
0x800022ac: 00 14 47 83 lbu	a5, 1(s0)
[1;34m[src/memory/paddr.c:97 mtrace_log] R: 0x800022b0 (len=4) data=0x01c12d83[0m
[1;34m[src/memory/paddr.c:97 mtrace_log] R: 0x8009df5c (len=4) data=0x00000000[0m
0x800022b0: 01 c1 2d 83 lw	s11, 0x1c(sp)
[1;34m[src/memory/paddr.c:97 mtrace_log] R: 0x800022b4 (len=4) data=0x00070493[0m
0x800022b4: 00 07 04 93 mv	s1, a4
[1;34m[src/memory/paddr.c:97 mtrace_log] R: 0x800022b8 (len=4) data=0xbc0792e3[0m
0x800022b8: bc 07 92 e3 bnez	a5, -0x43c
[1;34m[src/memory/paddr.c:97 mtrace_log] R: 0x80001e7c (len=4) data=0x05578c63[0m
0x80001e7c: 05 57 8c 63 beq	a5, s5, 0x58
[1;34m[src/memory/paddr.c:97 mtrace_log] R: 0x80001e80 (len=4) data=0x00f48023[0m
[1;34m[src/memory/paddr.c:97 mtrace_log] W: 0x80095534 (len=1) data=0x0000000a[0m
0x80001e80: 00 f4 80 23 sb	a5, 0(s1)
[1;34m[src/memory/paddr.c:97 mtrace_log] R: 0x80001e84 (len=4) data=0x0015c783[0m
[1;34m[src/memory/paddr.c:97 mtrace_log] R: 0x8000291d (len=1) data=0x00000000[0m
0x80001e84: 00 15 c7 83 lbu	a5, 1(a1)
[1;34m[src/memory/paddr.c:97 mtrace_log] R: 0x80001e88 (len=4) data=0x00148493[0m
0x80001e88: 00 14 84 93 addi	s1, s1, 1
[1;34m[src/memory/paddr.c:97 mtrace_log] R: 0x80001e8c (len=4) data=0x00158593[0m
0x80001e8c: 00 15 85 93 addi	a1, a1, 1
[1;34m[src/memory/paddr.c:97 mtrace_log] R: 0x80001e90 (len=4) data=0xfe0796e3[0m
0x80001e90: fe 07 96 e3 bnez	a5, -0x14
[1;34m[src/memory/paddr.c:97 mtrace_log] R: 0x80001e94 (len=4) data=0x04812403[0m
[1;34m[src/memory/paddr.c:97 mtrace_log] R: 0x8009df88 (len=4) data=0x0000006d[0m
0x80001e94: 04 81 24 03 lw	s0, 0x48(sp)
[1;34m[src/memory/paddr.c:97 mtrace_log] R: 0x80001e98 (len=4) data=0x04012903[0m
[1;34m[src/memory/paddr.c:97 mtrace_log] R: 0x8009df80 (len=4) data=0x00000100[0m
0x80001e98: 04 01 29 03 lw	s2, 0x40(sp)
[1;34m[src/memory/paddr.c:97 mtrace_log] R: 0x80001e9c (len=4) data=0x03c12983[0m
[1;34m[src/memory/paddr.c:97 mtrace_log] R: 0x8009df7c (len=4) data=0x80002914[0m
0x80001e9c: 03 c1 29 83 lw	s3, 0x3c(sp)
[1;34m[src/memory/paddr.c:97 mtrace_log] R: 0x80001ea0 (len=4) data=0x03812a03[0m
[1;34m[src/memory/paddr.c:97 mtrace_log] R: 0x8009df78 (len=4) data=0x00000000[0m
0x80001ea0: 03 81 2a 03 lw	s4, 0x38(sp)
[1;34m[src/memory/paddr.c:97 mtrace_log] R: 0x80001ea4 (len=4) data=0x03412a83[0m
[1;34m[src/memory/paddr.c:97 mtrace_log] R: 0x8009df74 (len=4) data=0x00000000[0m
0x80001ea4: 03 41 2a 83 lw	s5, 0x34(sp)
[1;34m[src/memory/paddr.c:97 mtrace_log] R: 0x80001ea8 (len=4) data=0x02c12b83[0m
[1;34m[src/memory/paddr.c:97 mtrace_log] R: 0x8009df6c (len=4) data=0x00000000[0m
0x80001ea8: 02 c1 2b 83 lw	s7, 0x2c(sp)
[1;34m[src/memory/paddr.c:97 mtrace_log] R: 0x80001eac (len=4) data=0x02812c03[0m
[1;34m[src/memory/paddr.c:97 mtrace_log] R: 0x8009df68 (len=4) data=0x00000000[0m
0x80001eac: 02 81 2c 03 lw	s8, 0x28(sp)
[1;34m[src/memory/paddr.c:97 mtrace_log] R: 0x80001eb0 (len=4) data=0x02412c83[0m
[1;34m[src/memory/paddr.c:97 mtrace_log] R: 0x8009df64 (len=4) data=0x00000000[0m
0x80001eb0: 02 41 2c 83 lw	s9, 0x24(sp)
[1;34m[src/memory/paddr.c:97 mtrace_log] R: 0x80001eb4 (len=4) data=0x02012d03[0m
[1;34m[src/memory/paddr.c:97 mtrace_log] R: 0x8009df60 (len=4) data=0x00000000[0m
0x80001eb4: 02 01 2d 03 lw	s10, 0x20(sp)
[1;34m[src/memory/paddr.c:97 mtrace_log] R: 0x80001eb8 (len=4) data=0x00048023[0m
[1;34m[src/memory/paddr.c:97 mtrace_log] W: 0x80095535 (len=1) data=0x00000000[0m
0x80001eb8: 00 04 80 23 sb	zero, 0(s1)
[1;34m[src/memory/paddr.c:97 mtrace_log] R: 0x80001ebc (len=4) data=0x04c12083[0m
[1;34m[src/memory/paddr.c:97 mtrace_log] R: 0x8009df8c (len=4) data=0x80002340[0m
0x80001ebc: 04 c1 20 83 lw	ra, 0x4c(sp)
[1;34m[src/memory/paddr.c:97 mtrace_log] R: 0x80001ec0 (len=4) data=0x41648533[0m
0x80001ec0: 41 64 85 33 sub	a0, s1, s6
[1;34m[src/memory/paddr.c:97 mtrace_log] R: 0x80001ec4 (len=4) data=0x04412483[0m
[1;34m[src/memory/paddr.c:97 mtrace_log] R: 0x8009df84 (len=4) data=0x80002eac[0m
0x80001ec4: 04 41 24 83 lw	s1, 0x44(sp)
[1;34m[src/memory/paddr.c:97 mtrace_log] R: 0x80001ec8 (len=4) data=0x03012b03[0m
[1;34m[src/memory/paddr.c:97 mtrace_log] R: 0x8009df70 (len=4) data=0x00000000[0m
0x80001ec8: 03 01 2b 03 lw	s6, 0x30(sp)
[1;34m[src/memory/paddr.c:97 mtrace_log] R: 0x80001ecc (len=4) data=0x05010113[0m
0x80001ecc: 05 01 01 13 addi	sp, sp, 0x50
[1;34m[src/memory/paddr.c:97 mtrace_log] R: 0x80001ed0 (len=4) data=0x00008067[0m
0x80001ed0: 00 00 80 67 ret
[1;34m[src/memory/paddr.c:97 mtrace_log] R: 0x80002340 (len=4) data=0x00093797[0m
0x80002340: 00 09 37 97 auipc	a5, 0x93
[1;34m[src/memory/paddr.c:97 mtrace_log] R: 0x80002344 (len=4) data=0x1dc78793[0m
0x80002344: 1d c7 87 93 addi	a5, a5, 0x1dc
[1;34m[src/memory/paddr.c:97 mtrace_log] R: 0x80002348 (len=4) data=0x0007c703[0m
[1;34m[src/memory/paddr.c:97 mtrace_log] R: 0x8009551c (len=1) data=0x00000020[0m
0x80002348: 00 07 c7 03 lbu	a4, 0(a5)
[1;34m[src/memory/paddr.c:97 mtrace_log] R: 0x8000234c (len=4) data=0x00070e63[0m
0x8000234c: 00 07 0e 63 beqz	a4, 0x1c
[1;34m[src/memory/paddr.c:97 mtrace_log] R: 0x80002350 (len=4) data=0xa00006b7[0m
0x80002350: a0 00 06 b7 lui	a3, 0xa0000
[1;34m[src/memory/paddr.c:97 mtrace_log] R: 0x80002354 (len=4) data=0x3f868693[0m
0x80002354: 3f 86 86 93 addi	a3, a3, 0x3f8
[1;34m[src/memory/paddr.c:97 mtrace_log] R: 0x80002358 (len=4) data=0x00178793[0m
0x80002358: 00 17 87 93 addi	a5, a5, 1
[1;34m[src/memory/paddr.c:97 mtrace_log] R: 0x8000235c (len=4) data=0x00e68023[0m
[1;34m[src/memory/paddr.c:97 mtrace_log] W: 0xa00003f8 (len=1) data=0x00000020[0m
0x8000235c: 00 e6 80 23 sb	a4, 0(a3)
[1;34m[src/memory/paddr.c:97 mtrace_log] R: 0x80002360 (len=4) data=0x0007c703[0m
[1;34m[src/memory/paddr.c:97 mtrace_log] R: 0x8009551d (len=1) data=0x00000020[0m
0x80002360: 00 07 c7 03 lbu	a4, 0(a5)
[1;34m[src/memory/paddr.c:97 mtrace_log] R: 0x80002364 (len=4) data=0xfe071ae3[0m
0x80002364: fe 07 1a e3 bnez	a4, -0xc
[1;34m[src/memory/paddr.c:97 mtrace_log] R: 0x80002358 (len=4) data=0x00178793[0m
0x80002358: 00 17 87 93 addi	a5, a5, 1
[1;34m[src/memory/paddr.c:97 mtrace_log] R: 0x8000235c (len=4) data=0x00e68023[0m
[1;34m[src/memory/paddr.c:97 mtrace_log] W: 0xa00003f8 (len=1) data=0x00000020[0m
0x8000235c: 00 e6 80 23 sb	a4, 0(a3)
[1;34m[src/memory/paddr.c:97 mtrace_log] R: 0x80002360 (len=4) data=0x0007c703[0m
[1;34m[src/memory/paddr.c:97 mtrace_log] R: 0x8009551e (len=1) data=0x0000006d[0m
0x80002360: 00 07 c7 03 lbu	a4, 0(a5)
[1;34m[src/memory/paddr.c:97 mtrace_log] R: 0x80002364 (len=4) data=0xfe071ae3[0m
0x80002364: fe 07 1a e3 bnez	a4, -0xc
[1;34m[src/memory/paddr.c:97 mtrace_log] R: 0x80002358 (len=4) data=0x00178793[0m
0x80002358: 00 17 87 93 addi	a5, a5, 1
[1;34m[src/memory/paddr.c:97 mtrace_log] R: 0x8000235c (len=4) data=0x00e68023[0m
[1;34m[src/memory/paddr.c:97 mtrace_log] W: 0xa00003f8 (len=1) data=0x0000006d[0m
0x8000235c: 00 e6 80 23 sb	a4, 0(a3)
[1;34m[src/memory/paddr.c:97 mtrace_log] R: 0x80002360 (len=4) data=0x0007c703[0m
[1;34m[src/memory/paddr.c:97 mtrace_log] R: 0x8009551f (len=1) data=0x0000003a[0m
0x80002360: 00 07 c7 03 lbu	a4, 0(a5)
[1;34m[src/memory/paddr.c:97 mtrace_log] R: 0x80002364 (len=4) data=0xfe071ae3[0m
0x80002364: fe 07 1a e3 bnez	a4, -0xc
[1;34m[src/memory/paddr.c:97 mtrace_log] R: 0x80002358 (len=4) data=0x00178793[0m
0x80002358: 00 17 87 93 addi	a5, a5, 1
[1;34m[src/memory/paddr.c:97 mtrace_log] R: 0x8000235c (len=4) data=0x00e68023[0m
[1;34m[src/memory/paddr.c:97 mtrace_log] W: 0xa00003f8 (len=1) data=0x0000003a[0m
0x8000235c: 00 e6 80 23 sb	a4, 0(a3)
[1;34m[src/memory/paddr.c:97 mtrace_log] R: 0x80002360 (len=4) data=0x0007c703[0m
[1;34m[src/memory/paddr.c:97 mtrace_log] R: 0x80095520 (len=1) data=0x00000020[0m
0x80002360: 00 07 c7 03 lbu	a4, 0(a5)
[1;34m[src/memory/paddr.c:97 mtrace_log] R: 0x80002364 (len=4) data=0xfe071ae3[0m
0x80002364: fe 07 1a e3 bnez	a4, -0xc
[1;34m[src/memory/paddr.c:97 mtrace_log] R: 0x80002358 (len=4) data=0x00178793[0m
0x80002358: 00 17 87 93 addi	a5, a5, 1
[1;34m[src/memory/paddr.c:97 mtrace_log] R: 0x8000235c (len=4) data=0x00e68023[0m
[1;34m[src/memory/paddr.c:97 mtrace_log] W: 0xa00003f8 (len=1) data=0x00000020[0m
0x8000235c: 00 e6 80 23 sb	a4, 0(a3)
[1;34m[src/memory/paddr.c:97 mtrace_log] R: 0x80002360 (len=4) data=0x0007c703[0m
[1;34m[src/memory/paddr.c:97 mtrace_log] R: 0x80095521 (len=1) data=0x0000006d[0m
0x80002360: 00 07 c7 03 lbu	a4, 0(a5)
[1;34m[src/memory/paddr.c:97 mtrace_log] R: 0x80002364 (len=4) data=0xfe071ae3[0m
0x80002364: fe 07 1a e3 bnez	a4, -0xc
[1;34m[src/memory/paddr.c:97 mtrace_log] R: 0x80002358 (len=4) data=0x00178793[0m
0x80002358: 00 17 87 93 addi	a5, a5, 1
[1;34m[src/memory/paddr.c:97 mtrace_log] R: 0x8000235c (len=4) data=0x00e68023[0m
[1;34m[src/memory/paddr.c:97 mtrace_log] W: 0xa00003f8 (len=1) data=0x0000006d[0m
0x8000235c: 00 e6 80 23 sb	a4, 0(a3)
[1;34m[src/memory/paddr.c:97 mtrace_log] R: 0x80002360 (len=4) data=0x0007c703[0m
[1;34m[src/memory/paddr.c:97 mtrace_log] R: 0x80095522 (len=1) data=0x00000075[0m
0x80002360: 00 07 c7 03 lbu	a4, 0(a5)
[1;34m[src/memory/paddr.c:97 mtrace_log] R: 0x80002364 (len=4) data=0xfe071ae3[0m
0x80002364: fe 07 1a e3 bnez	a4, -0xc
[1;34m[src/memory/paddr.c:97 mtrace_log] R: 0x80002358 (len=4) data=0x00178793[0m
0x80002358: 00 17 87 93 addi	a5, a5, 1
[1;34m[src/memory/paddr.c:97 mtrace_log] R: 0x8000235c (len=4) data=0x00e68023[0m
[1;34m[src/memory/paddr.c:97 mtrace_log] W: 0xa00003f8 (len=1) data=0x00000075[0m
0x8000235c: 00 e6 80 23 sb	a4, 0(a3)
[1;34m[src/memory/paddr.c:97 mtrace_log] R: 0x80002360 (len=4) data=0x0007c703[0m
[1;34m[src/memory/paddr.c:97 mtrace_log] R: 0x80095523 (len=1) data=0x0000006c[0m
0x80002360: 00 07 c7 03 lbu	a4, 0(a5)
[1;34m[src/memory/paddr.c:97 mtrace_log] R: 0x80002364 (len=4) data=0xfe071ae3[0m
0x80002364: fe 07 1a e3 bnez	a4, -0xc
[1;34m[src/memory/paddr.c:97 mtrace_log] R: 0x80002358 (len=4) data=0x00178793[0m
0x80002358: 00 17 87 93 addi	a5, a5, 1
[1;34m[src/memory/paddr.c:97 mtrace_log] R: 0x8000235c (len=4) data=0x00e68023[0m
[1;34m[src/memory/paddr.c:97 mtrace_log] W: 0xa00003f8 (len=1) data=0x0000006c[0m
0x8000235c: 00 e6 80 23 sb	a4, 0(a3)
[1;34m[src/memory/paddr.c:97 mtrace_log] R: 0x80002360 (len=4) data=0x0007c703[0m
[1;34m[src/memory/paddr.c:97 mtrace_log] R: 0x80095524 (len=1) data=0x00000074[0m
0x80002360: 00 07 c7 03 lbu	a4, 0(a5)
[1;34m[src/memory/paddr.c:97 mtrace_log] R: 0x80002364 (len=4) data=0xfe071ae3[0m
0x80002364: fe 07 1a e3 bnez	a4, -0xc
[1;34m[src/memory/paddr.c:97 mtrace_log] R: 0x80002358 (len=4) data=0x00178793[0m
0x80002358: 00 17 87 93 addi	a5, a5, 1
[1;34m[src/memory/paddr.c:97 mtrace_log] R: 0x8000235c (len=4) data=0x00e68023[0m
[1;34m[src/memory/paddr.c:97 mtrace_log] W: 0xa00003f8 (len=1) data=0x00000074[0m
0x8000235c: 00 e6 80 23 sb	a4, 0(a3)
[1;34m[src/memory/paddr.c:97 mtrace_log] R: 0x80002360 (len=4) data=0x0007c703[0m
[1;34m[src/memory/paddr.c:97 mtrace_log] R: 0x80095525 (len=1) data=0x00000069[0m
0x80002360: 00 07 c7 03 lbu	a4, 0(a5)
[1;34m[src/memory/paddr.c:97 mtrace_log] R: 0x80002364 (len=4) data=0xfe071ae3[0m
0x80002364: fe 07 1a e3 bnez	a4, -0xc
[1;34m[src/memory/paddr.c:97 mtrace_log] R: 0x80002358 (len=4) data=0x00178793[0m
0x80002358: 00 17 87 93 addi	a5, a5, 1
[1;34m[src/memory/paddr.c:97 mtrace_log] R: 0x8000235c (len=4) data=0x00e68023[0m
[1;34m[src/memory/paddr.c:97 mtrace_log] W: 0xa00003f8 (len=1) data=0x00000069[0m
0x8000235c: 00 e6 80 23 sb	a4, 0(a3)
[1;34m[src/memory/paddr.c:97 mtrace_log] R: 0x80002360 (len=4) data=0x0007c703[0m
[1;34m[src/memory/paddr.c:97 mtrace_log] R: 0x80095526 (len=1) data=0x00000070[0m
0x80002360: 00 07 c7 03 lbu	a4, 0(a5)
[1;34m[src/memory/paddr.c:97 mtrace_log] R: 0x80002364 (len=4) data=0xfe071ae3[0m
0x80002364: fe 07 1a e3 bnez	a4, -0xc
[1;34m[src/memory/paddr.c:97 mtrace_log] R: 0x80002358 (len=4) data=0x00178793[0m
0x80002358: 00 17 87 93 addi	a5, a5, 1
[1;34m[src/memory/paddr.c:97 mtrace_log] R: 0x8000235c (len=4) data=0x00e68023[0m
[1;34m[src/memory/paddr.c:97 mtrace_log] W: 0xa00003f8 (len=1) data=0x00000070[0m
0x8000235c: 00 e6 80 23 sb	a4, 0(a3)
[1;34m[src/memory/paddr.c:97 mtrace_log] R: 0x80002360 (len=4) data=0x0007c703[0m
[1;34m[src/memory/paddr.c:97 mtrace_log] R: 0x80095527 (len=1) data=0x00000072[0m
0x80002360: 00 07 c7 03 lbu	a4, 0(a5)
[1;34m[src/memory/paddr.c:97 mtrace_log] R: 0x80002364 (len=4) data=0xfe071ae3[0m
0x80002364: fe 07 1a e3 bnez	a4, -0xc
[1;34m[src/memory/paddr.c:97 mtrace_log] R: 0x80002358 (len=4) data=0x00178793[0m
0x80002358: 00 17 87 93 addi	a5, a5, 1
[1;34m[src/memory/paddr.c:97 mtrace_log] R: 0x8000235c (len=4) data=0x00e68023[0m
[1;34m[src/memory/paddr.c:97 mtrace_log] W: 0xa00003f8 (len=1) data=0x00000072[0m
0x8000235c: 00 e6 80 23 sb	a4, 0(a3)
[1;34m[src/memory/paddr.c:97 mtrace_log] R: 0x80002360 (len=4) data=0x0007c703[0m
[1;34m[src/memory/paddr.c:97 mtrace_log] R: 0x80095528 (len=1) data=0x0000006f[0m
0x80002360: 00 07 c7 03 lbu	a4, 0(a5)
[1;34m[src/memory/paddr.c:97 mtrace_log] R: 0x80002364 (len=4) data=0xfe071ae3[0m
0x80002364: fe 07 1a e3 bnez	a4, -0xc
[1;34m[src/memory/paddr.c:97 mtrace_log] R: 0x80002358 (len=4) data=0x00178793[0m
0x80002358: 00 17 87 93 addi	a5, a5, 1
[1;34m[src/memory/paddr.c:97 mtrace_log] R: 0x8000235c (len=4) data=0x00e68023[0m
[1;34m[src/memory/paddr.c:97 mtrace_log] W: 0xa00003f8 (len=1) data=0x0000006f[0m
0x8000235c: 00 e6 80 23 sb	a4, 0(a3)
[1;34m[src/memory/paddr.c:97 mtrace_log] R: 0x80002360 (len=4) data=0x0007c703[0m
[1;34m[src/memory/paddr.c:97 mtrace_log] R: 0x80095529 (len=1) data=0x00000063[0m
0x80002360: 00 07 c7 03 lbu	a4, 0(a5)
[1;34m[src/memory/paddr.c:97 mtrace_log] R: 0x80002364 (len=4) data=0xfe071ae3[0m
0x80002364: fe 07 1a e3 bnez	a4, -0xc
[1;34m[src/memory/paddr.c:97 mtrace_log] R: 0x80002358 (len=4) data=0x00178793[0m
0x80002358: 00 17 87 93 addi	a5, a5, 1
[1;34m[src/memory/paddr.c:97 mtrace_log] R: 0x8000235c (len=4) data=0x00e68023[0m
[1;34m[src/memory/paddr.c:97 mtrace_log] W: 0xa00003f8 (len=1) data=0x00000063[0m
0x8000235c: 00 e6 80 23 sb	a4, 0(a3)
[1;34m[src/memory/paddr.c:97 mtrace_log] R: 0x80002360 (len=4) data=0x0007c703[0m
[1;34m[src/memory/paddr.c:97 mtrace_log] R: 0x8009552a (len=1) data=0x00000065[0m
0x80002360: 00 07 c7 03 lbu	a4, 0(a5)
[1;34m[src/memory/paddr.c:97 mtrace_log] R: 0x80002364 (len=4) data=0xfe071ae3[0m
0x80002364: fe 07 1a e3 bnez	a4, -0xc
[1;34m[src/memory/paddr.c:97 mtrace_log] R: 0x80002358 (len=4) data=0x00178793[0m
0x80002358: 00 17 87 93 addi	a5, a5, 1
[1;34m[src/memory/paddr.c:97 mtrace_log] R: 0x8000235c (len=4) data=0x00e68023[0m
[1;34m[src/memory/paddr.c:97 mtrace_log] W: 0xa00003f8 (len=1) data=0x00000065[0m
0x8000235c: 00 e6 80 23 sb	a4, 0(a3)
[1;34m[src/memory/paddr.c:97 mtrace_log] R: 0x80002360 (len=4) data=0x0007c703[0m
[1;34m[src/memory/paddr.c:97 mtrace_log] R: 0x8009552b (len=1) data=0x00000073[0m
0x80002360: 00 07 c7 03 lbu	a4, 0(a5)
[1;34m[src/memory/paddr.c:97 mtrace_log] R: 0x80002364 (len=4) data=0xfe071ae3[0m
0x80002364: fe 07 1a e3 bnez	a4, -0xc
[1;34m[src/memory/paddr.c:97 mtrace_log] R: 0x80002358 (len=4) data=0x00178793[0m
0x80002358: 00 17 87 93 addi	a5, a5, 1
[1;34m[src/memory/paddr.c:97 mtrace_log] R: 0x8000235c (len=4) data=0x00e68023[0m
[1;34m[src/memory/paddr.c:97 mtrace_log] W: 0xa00003f8 (len=1) data=0x00000073[0m
0x8000235c: 00 e6 80 23 sb	a4, 0(a3)
[1;34m[src/memory/paddr.c:97 mtrace_log] R: 0x80002360 (len=4) data=0x0007c703[0m
[1;34m[src/memory/paddr.c:97 mtrace_log] R: 0x8009552c (len=1) data=0x00000073[0m
0x80002360: 00 07 c7 03 lbu	a4, 0(a5)
[1;34m[src/memory/paddr.c:97 mtrace_log] R: 0x80002364 (len=4) data=0xfe071ae3[0m
0x80002364: fe 07 1a e3 bnez	a4, -0xc
[1;34m[src/memory/paddr.c:97 mtrace_log] R: 0x80002358 (len=4) data=0x00178793[0m
0x80002358: 00 17 87 93 addi	a5, a5, 1
[1;34m[src/memory/paddr.c:97 mtrace_log] R: 0x8000235c (len=4) data=0x00e68023[0m
[1;34m[src/memory/paddr.c:97 mtrace_log] W: 0xa00003f8 (len=1) data=0x00000073[0m
0x8000235c: 00 e6 80 23 sb	a4, 0(a3)
[1;34m[src/memory/paddr.c:97 mtrace_log] R: 0x80002360 (len=4) data=0x0007c703[0m
[1;34m[src/memory/paddr.c:97 mtrace_log] R: 0x8009552d (len=1) data=0x0000006f[0m
0x80002360: 00 07 c7 03 lbu	a4, 0(a5)
[1;34m[src/memory/paddr.c:97 mtrace_log] R: 0x80002364 (len=4) data=0xfe071ae3[0m
0x80002364: fe 07 1a e3 bnez	a4, -0xc
[1;34m[src/memory/paddr.c:97 mtrace_log] R: 0x80002358 (len=4) data=0x00178793[0m
0x80002358: 00 17 87 93 addi	a5, a5, 1
[1;34m[src/memory/paddr.c:97 mtrace_log] R: 0x8000235c (len=4) data=0x00e68023[0m
[1;34m[src/memory/paddr.c:97 mtrace_log] W: 0xa00003f8 (len=1) data=0x0000006f[0m
0x8000235c: 00 e6 80 23 sb	a4, 0(a3)
[1;34m[src/memory/paddr.c:97 mtrace_log] R: 0x80002360 (len=4) data=0x0007c703[0m
[1;34m[src/memory/paddr.c:97 mtrace_log] R: 0x8009552e (len=1) data=0x00000072[0m
0x80002360: 00 07 c7 03 lbu	a4, 0(a5)
[1;34m[src/memory/paddr.c:97 mtrace_log] R: 0x80002364 (len=4) data=0xfe071ae3[0m
0x80002364: fe 07 1a e3 bnez	a4, -0xc
[1;34m[src/memory/paddr.c:97 mtrace_log] R: 0x80002358 (len=4) data=0x00178793[0m
0x80002358: 00 17 87 93 addi	a5, a5, 1
[1;34m[src/memory/paddr.c:97 mtrace_log] R: 0x8000235c (len=4) data=0x00e68023[0m
[1;34m[src/memory/paddr.c:97 mtrace_log] W: 0xa00003f8 (len=1) data=0x00000072[0m
0x8000235c: 00 e6 80 23 sb	a4, 0(a3)
[1;34m[src/memory/paddr.c:97 mtrace_log] R: 0x80002360 (len=4) data=0x0007c703[0m
[1;34m[src/memory/paddr.c:97 mtrace_log] R: 0x8009552f (len=1) data=0x00000020[0m
0x80002360: 00 07 c7 03 lbu	a4, 0(a5)
[1;34m[src/memory/paddr.c:97 mtrace_log] R: 0x80002364 (len=4) data=0xfe071ae3[0m
0x80002364: fe 07 1a e3 bnez	a4, -0xc
[1;34m[src/memory/paddr.c:97 mtrace_log] R: 0x80002358 (len=4) data=0x00178793[0m
0x80002358: 00 17 87 93 addi	a5, a5, 1
[1;34m[src/memory/paddr.c:97 mtrace_log] R: 0x8000235c (len=4) data=0x00e68023[0m
[1;34m[src/memory/paddr.c:97 mtrace_log] W: 0xa00003f8 (len=1) data=0x00000020[0m
0x8000235c: 00 e6 80 23 sb	a4, 0(a3)
[1;34m[src/memory/paddr.c:97 mtrace_log] R: 0x80002360 (len=4) data=0x0007c703[0m
[1;34m[src/memory/paddr.c:97 mtrace_log] R: 0x80095530 (len=1) data=0x00000074[0m
0x80002360: 00 07 c7 03 lbu	a4, 0(a5)
[1;34m[src/memory/paddr.c:97 mtrace_log] R: 0x80002364 (len=4) data=0xfe071ae3[0m
0x80002364: fe 07 1a e3 bnez	a4, -0xc
[1;34m[src/memory/paddr.c:97 mtrace_log] R: 0x80002358 (len=4) data=0x00178793[0m
0x80002358: 00 17 87 93 addi	a5, a5, 1
[1;34m[src/memory/paddr.c:97 mtrace_log] R: 0x8000235c (len=4) data=0x00e68023[0m
[1;34m[src/memory/paddr.c:97 mtrace_log] W: 0xa00003f8 (len=1) data=0x00000074[0m
0x8000235c: 00 e6 80 23 sb	a4, 0(a3)
[1;34m[src/memory/paddr.c:97 mtrace_log] R: 0x80002360 (len=4) data=0x0007c703[0m
[1;34m[src/memory/paddr.c:97 mtrace_log] R: 0x80095531 (len=1) data=0x00000065[0m
0x80002360: 00 07 c7 03 lbu	a4, 0(a5)
[1;34m[src/memory/paddr.c:97 mtrace_log] R: 0x80002364 (len=4) data=0xfe071ae3[0m
0x80002364: fe 07 1a e3 bnez	a4, -0xc
[1;34m[src/memory/paddr.c:97 mtrace_log] R: 0x80002358 (len=4) data=0x00178793[0m
0x80002358: 00 17 87 93 addi	a5, a5, 1
[1;34m[src/memory/paddr.c:97 mtrace_log] R: 0x8000235c (len=4) data=0x00e68023[0m
[1;34m[src/memory/paddr.c:97 mtrace_log] W: 0xa00003f8 (len=1) data=0x00000065[0m
0x8000235c: 00 e6 80 23 sb	a4, 0(a3)
[1;34m[src/memory/paddr.c:97 mtrace_log] R: 0x80002360 (len=4) data=0x0007c703[0m
[1;34m[src/memory/paddr.c:97 mtrace_log] R: 0x80095532 (len=1) data=0x00000073[0m
0x80002360: 00 07 c7 03 lbu	a4, 0(a5)
[1;34m[src/memory/paddr.c:97 mtrace_log] R: 0x80002364 (len=4) data=0xfe071ae3[0m
0x80002364: fe 07 1a e3 bnez	a4, -0xc
[1;34m[src/memory/paddr.c:97 mtrace_log] R: 0x80002358 (len=4) data=0x00178793[0m
0x80002358: 00 17 87 93 addi	a5, a5, 1
[1;34m[src/memory/paddr.c:97 mtrace_log] R: 0x8000235c (len=4) data=0x00e68023[0m
[1;34m[src/memory/paddr.c:97 mtrace_log] W: 0xa00003f8 (len=1) data=0x00000073[0m
0x8000235c: 00 e6 80 23 sb	a4, 0(a3)
[1;34m[src/memory/paddr.c:97 mtrace_log] R: 0x80002360 (len=4) data=0x0007c703[0m
[1;34m[src/memory/paddr.c:97 mtrace_log] R: 0x80095533 (len=1) data=0x00000074[0m
0x80002360: 00 07 c7 03 lbu	a4, 0(a5)
[1;34m[src/memory/paddr.c:97 mtrace_log] R: 0x80002364 (len=4) data=0xfe071ae3[0m
0x80002364: fe 07 1a e3 bnez	a4, -0xc
[1;34m[src/memory/paddr.c:97 mtrace_log] R: 0x80002358 (len=4) data=0x00178793[0m
0x80002358: 00 17 87 93 addi	a5, a5, 1
[1;34m[src/memory/paddr.c:97 mtrace_log] R: 0x8000235c (len=4) data=0x00e68023[0m
[1;34m[src/memory/paddr.c:97 mtrace_log] W: 0xa00003f8 (len=1) data=0x00000074[0m
0x8000235c: 00 e6 80 23 sb	a4, 0(a3)
[1;34m[src/memory/paddr.c:97 mtrace_log] R: 0x80002360 (len=4) data=0x0007c703[0m
[1;34m[src/memory/paddr.c:97 mtrace_log] R: 0x80095534 (len=1) data=0x0000000a[0m
0x80002360: 00 07 c7 03 lbu	a4, 0(a5)
[1;34m[src/memory/paddr.c:97 mtrace_log] R: 0x80002364 (len=4) data=0xfe071ae3[0m
0x80002364: fe 07 1a e3 bnez	a4, -0xc
[1;34m[src/memory/paddr.c:97 mtrace_log] R: 0x80002358 (len=4) data=0x00178793[0m
0x80002358: 00 17 87 93 addi	a5, a5, 1
[1;34m[src/memory/paddr.c:97 mtrace_log] R: 0x8000235c (len=4) data=0x00e68023[0m
[1;34m[src/memory/paddr.c:97 mtrace_log] W: 0xa00003f8 (len=1) data=0x0000000a[0m
0x8000235c: 00 e6 80 23 sb	a4, 0(a3)
[1;34m[src/memory/paddr.c:97 mtrace_log] R: 0x80002360 (len=4) data=0x0007c703[0m
[1;34m[src/memory/paddr.c:97 mtrace_log] R: 0x80095535 (len=1) data=0x00000000[0m
0x80002360: 00 07 c7 03 lbu	a4, 0(a5)
[1;34m[src/memory/paddr.c:97 mtrace_log] R: 0x80002364 (len=4) data=0xfe071ae3[0m
0x80002364: fe 07 1a e3 bnez	a4, -0xc
[1;34m[src/memory/paddr.c:97 mtrace_log] R: 0x80002368 (len=4) data=0x01c12083[0m
[1;34m[src/memory/paddr.c:97 mtrace_log] R: 0x8009dfac (len=4) data=0x80000e90[0m
0x80002368: 01 c1 20 83 lw	ra, 0x1c(sp)
[1;34m[src/memory/paddr.c:97 mtrace_log] R: 0x8000236c (len=4) data=0x04010113[0m
0x8000236c: 04 01 01 13 addi	sp, sp, 0x40
[1;34m[src/memory/paddr.c:97 mtrace_log] R: 0x80002370 (len=4) data=0x00008067[0m
0x80002370: 00 00 80 67 ret
[1;34m[src/memory/paddr.c:97 mtrace_log] R: 0x80000e90 (len=4) data=0x00140413[0m
0x80000e90: 00 14 04 13 addi	s0, s0, 1
[1;34m[src/memory/paddr.c:97 mtrace_log] R: 0x80000e94 (len=4) data=0x00448493[0m
0x80000e94: 00 44 84 93 addi	s1, s1, 4
[1;34m[src/memory/paddr.c:97 mtrace_log] R: 0x80000e98 (len=4) data=0xff2412e3[0m
0x80000e98: ff 24 12 e3 bne	s0, s2, -0x1c
[1;34m[src/memory/paddr.c:97 mtrace_log] R: 0x80000e7c (len=4) data=0x0004a603[0m
[1;34m[src/memory/paddr.c:97 mtrace_log] R: 0x80002eb0 (len=4) data=0x00000000[0m
0x80000e7c: 00 04 a6 03 lw	a2, 0(s1)
[1;34m[src/memory/paddr.c:97 mtrace_log] R: 0x80000e80 (len=4) data=0x00060863[0m
0x80000e80: 00 06 08 63 beqz	a2, 0x10
[1;34m[src/memory/paddr.c:97 mtrace_log] R: 0x80000e90 (len=4) data=0x00140413[0m
0x80000e90: 00 14 04 13 addi	s0, s0, 1
[1;34m[src/memory/paddr.c:97 mtrace_log] R: 0x80000e94 (len=4) data=0x00448493[0m
0x80000e94: 00 44 84 93 addi	s1, s1, 4
[1;34m[src/memory/paddr.c:97 mtrace_log] R: 0x80000e98 (len=4) data=0xff2412e3[0m
0x80000e98: ff 24 12 e3 bne	s0, s2, -0x1c
[1;34m[src/memory/paddr.c:97 mtrace_log] R: 0x80000e7c (len=4) data=0x0004a603[0m
[1;34m[src/memory/paddr.c:97 mtrace_log] R: 0x80002eb4 (len=4) data=0x00000000[0m
0x80000e7c: 00 04 a6 03 lw	a2, 0(s1)
[1;34m[src/memory/paddr.c:97 mtrace_log] R: 0x80000e80 (len=4) data=0x00060863[0m
0x80000e80: 00 06 08 63 beqz	a2, 0x10
[1;34m[src/memory/paddr.c:97 mtrace_log] R: 0x80000e90 (len=4) data=0x00140413[0m
0x80000e90: 00 14 04 13 addi	s0, s0, 1
[1;34m[src/memory/paddr.c:97 mtrace_log] R: 0x80000e94 (len=4) data=0x00448493[0m
0x80000e94: 00 44 84 93 addi	s1, s1, 4
[1;34m[src/memory/paddr.c:97 mtrace_log] R: 0x80000e98 (len=4) data=0xff2412e3[0m
0x80000e98: ff 24 12 e3 bne	s0, s2, -0x1c
[1;34m[src/memory/paddr.c:97 mtrace_log] R: 0x80000e7c (len=4) data=0x0004a603[0m
[1;34m[src/memory/paddr.c:97 mtrace_log] R: 0x80002eb8 (len=4) data=0x8000299c[0m
0x80000e7c: 00 04 a6 03 lw	a2, 0(s1)
[1;34m[src/memory/paddr.c:97 mtrace_log] R: 0x80000e80 (len=4) data=0x00060863[0m
0x80000e80: 00 06 08 63 beqz	a2, 0x10
[1;34m[src/memory/paddr.c:97 mtrace_log] R: 0x80000e84 (len=4) data=0x00040593[0m
0x80000e84: 00 04 05 93 mv	a1, s0
[1;34m[src/memory/paddr.c:97 mtrace_log] R: 0x80000e88 (len=4) data=0x00098513[0m
0x80000e88: 00 09 85 13 mv	a0, s3
[1;34m[src/memory/paddr.c:97 mtrace_log] R: 0x80000e8c (len=4) data=0x474010ef[0m
0x80000e8c: 47 40 10 ef jal	0x1474
[1;34m[src/memory/paddr.c:97 mtrace_log] R: 0x80002300 (len=4) data=0xfc010113[0m
0x80002300: fc 01 01 13 addi	sp, sp, -0x40
[1;34m[src/memory/paddr.c:97 mtrace_log] R: 0x80002304 (len=4) data=0x02410313[0m
0x80002304: 02 41 03 13 addi	t1, sp, 0x24
[1;34m[src/memory/paddr.c:97 mtrace_log] R: 0x80002308 (len=4) data=0x02b12223[0m
[1;34m[src/memory/paddr.c:97 mtrace_log] W: 0x8009dfb4 (len=4) data=0x00000070[0m
0x80002308: 02 b1 22 23 sw	a1, 0x24(sp)
[1;34m[src/memory/paddr.c:97 mtrace_log] R: 0x8000230c (len=4) data=0x02c12423[0m
[1;34m[src/memory/paddr.c:97 mtrace_log] W: 0x8009dfb8 (len=4) data=0x8000299c[0m
0x8000230c: 02 c1 24 23 sw	a2, 0x28(sp)
[1;34m[src/memory/paddr.c:97 mtrace_log] R: 0x80002310 (len=4) data=0x00050593[0m
0x80002310: 00 05 05 93 mv	a1, a0
[1;34m[src/memory/paddr.c:97 mtrace_log] R: 0x80002314 (len=4) data=0x00030613[0m
0x80002314: 00 03 06 13 mv	a2, t1
[1;34m[src/memory/paddr.c:97 mtrace_log] R: 0x80002318 (len=4) data=0x00093517[0m
0x80002318: 00 09 35 17 auipc	a0, 0x93
[1;34m[src/memory/paddr.c:97 mtrace_log] R: 0x8000231c (len=4) data=0x20450513[0m
0x8000231c: 20 45 05 13 addi	a0, a0, 0x204
[1;34m[src/memory/paddr.c:97 mtrace_log] R: 0x80002320 (len=4) data=0x02e12823[0m
[1;34m[src/memory/paddr.c:97 mtrace_log] W: 0x8009dfc0 (len=4) data=0x00000000[0m
0x80002320: 02 e1 28 23 sw	a4, 0x30(sp)
[1;34m[src/memory/paddr.c:97 mtrace_log] R: 0x80002324 (len=4) data=0x02f12a23[0m
[1;34m[src/memory/paddr.c:97 mtrace_log] W: 0x8009dfc4 (len=4) data=0x80095535[0m
0x80002324: 02 f1 2a 23 sw	a5, 0x34(sp)
[1;34m[src/memory/paddr.c:97 mtrace_log] R: 0x80002328 (len=4) data=0x00112e23[0m
[1;34m[src/memory/paddr.c:97 mtrace_log] W: 0x8009dfac (len=4) data=0x80000e90[0m
0x80002328: 00 11 2e 23 sw	ra, 0x1c(sp)
[1;34m[src/memory/paddr.c:97 mtrace_log] R: 0x8000232c (len=4) data=0x02d12623[0m
[1;34m[src/memory/paddr.c:97 mtrace_log] W: 0x8009dfbc (len=4) data=0xa00003f8[0m
0x8000232c: 02 d1 26 23 sw	a3, 0x2c(sp)
[1;34m[src/memory/paddr.c:97 mtrace_log] R: 0x80002330 (len=4) data=0x03012c23[0m
[1;34m[src/memory/paddr.c:97 mtrace_log] W: 0x8009dfc8 (len=4) data=0x800032b4[0m
0x80002330: 03 01 2c 23 sw	a6, 0x38(sp)
[1;34m[src/memory/paddr.c:97 mtrace_log] R: 0x80002334 (len=4) data=0x03112e23[0m
[1;34m[src/memory/paddr.c:97 mtrace_log] W: 0x8009dfcc (len=4) data=0x00000000[0m
0x80002334: 03 11 2e 23 sw	a7, 0x3c(sp)
[1;34m[src/memory/paddr.c:97 mtrace_log] R: 0x80002338 (len=4) data=0x00612623[0m
[1;34m[src/memory/paddr.c:97 mtrace_log] W: 0x8009df9c (len=4) data=0x8009dfb4[0m
0x80002338: 00 61 26 23 sw	t1, 0xc(sp)
[1;34m[src/memory/paddr.c:97 mtrace_log] R: 0x8000233c (len=4) data=0xad5ff0ef[0m
0x8000233c: ad 5f f0 ef jal	-0x52c
[1;34m[src/memory/paddr.c:97 mtrace_log] R: 0x80001e10 (len=4) data=0xfb010113[0m
0x80001e10: fb 01 01 13 addi	sp, sp, -0x50
[1;34m[src/memory/paddr.c:97 mtrace_log] R: 0x80001e14 (len=4) data=0x03612823[0m
[1;34m[src/memory/paddr.c:97 mtrace_log] W: 0x8009df70 (len=4) data=0x00000000[0m
0x80001e14: 03 61 28 23 sw	s6, 0x30(sp)
[1;34m[src/memory/paddr.c:97 mtrace_log] R: 0x80001e18 (len=4) data=0x04112623[0m
[1;34m[src/memory/paddr.c:97 mtrace_log] W: 0x8009df8c (len=4) data=0x80002340[0m
0x80001e18: 04 11 26 23 sw	ra, 0x4c(sp)
[1;34m[src/memory/paddr.c:97 mtrace_log] R: 0x80001e1c (len=4) data=0x04912223[0m
[1;34m[src/memory/paddr.c:97 mtrace_log] W: 0x8009df84 (len=4) data=0x80002eb8[0m
0x80001e1c: 04 91 22 23 sw	s1, 0x44(sp)
[1;34m[src/memory/paddr.c:97 mtrace_log] R: 0x80001e20 (len=4) data=0x0005c783[0m
[1;34m[src/memory/paddr.c:97 mtrace_log] R: 0x80002914 (len=1) data=0x00000020[0m
0x80001e20: 00 05 c7 83 lbu	a5, 0(a1)
[1;34m[src/memory/paddr.c:97 mtrace_log] R: 0x80001e24 (len=4) data=0x00050b13[0m
0x80001e24: 00 05 0b 13 mv	s6, a0
[1;34m[src/memory/paddr.c:97 mtrace_log] R: 0x80001e28 (len=4) data=0x44078a63[0m
0x80001e28: 44 07 8a 63 beqz	a5, 0x454
[1;34m[src/memory/paddr.c:97 mtrace_log] R: 0x80001e2c (len=4) data=0x05212023[0m
[1;34m[src/memory/paddr.c:97 mtrace_log] W: 0x8009df80 (len=4) data=0x00000100[0m
0x80001e2c: 05 21 20 23 sw	s2, 0x40(sp)
[1;34m[src/memory/paddr.c:97 mtrace_log] R: 0x80001e30 (len=4) data=0x03312e23[0m
[1;34m[src/memory/paddr.c:97 mtrace_log] W: 0x8009df7c (len=4) data=0x80002914[0m
0x80001e30: 03 31 2e 23 sw	s3, 0x3c(sp)
[1;34m[src/memory/paddr.c:97 mtrace_log] R: 0x80001e34 (len=4) data=0x03412c23[0m
[1;34m[src/memory/paddr.c:97 mtrace_log] W: 0x8009df78 (len=4) data=0x00000000[0m
0x80001e34: 03 41 2c 23 sw	s4, 0x38(sp)
[1;34m[src/memory/paddr.c:97 mtrace_log] R: 0x80001e38 (len=4) data=0x03512a23[0m
[1;34m[src/memory/paddr.c:97 mtrace_log] W: 0x8009df74 (len=4) data=0x00000000[0m
0x80001e38: 03 51 2a 23 sw	s5, 0x34(sp)
[1;34m[src/memory/paddr.c:97 mtrace_log] R: 0x80001e3c (len=4) data=0x03712623[0m
[1;34m[src/memory/paddr.c:97 mtrace_log] W: 0x8009df6c (len=4) data=0x00000000[0m
0x80001e3c: 03 71 26 23 sw	s7, 0x2c(sp)
[1;34m[src/memory/paddr.c:97 mtrace_log] R: 0x80001e40 (len=4) data=0x03812423[0m
[1;34m[src/memory/paddr.c:97 mtrace_log] W: 0x8009df68 (len=4) data=0x00000000[0m
0x80001e40: 03 81 24 23 sw	s8, 0x28(sp)
[1;34m[src/memory/paddr.c:97 mtrace_log] R: 0x80001e44 (len=4) data=0x03912223[0m
[1;34m[src/memory/paddr.c:97 mtrace_log] W: 0x8009df64 (len=4) data=0x00000000[0m
0x80001e44: 03 91 22 23 sw	s9, 0x24(sp)
[1;34m[src/memory/paddr.c:97 mtrace_log] R: 0x80001e48 (len=4) data=0x03a12023[0m
[1;34m[src/memory/paddr.c:97 mtrace_log] W: 0x8009df60 (len=4) data=0x00000000[0m
0x80001e48: 03 a1 20 23 sw	s10, 0x20(sp)
[1;34m[src/memory/paddr.c:97 mtrace_log] R: 0x80001e4c (len=4) data=0x04812423[0m
[1;34m[src/memory/paddr.c:97 mtrace_log] W: 0x8009df88 (len=4) data=0x00000070[0m
0x80001e4c: 04 81 24 23 sw	s0, 0x48(sp)
[1;34m[src/memory/paddr.c:97 mtrace_log] R: 0x80001e50 (len=4) data=0x00060a13[0m
0x80001e50: 00 06 0a 13 mv	s4, a2
[1;34m[src/memory/paddr.c:97 mtrace_log] R: 0x80001e54 (len=4) data=0x00050493[0m
0x80001e54: 00 05 04 93 mv	s1, a0
[1;34m[src/memory/paddr.c:97 mtrace_log] R: 0x80001e58 (len=4) data=0x02500a93[0m
0x80001e58: 02 50 0a 93 addi	s5, zero, 0x25
[1;34m[src/memory/paddr.c:97 mtrace_log] R: 0x80001e5c (len=4) data=0x01000993[0m
0x80001e5c: 01 00 09 93 addi	s3, zero, 0x10
[1;34m[src/memory/paddr.c:97 mtrace_log] R: 0x80001e60 (len=4) data=0x00001917[0m
0x80001e60: 00 00 19 17 auipc	s2, 1
[1;34m[src/memory/paddr.c:97 mtrace_log] R: 0x80001e64 (len=4) data=0x2d890913[0m
0x80001e64: 2d 89 09 13 addi	s2, s2, 0x2d8
[1;34m[src/memory/paddr.c:97 mtrace_log] R: 0x80001e68 (len=4) data=0x00900d13[0m
0x80001e68: 00 90 0d 13 addi	s10, zero, 9
[1;34m[src/memory/paddr.c:97 mtrace_log] R: 0x80001e6c (len=4) data=0x02e00c93[0m
0x80001e6c: 02 e0 0c 93 addi	s9, zero, 0x2e
[1;34m[src/memory/paddr.c:97 mtrace_log] R: 0x80001e70 (len=4) data=0x06800c13[0m
0x80001e70: 06 80 0c 13 addi	s8, zero, 0x68
[1;34m[src/memory/paddr.c:97 mtrace_log] R: 0x80001e74 (len=4) data=0x00001b97[0m
0x80001e74: 00 00 1b 97 auipc	s7, 1
[1;34m[src/memory/paddr.c:97 mtrace_log] R: 0x80001e78 (len=4) data=0x308b8b93[0m
0x80001e78: 30 8b 8b 93 addi	s7, s7, 0x308
[1;34m[src/memory/paddr.c:97 mtrace_log] R: 0x80001e7c (len=4) data=0x05578c63[0m
0x80001e7c: 05 57 8c 63 beq	a5, s5, 0x58
[1;34m[src/memory/paddr.c:97 mtrace_log] R: 0x80001e80 (len=4) data=0x00f48023[0m
[1;34m[src/memory/paddr.c:97 mtrace_log] W: 0x8009551c (len=1) data=0x00000020[0m
0x80001e80: 00 f4 80 23 sb	a5, 0(s1)
[1;34m[src/memory/paddr.c:97 mtrace_log] R: 0x80001e84 (len=4) data=0x0015c783[0m
[1;34m[src/memory/paddr.c:97 mtrace_log] R: 0x80002915 (len=1) data=0x00000020[0m
0x80001e84: 00 15 c7 83 lbu	a5, 1(a1)
[1;34m[src/memory/paddr.c:97 mtrace_log] R: 0x80001e88 (len=4) data=0x00148493[0m
0x80001e88: 00 14 84 93 addi	s1, s1, 1
[1;34m[src/memory/paddr.c:97 mtrace_log] R: 0x80001e8c (len=4) data=0x00158593[0m
0x80001e8c: 00 15 85 93 addi	a1, a1, 1
[1;34m[src/memory/paddr.c:97 mtrace_log] R: 0x80001e90 (len=4) data=0xfe0796e3[0m
0x80001e90: fe 07 96 e3 bnez	a5, -0x14
[1;34m[src/memory/paddr.c:97 mtrace_log] R: 0x80001e7c (len=4) data=0x05578c63[0m
0x80001e7c: 05 57 8c 63 beq	a5, s5, 0x58
[1;34m[src/memory/paddr.c:97 mtrace_log] R: 0x80001e80 (len=4) data=0x00f48023[0m
[1;34m[src/memory/paddr.c:97 mtrace_log] W: 0x8009551d (len=1) data=0x00000020[0m
0x80001e80: 00 f4 80 23 sb	a5, 0(s1)
[1;34m[src/memory/paddr.c:97 mtrace_log] R: 0x80001e84 (len=4) data=0x0015c783[0m
[1;34m[src/memory/paddr.c:97 mtrace_log] R: 0x80002916 (len=1) data=0x00000025[0m
0x80001e84: 00 15 c7 83 lbu	a5, 1(a1)
[1;34m[src/memory/paddr.c:97 mtrace_log] R: 0x80001e88 (len=4) data=0x00148493[0m
0x80001e88: 00 14 84 93 addi	s1, s1, 1
[1;34m[src/memory/paddr.c:97 mtrace_log] R: 0x80001e8c (len=4) data=0x00158593[0m
0x80001e8c: 00 15 85 93 addi	a1, a1, 1
[1;34m[src/memory/paddr.c:97 mtrace_log] R: 0x80001e90 (len=4) data=0xfe0796e3[0m
0x80001e90: fe 07 96 e3 bnez	a5, -0x14
[1;34m[src/memory/paddr.c:97 mtrace_log] R: 0x80001e7c (len=4) data=0x05578c63[0m
0x80001e7c: 05 57 8c 63 beq	a5, s5, 0x58
[1;34m[src/memory/paddr.c:97 mtrace_log] R: 0x80001ed4 (len=4) data=0x00000793[0m
0x80001ed4: 00 00 07 93 mv	a5, zero
[1;34m[src/memory/paddr.c:97 mtrace_log] R: 0x80001ed8 (len=4) data=0x0015c803[0m
[1;34m[src/memory/paddr.c:97 mtrace_log] R: 0x80002917 (len=1) data=0x00000063[0m
0x80001ed8: 00 15 c8 03 lbu	a6, 1(a1)
[1;34m[src/memory/paddr.c:97 mtrace_log] R: 0x80001edc (len=4) data=0x00158413[0m
0x80001edc: 00 15 84 13 addi	s0, a1, 1
[1;34m[src/memory/paddr.c:97 mtrace_log] R: 0x80001ee0 (len=4) data=0xfe080713[0m
0x80001ee0: fe 08 07 13 addi	a4, a6, -0x20
[1;34m[src/memory/paddr.c:97 mtrace_log] R: 0x80001ee4 (len=4) data=0x0ff77713[0m
0x80001ee4: 0f f7 77 13 andi	a4, a4, 0xff
[1;34m[src/memory/paddr.c:97 mtrace_log] R: 0x80001ee8 (len=4) data=0x00e9ec63[0m
0x80001ee8: 00 e9 ec 63 bltu	s3, a4, 0x18
[1;34m[src/memory/paddr.c:97 mtrace_log] R: 0x80001f00 (len=4) data=0xfd080713[0m
0x80001f00: fd 08 07 13 addi	a4, a6, -0x30
[1;34m[src/memory/paddr.c:97 mtrace_log] R: 0x80001f04 (len=4) data=0x0ff77713[0m
0x80001f04: 0f f7 77 13 andi	a4, a4, 0xff
[1;34m[src/memory/paddr.c:97 mtrace_log] R: 0x80001f08 (len=4) data=0x0ced7263[0m
0x80001f08: 0c ed 72 63 bgeu	s10, a4, 0xc4
[1;34m[src/memory/paddr.c:97 mtrace_log] R: 0x80001f0c (len=4) data=0x02a00713[0m
0x80001f0c: 02 a0 07 13 addi	a4, zero, 0x2a
[1;34m[src/memory/paddr.c:97 mtrace_log] R: 0x80001f10 (len=4) data=0xfff00693[0m
0x80001f10: ff f0 06 93 addi	a3, zero, -1
[1;34m[src/memory/paddr.c:97 mtrace_log] R: 0x80001f14 (len=4) data=0x00e81a63[0m
0x80001f14: 00 e8 1a 63 bne	a6, a4, 0x14
[1;34m[src/memory/paddr.c:97 mtrace_log] R: 0x80001f28 (len=4) data=0xfff00713[0m
0x80001f28: ff f0 07 13 addi	a4, zero, -1
[1;34m[src/memory/paddr.c:97 mtrace_log] R: 0x80001f2c (len=4) data=0x07980a63[0m
0x80001f2c: 07 98 0a 63 beq	a6, s9, 0x74
[1;34m[src/memory/paddr.c:97 mtrace_log] R: 0x80001f30 (len=4) data=0x0fb87613[0m
0x80001f30: 0f b8 76 13 andi	a2, a6, 0xfb
[1;34m[src/memory/paddr.c:97 mtrace_log] R: 0x80001f34 (len=4) data=0x01861663[0m
0x80001f34: 01 86 16 63 bne	a2, s8, 0xc
[1;34m[src/memory/paddr.c:97 mtrace_log] R: 0x80001f40 (len=4) data=0xfdb80813[0m
0x80001f40: fd b8 08 13 addi	a6, a6, -0x25
[1;34m[src/memory/paddr.c:97 mtrace_log] R: 0x80001f44 (len=4) data=0x0ff87813[0m
0x80001f44: 0f f8 78 13 andi	a6, a6, 0xff
[1;34m[src/memory/paddr.c:97 mtrace_log] R: 0x80001f48 (len=4) data=0x05300613[0m
0x80001f48: 05 30 06 13 addi	a2, zero, 0x53
[1;34m[src/memory/paddr.c:97 mtrace_log] R: 0x80001f4c (len=4) data=0x0b066c63[0m
0x80001f4c: 0b 06 6c 63 bltu	a2, a6, 0xb8
[1;34m[src/memory/paddr.c:97 mtrace_log] R: 0x80001f50 (len=4) data=0x00281813[0m
0x80001f50: 00 28 18 13 slli	a6, a6, 2
[1;34m[src/memory/paddr.c:97 mtrace_log] R: 0x80001f54 (len=4) data=0x01780833[0m
0x80001f54: 01 78 08 33 add	a6, a6, s7
[1;34m[src/memory/paddr.c:97 mtrace_log] R: 0x80001f58 (len=4) data=0x00082603[0m
[1;34m[src/memory/paddr.c:97 mtrace_log] R: 0x80003274 (len=4) data=0xffffef08[0m
0x80001f58: 00 08 26 03 lw	a2, 0(a6)
[1;34m[src/memory/paddr.c:97 mtrace_log] R: 0x80001f5c (len=4) data=0x01760633[0m
0x80001f5c: 01 76 06 33 add	a2, a2, s7
[1;34m[src/memory/paddr.c:97 mtrace_log] R: 0x80001f60 (len=4) data=0x00060067[0m
0x80001f60: 00 06 00 67 jr	a2
[1;34m[src/memory/paddr.c:97 mtrace_log] R: 0x80002084 (len=4) data=0x0017f793[0m
0x80002084: 00 17 f7 93 andi	a5, a5, 1
[1;34m[src/memory/paddr.c:97 mtrace_log] R: 0x80002088 (len=4) data=0x004a0613[0m
0x80002088: 00 4a 06 13 addi	a2, s4, 4
[1;34m[src/memory/paddr.c:97 mtrace_log] R: 0x8000208c (len=4) data=0x00140593[0m
0x8000208c: 00 14 05 93 addi	a1, s0, 1
[1;34m[src/memory/paddr.c:97 mtrace_log] R: 0x80002090 (len=4) data=0x18078c63[0m
0x80002090: 18 07 8c 63 beqz	a5, 0x198
[1;34m[src/memory/paddr.c:97 mtrace_log] R: 0x80002228 (len=4) data=0x00100793[0m
0x80002228: 00 10 07 93 addi	a5, zero, 1
[1;34m[src/memory/paddr.c:97 mtrace_log] R: 0x8000222c (len=4) data=0x0ad7dc63[0m
0x8000222c: 0a d7 dc 63 bge	a5, a3, 0xb8
[1;34m[src/memory/paddr.c:97 mtrace_log] R: 0x800022e4 (len=4) data=0x000a2783[0m
[1;34m[src/memory/paddr.c:97 mtrace_log] R: 0x8009dfb4 (len=4) data=0x00000070[0m
0x800022e4: 00 0a 27 83 lw	a5, 0(s4)
[1;34m[src/memory/paddr.c:97 mtrace_log] R: 0x800022e8 (len=4) data=0x00148493[0m
0x800022e8: 00 14 84 93 addi	s1, s1, 1
[1;34m[src/memory/paddr.c:97 mtrace_log] R: 0x800022ec (len=4) data=0x00060a13[0m
0x800022ec: 00 06 0a 13 mv	s4, a2
[1;34m[src/memory/paddr.c:97 mtrace_log] R: 0x800022f0 (len=4) data=0xfef48fa3[0m
[1;34m[src/memory/paddr.c:97 mtrace_log] W: 0x8009551e (len=1) data=0x00000070[0m
0x800022f0: fe f4 8f a3 sb	a5, -1(s1)
[1;34m[src/memory/paddr.c:97 mtrace_log] R: 0x800022f4 (len=4) data=0x00144783[0m
[1;34m[src/memory/paddr.c:97 mtrace_log] R: 0x80002918 (len=1) data=0x0000003a[0m
0x800022f4: 00 14 47 83 lbu	a5, 1(s0)
[1;34m[src/memory/paddr.c:97 mtrace_log] R: 0x800022f8 (len=4) data=0xb80792e3[0m
0x800022f8: b8 07 92 e3 bnez	a5, -0x47c
[1;34m[src/memory/paddr.c:97 mtrace_log] R: 0x80001e7c (len=4) data=0x05578c63[0m
0x80001e7c: 05 57 8c 63 beq	a5, s5, 0x58
[1;34m[src/memory/paddr.c:97 mtrace_log] R: 0x80001e80 (len=4) data=0x00f48023[0m
[1;34m[src/memory/paddr.c:97 mtrace_log] W: 0x8009551f (len=1) data=0x0000003a[0m
0x80001e80: 00 f4 80 23 sb	a5, 0(s1)
[1;34m[src/memory/paddr.c:97 mtrace_log] R: 0x80001e84 (len=4) data=0x0015c783[0m
[1;34m[src/memory/paddr.c:97 mtrace_log] R: 0x80002919 (len=1) data=0x00000020[0m
0x80001e84: 00 15 c7 83 lbu	a5, 1(a1)
[1;34m[src/memory/paddr.c:97 mtrace_log] R: 0x80001e88 (len=4) data=0x00148493[0m
0x80001e88: 00 14 84 93 addi	s1, s1, 1
[1;34m[src/memory/paddr.c:97 mtrace_log] R: 0x80001e8c (len=4) data=0x00158593[0m
0x80001e8c: 00 15 85 93 addi	a1, a1, 1
[1;34m[src/memory/paddr.c:97 mtrace_log] R: 0x80001e90 (len=4) data=0xfe0796e3[0m
0x80001e90: fe 07 96 e3 bnez	a5, -0x14
[1;34m[src/memory/paddr.c:97 mtrace_log] R: 0x80001e7c (len=4) data=0x05578c63[0m
0x80001e7c: 05 57 8c 63 beq	a5, s5, 0x58
[1;34m[src/memory/paddr.c:97 mtrace_log] R: 0x80001e80 (len=4) data=0x00f48023[0m
[1;34m[src/memory/paddr.c:97 mtrace_log] W: 0x80095520 (len=1) data=0x00000020[0m
0x80001e80: 00 f4 80 23 sb	a5, 0(s1)
[1;34m[src/memory/paddr.c:97 mtrace_log] R: 0x80001e84 (len=4) data=0x0015c783[0m
[1;34m[src/memory/paddr.c:97 mtrace_log] R: 0x8000291a (len=1) data=0x00000025[0m
0x80001e84: 00 15 c7 83 lbu	a5, 1(a1)
[1;34m[src/memory/paddr.c:97 mtrace_log] R: 0x80001e88 (len=4) data=0x00148493[0m
0x80001e88: 00 14 84 93 addi	s1, s1, 1
[1;34m[src/memory/paddr.c:97 mtrace_log] R: 0x80001e8c (len=4) data=0x00158593[0m
0x80001e8c: 00 15 85 93 addi	a1, a1, 1
[1;34m[src/memory/paddr.c:97 mtrace_log] R: 0x80001e90 (len=4) data=0xfe0796e3[0m
0x80001e90: fe 07 96 e3 bnez	a5, -0x14
[1;34m[src/memory/paddr.c:97 mtrace_log] R: 0x80001e7c (len=4) data=0x05578c63[0m
0x80001e7c: 05 57 8c 63 beq	a5, s5, 0x58
[1;34m[src/memory/paddr.c:97 mtrace_log] R: 0x80001ed4 (len=4) data=0x00000793[0m
0x80001ed4: 00 00 07 93 mv	a5, zero
[1;34m[src/memory/paddr.c:97 mtrace_log] R: 0x80001ed8 (len=4) data=0x0015c803[0m
[1;34m[src/memory/paddr.c:97 mtrace_log] R: 0x8000291b (len=1) data=0x00000073[0m
0x80001ed8: 00 15 c8 03 lbu	a6, 1(a1)
[1;34m[src/memory/paddr.c:97 mtrace_log] R: 0x80001edc (len=4) data=0x00158413[0m
0x80001edc: 00 15 84 13 addi	s0, a1, 1
[1;34m[src/memory/paddr.c:97 mtrace_log] R: 0x80001ee0 (len=4) data=0xfe080713[0m
0x80001ee0: fe 08 07 13 addi	a4, a6, -0x20
[1;34m[src/memory/paddr.c:97 mtrace_log] R: 0x80001ee4 (len=4) data=0x0ff77713[0m
0x80001ee4: 0f f7 77 13 andi	a4, a4, 0xff
[1;34m[src/memory/paddr.c:97 mtrace_log] R: 0x80001ee8 (len=4) data=0x00e9ec63[0m
0x80001ee8: 00 e9 ec 63 bltu	s3, a4, 0x18
[1;34m[src/memory/paddr.c:97 mtrace_log] R: 0x80001f00 (len=4) data=0xfd080713[0m
0x80001f00: fd 08 07 13 addi	a4, a6, -0x30
[1;34m[src/memory/paddr.c:97 mtrace_log] R: 0x80001f04 (len=4) data=0x0ff77713[0m
0x80001f04: 0f f7 77 13 andi	a4, a4, 0xff
[1;34m[src/memory/paddr.c:97 mtrace_log] R: 0x80001f08 (len=4) data=0x0ced7263[0m
0x80001f08: 0c ed 72 63 bgeu	s10, a4, 0xc4
[1;34m[src/memory/paddr.c:97 mtrace_log] R: 0x80001f0c (len=4) data=0x02a00713[0m
0x80001f0c: 02 a0 07 13 addi	a4, zero, 0x2a
[1;34m[src/memory/paddr.c:97 mtrace_log] R: 0x80001f10 (len=4) data=0xfff00693[0m
0x80001f10: ff f0 06 93 addi	a3, zero, -1
[1;34m[src/memory/paddr.c:97 mtrace_log] R: 0x80001f14 (len=4) data=0x00e81a63[0m
0x80001f14: 00 e8 1a 63 bne	a6, a4, 0x14
[1;34m[src/memory/paddr.c:97 mtrace_log] R: 0x80001f28 (len=4) data=0xfff00713[0m
0x80001f28: ff f0 07 13 addi	a4, zero, -1
[1;34m[src/memory/paddr.c:97 mtrace_log] R: 0x80001f2c (len=4) data=0x07980a63[0m
0x80001f2c: 07 98 0a 63 beq	a6, s9, 0x74
[1;34m[src/memory/paddr.c:97 mtrace_log] R: 0x80001f30 (len=4) data=0x0fb87613[0m
0x80001f30: 0f b8 76 13 andi	a2, a6, 0xfb
[1;34m[src/memory/paddr.c:97 mtrace_log] R: 0x80001f34 (len=4) data=0x01861663[0m
0x80001f34: 01 86 16 63 bne	a2, s8, 0xc
[1;34m[src/memory/paddr.c:97 mtrace_log] R: 0x80001f40 (len=4) data=0xfdb80813[0m
0x80001f40: fd b8 08 13 addi	a6, a6, -0x25
[1;34m[src/memory/paddr.c:97 mtrace_log] R: 0x80001f44 (len=4) data=0x0ff87813[0m
0x80001f44: 0f f8 78 13 andi	a6, a6, 0xff
[1;34m[src/memory/paddr.c:97 mtrace_log] R: 0x80001f48 (len=4) data=0x05300613[0m
0x80001f48: 05 30 06 13 addi	a2, zero, 0x53
[1;34m[src/memory/paddr.c:97 mtrace_log] R: 0x80001f4c (len=4) data=0x0b066c63[0m
0x80001f4c: 0b 06 6c 63 bltu	a2, a6, 0xb8
[1;34m[src/memory/paddr.c:97 mtrace_log] R: 0x80001f50 (len=4) data=0x00281813[0m
0x80001f50: 00 28 18 13 slli	a6, a6, 2
[1;34m[src/memory/paddr.c:97 mtrace_log] R: 0x80001f54 (len=4) data=0x01780833[0m
0x80001f54: 01 78 08 33 add	a6, a6, s7
[1;34m[src/memory/paddr.c:97 mtrace_log] R: 0x80001f58 (len=4) data=0x00082603[0m
[1;34m[src/memory/paddr.c:97 mtrace_log] R: 0x800032b4 (len=4) data=0xffffef50[0m
0x80001f58: 00 08 26 03 lw	a2, 0(a6)
[1;34m[src/memory/paddr.c:97 mtrace_log] R: 0x80001f5c (len=4) data=0x01760633[0m
0x80001f5c: 01 76 06 33 add	a2, a2, s7
[1;34m[src/memory/paddr.c:97 mtrace_log] R: 0x80001f60 (len=4) data=0x00060067[0m
0x80001f60: 00 06 00 67 jr	a2
[1;34m[src/memory/paddr.c:97 mtrace_log] R: 0x800020cc (len=4) data=0x01b12e23[0m
[1;34m[src/memory/paddr.c:97 mtrace_log] W: 0x8009df5c (len=4) data=0x00000000[0m
0x800020cc: 01 b1 2e 23 sw	s11, 0x1c(sp)
[1;34m[src/memory/paddr.c:97 mtrace_log] R: 0x800020d0 (len=4) data=0x000a2d83[0m
[1;34m[src/memory/paddr.c:97 mtrace_log] R: 0x8009dfb8 (len=4) data=0x8000299c[0m
0x800020d0: 00 0a 2d 83 lw	s11, 0(s4)
[1;34m[src/memory/paddr.c:97 mtrace_log] R: 0x800020d4 (len=4) data=0x004a0a13[0m
0x800020d4: 00 4a 0a 13 addi	s4, s4, 4
[1;34m[src/memory/paddr.c:97 mtrace_log] R: 0x800020d8 (len=4) data=0x140d8263[0m
0x800020d8: 14 0d 82 63 beqz	s11, 0x144
[1;34m[src/memory/paddr.c:97 mtrace_log] R: 0x800020dc (len=4) data=0x000d8513[0m
0x800020dc: 00 0d 85 13 mv	a0, s11
[1;34m[src/memory/paddr.c:97 mtrace_log] R: 0x800020e0 (len=4) data=0x00d12623[0m
[1;34m[src/memory/paddr.c:97 mtrace_log] W: 0x8009df4c (len=4) data=0xffffffff[0m
0x800020e0: 00 d1 26 23 sw	a3, 0xc(sp)
[1;34m[src/memory/paddr.c:97 mtrace_log] R: 0x800020e4 (len=4) data=0x00f12423[0m
[1;34m[src/memory/paddr.c:97 mtrace_log] W: 0x8009df48 (len=4) data=0x00000000[0m
0x800020e4: 00 f1 24 23 sw	a5, 8(sp)
[1;34m[src/memory/paddr.c:97 mtrace_log] R: 0x800020e8 (len=4) data=0x00e12223[0m
[1;34m[src/memory/paddr.c:97 mtrace_log] W: 0x8009df44 (len=4) data=0xffffffff[0m
0x800020e8: 00 e1 22 23 sw	a4, 4(sp)
[1;34m[src/memory/paddr.c:97 mtrace_log] R: 0x800020ec (len=4) data=0x9c9ff0ef[0m
0x800020ec: 9c 9f f0 ef jal	-0x638
[1;34m[src/memory/paddr.c:97 mtrace_log] R: 0x80001ab4 (len=4) data=0x00054783[0m
[1;34m[src/memory/paddr.c:97 mtrace_log] R: 0x8000299c (len=1) data=0x00000078[0m
0x80001ab4: 00 05 47 83 lbu	a5, 0(a0)
[1;34m[src/memory/paddr.c:97 mtrace_log] R: 0x80001ab8 (len=4) data=0x00050713[0m
0x80001ab8: 00 05 07 13 mv	a4, a0
[1;34m[src/memory/paddr.c:97 mtrace_log] R: 0x80001abc (len=4) data=0x00000513[0m
0x80001abc: 00 00 05 13 mv	a0, zero
[1;34m[src/memory/paddr.c:97 mtrace_log] R: 0x80001ac0 (len=4) data=0x00078c63[0m
0x80001ac0: 00 07 8c 63 beqz	a5, 0x18
[1;34m[src/memory/paddr.c:97 mtrace_log] R: 0x80001ac4 (len=4) data=0x00150513[0m
0x80001ac4: 00 15 05 13 addi	a0, a0, 1
[1;34m[src/memory/paddr.c:97 mtrace_log] R: 0x80001ac8 (len=4) data=0x00a707b3[0m
0x80001ac8: 00 a7 07 b3 add	a5, a4, a0
[1;34m[src/memory/paddr.c:97 mtrace_log] R: 0x80001acc (len=4) data=0x0007c783[0m
[1;34m[src/memory/paddr.c:97 mtrace_log] R: 0x8000299d (len=1) data=0x00000038[0m
0x80001acc: 00 07 c7 83 lbu	a5, 0(a5)
[1;34m[src/memory/paddr.c:97 mtrace_log] R: 0x80001ad0 (len=4) data=0xfe079ae3[0m
0x80001ad0: fe 07 9a e3 bnez	a5, -0xc
[1;34m[src/memory/paddr.c:97 mtrace_log] R: 0x80001ac4 (len=4) data=0x00150513[0m
0x80001ac4: 00 15 05 13 addi	a0, a0, 1
[1;34m[src/memory/paddr.c:97 mtrace_log] R: 0x80001ac8 (len=4) data=0x00a707b3[0m
0x80001ac8: 00 a7 07 b3 add	a5, a4, a0
[1;34m[src/memory/paddr.c:97 mtrace_log] R: 0x80001acc (len=4) data=0x0007c783[0m
[1;34m[src/memory/paddr.c:97 mtrace_log] R: 0x8000299e (len=1) data=0x00000036[0m
0x80001acc: 00 07 c7 83 lbu	a5, 0(a5)
[1;34m[src/memory/paddr.c:97 mtrace_log] R: 0x80001ad0 (len=4) data=0xfe079ae3[0m
0x80001ad0: fe 07 9a e3 bnez	a5, -0xc
[1;34m[src/memory/paddr.c:97 mtrace_log] R: 0x80001ac4 (len=4) data=0x00150513[0m
0x80001ac4: 00 15 05 13 addi	a0, a0, 1
[1;34m[src/memory/paddr.c:97 mtrace_log] R: 0x80001ac8 (len=4) data=0x00a707b3[0m
0x80001ac8: 00 a7 07 b3 add	a5, a4, a0
[1;34m[src/memory/paddr.c:97 mtrace_log] R: 0x80001acc (len=4) data=0x0007c783[0m
[1;34m[src/memory/paddr.c:97 mtrace_log] R: 0x8000299f (len=1) data=0x00000020[0m
0x80001acc: 00 07 c7 83 lbu	a5, 0(a5)
[1;34m[src/memory/paddr.c:97 mtrace_log] R: 0x80001ad0 (len=4) data=0xfe079ae3[0m
0x80001ad0: fe 07 9a e3 bnez	a5, -0xc
[1;34m[src/memory/paddr.c:97 mtrace_log] R: 0x80001ac4 (len=4) data=0x00150513[0m
0x80001ac4: 00 15 05 13 addi	a0, a0, 1
[1;34m[src/memory/paddr.c:97 mtrace_log] R: 0x80001ac8 (len=4) data=0x00a707b3[0m
0x80001ac8: 00 a7 07 b3 add	a5, a4, a0
[1;34m[src/memory/paddr.c:97 mtrace_log] R: 0x80001acc (len=4) data=0x0007c783[0m
[1;34m[src/memory/paddr.c:97 mtrace_log] R: 0x800029a0 (len=1) data=0x00000076[0m
0x80001acc: 00 07 c7 83 lbu	a5, 0(a5)
[1;34m[src/memory/paddr.c:97 mtrace_log] R: 0x80001ad0 (len=4) data=0xfe079ae3[0m
0x80001ad0: fe 07 9a e3 bnez	a5, -0xc
[1;34m[src/memory/paddr.c:97 mtrace_log] R: 0x80001ac4 (len=4) data=0x00150513[0m
0x80001ac4: 00 15 05 13 addi	a0, a0, 1
[1;34m[src/memory/paddr.c:97 mtrace_log] R: 0x80001ac8 (len=4) data=0x00a707b3[0m
0x80001ac8: 00 a7 07 b3 add	a5, a4, a0
[1;34m[src/memory/paddr.c:97 mtrace_log] R: 0x80001acc (len=4) data=0x0007c783[0m
[1;34m[src/memory/paddr.c:97 mtrace_log] R: 0x800029a1 (len=1) data=0x00000069[0m
0x80001acc: 00 07 c7 83 lbu	a5, 0(a5)
[1;34m[src/memory/paddr.c:97 mtrace_log] R: 0x80001ad0 (len=4) data=0xfe079ae3[0m
0x80001ad0: fe 07 9a e3 bnez	a5, -0xc
[1;34m[src/memory/paddr.c:97 mtrace_log] R: 0x80001ac4 (len=4) data=0x00150513[0m
0x80001ac4: 00 15 05 13 addi	a0, a0, 1
[1;34m[src/memory/paddr.c:97 mtrace_log] R: 0x80001ac8 (len=4) data=0x00a707b3[0m
0x80001ac8: 00 a7 07 b3 add	a5, a4, a0
[1;34m[src/memory/paddr.c:97 mtrace_log] R: 0x80001acc (len=4) data=0x0007c783[0m
[1;34m[src/memory/paddr.c:97 mtrace_log] R: 0x800029a2 (len=1) data=0x00000072[0m
0x80001acc: 00 07 c7 83 lbu	a5, 0(a5)
[1;34m[src/memory/paddr.c:97 mtrace_log] R: 0x80001ad0 (len=4) data=0xfe079ae3[0m
0x80001ad0: fe 07 9a e3 bnez	a5, -0xc
[1;34m[src/memory/paddr.c:97 mtrace_log] R: 0x80001ac4 (len=4) data=0x00150513[0m
0x80001ac4: 00 15 05 13 addi	a0, a0, 1
[1;34m[src/memory/paddr.c:97 mtrace_log] R: 0x80001ac8 (len=4) data=0x00a707b3[0m
0x80001ac8: 00 a7 07 b3 add	a5, a4, a0
[1;34m[src/memory/paddr.c:97 mtrace_log] R: 0x80001acc (len=4) data=0x0007c783[0m
[1;34m[src/memory/paddr.c:97 mtrace_log] R: 0x800029a3 (len=1) data=0x00000074[0m
0x80001acc: 00 07 c7 83 lbu	a5, 0(a5)
[1;34m[src/memory/paddr.c:97 mtrace_log] R: 0x80001ad0 (len=4) data=0xfe079ae3[0m
0x80001ad0: fe 07 9a e3 bnez	a5, -0xc
[1;34m[src/memory/paddr.c:97 mtrace_log] R: 0x80001ac4 (len=4) data=0x00150513[0m
0x80001ac4: 00 15 05 13 addi	a0, a0, 1
[1;34m[src/memory/paddr.c:97 mtrace_log] R: 0x80001ac8 (len=4) data=0x00a707b3[0m
0x80001ac8: 00 a7 07 b3 add	a5, a4, a0
[1;34m[src/memory/paddr.c:97 mtrace_log] R: 0x80001acc (len=4) data=0x0007c783[0m
[1;34m[src/memory/paddr.c:97 mtrace_log] R: 0x800029a4 (len=1) data=0x00000075[0m
0x80001acc: 00 07 c7 83 lbu	a5, 0(a5)
[1;34m[src/memory/paddr.c:97 mtrace_log] R: 0x80001ad0 (len=4) data=0xfe079ae3[0m
0x80001ad0: fe 07 9a e3 bnez	a5, -0xc
[1;34m[src/memory/paddr.c:97 mtrace_log] R: 0x80001ac4 (len=4) data=0x00150513[0m
0x80001ac4: 00 15 05 13 addi	a0, a0, 1
[1;34m[src/memory/paddr.c:97 mtrace_log] R: 0x80001ac8 (len=4) data=0x00a707b3[0m
0x80001ac8: 00 a7 07 b3 add	a5, a4, a0
[1;34m[src/memory/paddr.c:97 mtrace_log] R: 0x80001acc (len=4) data=0x0007c783[0m
[1;34m[src/memory/paddr.c:97 mtrace_log] R: 0x800029a5 (len=1) data=0x00000061[0m
0x80001acc: 00 07 c7 83 lbu	a5, 0(a5)
[1;34m[src/memory/paddr.c:97 mtrace_log] R: 0x80001ad0 (len=4) data=0xfe079ae3[0m
0x80001ad0: fe 07 9a e3 bnez	a5, -0xc
[1;34m[src/memory/paddr.c:97 mtrace_log] R: 0x80001ac4 (len=4) data=0x00150513[0m
0x80001ac4: 00 15 05 13 addi	a0, a0, 1
[1;34m[src/memory/paddr.c:97 mtrace_log] R: 0x80001ac8 (len=4) data=0x00a707b3[0m
0x80001ac8: 00 a7 07 b3 add	a5, a4, a0
[1;34m[src/memory/paddr.c:97 mtrace_log] R: 0x80001acc (len=4) data=0x0007c783[0m
[1;34m[src/memory/paddr.c:97 mtrace_log] R: 0x800029a6 (len=1) data=0x0000006c[0m
0x80001acc: 00 07 c7 83 lbu	a5, 0(a5)
[1;34m[src/memory/paddr.c:97 mtrace_log] R: 0x80001ad0 (len=4) data=0xfe079ae3[0m
0x80001ad0: fe 07 9a e3 bnez	a5, -0xc
[1;34m[src/memory/paddr.c:97 mtrace_log] R: 0x80001ac4 (len=4) data=0x00150513[0m
0x80001ac4: 00 15 05 13 addi	a0, a0, 1
[1;34m[src/memory/paddr.c:97 mtrace_log] R: 0x80001ac8 (len=4) data=0x00a707b3[0m
0x80001ac8: 00 a7 07 b3 add	a5, a4, a0
[1;34m[src/memory/paddr.c:97 mtrace_log] R: 0x80001acc (len=4) data=0x0007c783[0m
[1;34m[src/memory/paddr.c:97 mtrace_log] R: 0x800029a7 (len=1) data=0x00000020[0m
0x80001acc: 00 07 c7 83 lbu	a5, 0(a5)
[1;34m[src/memory/paddr.c:97 mtrace_log] R: 0x80001ad0 (len=4) data=0xfe079ae3[0m
0x80001ad0: fe 07 9a e3 bnez	a5, -0xc
[1;34m[src/memory/paddr.c:97 mtrace_log] R: 0x80001ac4 (len=4) data=0x00150513[0m
0x80001ac4: 00 15 05 13 addi	a0, a0, 1
[1;34m[src/memory/paddr.c:97 mtrace_log] R: 0x80001ac8 (len=4) data=0x00a707b3[0m
0x80001ac8: 00 a7 07 b3 add	a5, a4, a0
[1;34m[src/memory/paddr.c:97 mtrace_log] R: 0x80001acc (len=4) data=0x0007c783[0m
[1;34m[src/memory/paddr.c:97 mtrace_log] R: 0x800029a8 (len=1) data=0x0000006d[0m
0x80001acc: 00 07 c7 83 lbu	a5, 0(a5)
[1;34m[src/memory/paddr.c:97 mtrace_log] R: 0x80001ad0 (len=4) data=0xfe079ae3[0m
0x80001ad0: fe 07 9a e3 bnez	a5, -0xc
[1;34m[src/memory/paddr.c:97 mtrace_log] R: 0x80001ac4 (len=4) data=0x00150513[0m
0x80001ac4: 00 15 05 13 addi	a0, a0, 1
[1;34m[src/memory/paddr.c:97 mtrace_log] R: 0x80001ac8 (len=4) data=0x00a707b3[0m
0x80001ac8: 00 a7 07 b3 add	a5, a4, a0
[1;34m[src/memory/paddr.c:97 mtrace_log] R: 0x80001acc (len=4) data=0x0007c783[0m
[1;34m[src/memory/paddr.c:97 mtrace_log] R: 0x800029a9 (len=1) data=0x00000065[0m
0x80001acc: 00 07 c7 83 lbu	a5, 0(a5)
[1;34m[src/memory/paddr.c:97 mtrace_log] R: 0x80001ad0 (len=4) data=0xfe079ae3[0m
0x80001ad0: fe 07 9a e3 bnez	a5, -0xc
[1;34m[src/memory/paddr.c:97 mtrace_log] R: 0x80001ac4 (len=4) data=0x00150513[0m
0x80001ac4: 00 15 05 13 addi	a0, a0, 1
[1;34m[src/memory/paddr.c:97 mtrace_log] R: 0x80001ac8 (len=4) data=0x00a707b3[0m
0x80001ac8: 00 a7 07 b3 add	a5, a4, a0
[1;34m[src/memory/paddr.c:97 mtrace_log] R: 0x80001acc (len=4) data=0x0007c783[0m
[1;34m[src/memory/paddr.c:97 mtrace_log] R: 0x800029aa (len=1) data=0x0000006d[0m
0x80001acc: 00 07 c7 83 lbu	a5, 0(a5)
[1;34m[src/memory/paddr.c:97 mtrace_log] R: 0x80001ad0 (len=4) data=0xfe079ae3[0m
0x80001ad0: fe 07 9a e3 bnez	a5, -0xc
[1;34m[src/memory/paddr.c:97 mtrace_log] R: 0x80001ac4 (len=4) data=0x00150513[0m
0x80001ac4: 00 15 05 13 addi	a0, a0, 1
[1;34m[src/memory/paddr.c:97 mtrace_log] R: 0x80001ac8 (len=4) data=0x00a707b3[0m
0x80001ac8: 00 a7 07 b3 add	a5, a4, a0
[1;34m[src/memory/paddr.c:97 mtrace_log] R: 0x80001acc (len=4) data=0x0007c783[0m
[1;34m[src/memory/paddr.c:97 mtrace_log] R: 0x800029ab (len=1) data=0x0000006f[0m
0x80001acc: 00 07 c7 83 lbu	a5, 0(a5)
[1;34m[src/memory/paddr.c:97 mtrace_log] R: 0x80001ad0 (len=4) data=0xfe079ae3[0m
0x80001ad0: fe 07 9a e3 bnez	a5, -0xc
[1;34m[src/memory/paddr.c:97 mtrace_log] R: 0x80001ac4 (len=4) data=0x00150513[0m
0x80001ac4: 00 15 05 13 addi	a0, a0, 1
[1;34m[src/memory/paddr.c:97 mtrace_log] R: 0x80001ac8 (len=4) data=0x00a707b3[0m
0x80001ac8: 00 a7 07 b3 add	a5, a4, a0
[1;34m[src/memory/paddr.c:97 mtrace_log] R: 0x80001acc (len=4) data=0x0007c783[0m
[1;34m[src/memory/paddr.c:97 mtrace_log] R: 0x800029ac (len=1) data=0x00000072[0m
0x80001acc: 00 07 c7 83 lbu	a5, 0(a5)
[1;34m[src/memory/paddr.c:97 mtrace_log] R: 0x80001ad0 (len=4) data=0xfe079ae3[0m
0x80001ad0: fe 07 9a e3 bnez	a5, -0xc
[1;34m[src/memory/paddr.c:97 mtrace_log] R: 0x80001ac4 (len=4) data=0x00150513[0m
0x80001ac4: 00 15 05 13 addi	a0, a0, 1
[1;34m[src/memory/paddr.c:97 mtrace_log] R: 0x80001ac8 (len=4) data=0x00a707b3[0m
0x80001ac8: 00 a7 07 b3 add	a5, a4, a0
[1;34m[src/memory/paddr.c:97 mtrace_log] R: 0x80001acc (len=4) data=0x0007c783[0m
[1;34m[src/memory/paddr.c:97 mtrace_log] R: 0x800029ad (len=1) data=0x00000079[0m
0x80001acc: 00 07 c7 83 lbu	a5, 0(a5)
[1;34m[src/memory/paddr.c:97 mtrace_log] R: 0x80001ad0 (len=4) data=0xfe079ae3[0m
0x80001ad0: fe 07 9a e3 bnez	a5, -0xc
[1;34m[src/memory/paddr.c:97 mtrace_log] R: 0x80001ac4 (len=4) data=0x00150513[0m
0x80001ac4: 00 15 05 13 addi	a0, a0, 1
[1;34m[src/memory/paddr.c:97 mtrace_log] R: 0x80001ac8 (len=4) data=0x00a707b3[0m
0x80001ac8: 00 a7 07 b3 add	a5, a4, a0
[1;34m[src/memory/paddr.c:97 mtrace_log] R: 0x80001acc (len=4) data=0x0007c783[0m
[1;34m[src/memory/paddr.c:97 mtrace_log] R: 0x800029ae (len=1) data=0x00000020[0m
0x80001acc: 00 07 c7 83 lbu	a5, 0(a5)
[1;34m[src/memory/paddr.c:97 mtrace_log] R: 0x80001ad0 (len=4) data=0xfe079ae3[0m
0x80001ad0: fe 07 9a e3 bnez	a5, -0xc
[1;34m[src/memory/paddr.c:97 mtrace_log] R: 0x80001ac4 (len=4) data=0x00150513[0m
0x80001ac4: 00 15 05 13 addi	a0, a0, 1
[1;34m[src/memory/paddr.c:97 mtrace_log] R: 0x80001ac8 (len=4) data=0x00a707b3[0m
0x80001ac8: 00 a7 07 b3 add	a5, a4, a0
[1;34m[src/memory/paddr.c:97 mtrace_log] R: 0x80001acc (len=4) data=0x0007c783[0m
[1;34m[src/memory/paddr.c:97 mtrace_log] R: 0x800029af (len=1) data=0x00000074[0m
0x80001acc: 00 07 c7 83 lbu	a5, 0(a5)
[1;34m[src/memory/paddr.c:97 mtrace_log] R: 0x80001ad0 (len=4) data=0xfe079ae3[0m
0x80001ad0: fe 07 9a e3 bnez	a5, -0xc
[1;34m[src/memory/paddr.c:97 mtrace_log] R: 0x80001ac4 (len=4) data=0x00150513[0m
0x80001ac4: 00 15 05 13 addi	a0, a0, 1
[1;34m[src/memory/paddr.c:97 mtrace_log] R: 0x80001ac8 (len=4) data=0x00a707b3[0m
0x80001ac8: 00 a7 07 b3 add	a5, a4, a0
[1;34m[src/memory/paddr.c:97 mtrace_log] R: 0x80001acc (len=4) data=0x0007c783[0m
[1;34m[src/memory/paddr.c:97 mtrace_log] R: 0x800029b0 (len=1) data=0x00000065[0m
0x80001acc: 00 07 c7 83 lbu	a5, 0(a5)
[1;34m[src/memory/paddr.c:97 mtrace_log] R: 0x80001ad0 (len=4) data=0xfe079ae3[0m
0x80001ad0: fe 07 9a e3 bnez	a5, -0xc
[1;34m[src/memory/paddr.c:97 mtrace_log] R: 0x80001ac4 (len=4) data=0x00150513[0m
0x80001ac4: 00 15 05 13 addi	a0, a0, 1
[1;34m[src/memory/paddr.c:97 mtrace_log] R: 0x80001ac8 (len=4) data=0x00a707b3[0m
0x80001ac8: 00 a7 07 b3 add	a5, a4, a0
[1;34m[src/memory/paddr.c:97 mtrace_log] R: 0x80001acc (len=4) data=0x0007c783[0m
[1;34m[src/memory/paddr.c:97 mtrace_log] R: 0x800029b1 (len=1) data=0x00000073[0m
0x80001acc: 00 07 c7 83 lbu	a5, 0(a5)
[1;34m[src/memory/paddr.c:97 mtrace_log] R: 0x80001ad0 (len=4) data=0xfe079ae3[0m
0x80001ad0: fe 07 9a e3 bnez	a5, -0xc
[1;34m[src/memory/paddr.c:97 mtrace_log] R: 0x80001ac4 (len=4) data=0x00150513[0m
0x80001ac4: 00 15 05 13 addi	a0, a0, 1
[1;34m[src/memory/paddr.c:97 mtrace_log] R: 0x80001ac8 (len=4) data=0x00a707b3[0m
0x80001ac8: 00 a7 07 b3 add	a5, a4, a0
[1;34m[src/memory/paddr.c:97 mtrace_log] R: 0x80001acc (len=4) data=0x0007c783[0m
[1;34m[src/memory/paddr.c:97 mtrace_log] R: 0x800029b2 (len=1) data=0x00000074[0m
0x80001acc: 00 07 c7 83 lbu	a5, 0(a5)
[1;34m[src/memory/paddr.c:97 mtrace_log] R: 0x80001ad0 (len=4) data=0xfe079ae3[0m
0x80001ad0: fe 07 9a e3 bnez	a5, -0xc
[1;34m[src/memory/paddr.c:97 mtrace_log] R: 0x80001ac4 (len=4) data=0x00150513[0m
0x80001ac4: 00 15 05 13 addi	a0, a0, 1
[1;34m[src/memory/paddr.c:97 mtrace_log] R: 0x80001ac8 (len=4) data=0x00a707b3[0m
0x80001ac8: 00 a7 07 b3 add	a5, a4, a0
[1;34m[src/memory/paddr.c:97 mtrace_log] R: 0x80001acc (len=4) data=0x0007c783[0m
[1;34m[src/memory/paddr.c:97 mtrace_log] R: 0x800029b3 (len=1) data=0x00000000[0m
0x80001acc: 00 07 c7 83 lbu	a5, 0(a5)
[1;34m[src/memory/paddr.c:97 mtrace_log] R: 0x80001ad0 (len=4) data=0xfe079ae3[0m
0x80001ad0: fe 07 9a e3 bnez	a5, -0xc
[1;34m[src/memory/paddr.c:97 mtrace_log] R: 0x80001ad4 (len=4) data=0x00008067[0m
0x80001ad4: 00 00 80 67 ret
[1;34m[src/memory/paddr.c:97 mtrace_log] R: 0x800020f0 (len=4) data=0x00412703[0m
[1;34m[src/memory/paddr.c:97 mtrace_log] R: 0x8009df44 (len=4) data=0xffffffff[0m
0x800020f0: 00 41 27 03 lw	a4, 4(sp)
[1;34m[src/memory/paddr.c:97 mtrace_log] R: 0x800020f4 (len=4) data=0xfff00613[0m
0x800020f4: ff f0 06 13 addi	a2, zero, -1
[1;34m[src/memory/paddr.c:97 mtrace_log] R: 0x800020f8 (len=4) data=0x00812783[0m
[1;34m[src/memory/paddr.c:97 mtrace_log] R: 0x8009df48 (len=4) data=0x00000000[0m
0x800020f8: 00 81 27 83 lw	a5, 8(sp)
[1;34m[src/memory/paddr.c:97 mtrace_log] R: 0x800020fc (len=4) data=0x00c12683[0m
[1;34m[src/memory/paddr.c:97 mtrace_log] R: 0x8009df4c (len=4) data=0xffffffff[0m
0x800020fc: 00 c1 26 83 lw	a3, 0xc(sp)
[1;34m[src/memory/paddr.c:97 mtrace_log] R: 0x80002100 (len=4) data=0x00c70663[0m
0x80002100: 00 c7 06 63 beq	a4, a2, 0xc
[1;34m[src/memory/paddr.c:97 mtrace_log] R: 0x8000210c (len=4) data=0x0017f793[0m
0x8000210c: 00 17 f7 93 andi	a5, a5, 1
[1;34m[src/memory/paddr.c:97 mtrace_log] R: 0x80002110 (len=4) data=0x14078063[0m
0x80002110: 14 07 80 63 beqz	a5, 0x140
[1;34m[src/memory/paddr.c:97 mtrace_log] R: 0x80002250 (len=4) data=0xfff68613[0m
0x80002250: ff f6 86 13 addi	a2, a3, -1
[1;34m[src/memory/paddr.c:97 mtrace_log] R: 0x80002254 (len=4) data=0x08d55463[0m
0x80002254: 08 d5 54 63 bge	a0, a3, 0x88
[1;34m[src/memory/paddr.c:97 mtrace_log] R: 0x800022dc (len=4) data=0x00060693[0m
0x800022dc: 00 06 06 93 mv	a3, a2
[1;34m[src/memory/paddr.c:97 mtrace_log] R: 0x800022e0 (len=4) data=0xe35ff06f[0m
0x800022e0: e3 5f f0 6f j	-0x1cc
[1;34m[src/memory/paddr.c:97 mtrace_log] R: 0x80002114 (len=4) data=0x1aa05663[0m
0x80002114: 1a a0 56 63 blez	a0, 0x1ac
[1;34m[src/memory/paddr.c:97 mtrace_log] R: 0x80002118 (len=4) data=0x00a48733[0m
0x80002118: 00 a4 87 33 add	a4, s1, a0
[1;34m[src/memory/paddr.c:97 mtrace_log] R: 0x8000211c (len=4) data=0x000dc783[0m
[1;34m[src/memory/paddr.c:97 mtrace_log] R: 0x8000299c (len=1) data=0x00000078[0m
0x8000211c: 00 0d c7 83 lbu	a5, 0(s11)
[1;34m[src/memory/paddr.c:97 mtrace_log] R: 0x80002120 (len=4) data=0x00148493[0m
0x80002120: 00 14 84 93 addi	s1, s1, 1
[1;34m[src/memory/paddr.c:97 mtrace_log] R: 0x80002124 (len=4) data=0x001d8d93[0m
0x80002124: 00 1d 8d 93 addi	s11, s11, 1
[1;34m[src/memory/paddr.c:97 mtrace_log] R: 0x80002128 (len=4) data=0xfef48fa3[0m
[1;34m[src/memory/paddr.c:97 mtrace_log] W: 0x80095521 (len=1) data=0x00000078[0m
0x80002128: fe f4 8f a3 sb	a5, -1(s1)
[1;34m[src/memory/paddr.c:97 mtrace_log] R: 0x8000212c (len=4) data=0xfe9718e3[0m
0x8000212c: fe 97 18 e3 bne	a4, s1, -0x10
[1;34m[src/memory/paddr.c:97 mtrace_log] R: 0x8000211c (len=4) data=0x000dc783[0m
[1;34m[src/memory/paddr.c:97 mtrace_log] R: 0x8000299d (len=1) data=0x00000038[0m
0x8000211c: 00 0d c7 83 lbu	a5, 0(s11)
[1;34m[src/memory/paddr.c:97 mtrace_log] R: 0x80002120 (len=4) data=0x00148493[0m
0x80002120: 00 14 84 93 addi	s1, s1, 1
[1;34m[src/memory/paddr.c:97 mtrace_log] R: 0x80002124 (len=4) data=0x001d8d93[0m
0x80002124: 00 1d 8d 93 addi	s11, s11, 1
[1;34m[src/memory/paddr.c:97 mtrace_log] R: 0x80002128 (len=4) data=0xfef48fa3[0m
[1;34m[src/memory/paddr.c:97 mtrace_log] W: 0x80095522 (len=1) data=0x00000038[0m
0x80002128: fe f4 8f a3 sb	a5, -1(s1)
[1;34m[src/memory/paddr.c:97 mtrace_log] R: 0x8000212c (len=4) data=0xfe9718e3[0m
0x8000212c: fe 97 18 e3 bne	a4, s1, -0x10
[1;34m[src/memory/paddr.c:97 mtrace_log] R: 0x8000211c (len=4) data=0x000dc783[0m
[1;34m[src/memory/paddr.c:97 mtrace_log] R: 0x8000299e (len=1) data=0x00000036[0m
0x8000211c: 00 0d c7 83 lbu	a5, 0(s11)
[1;34m[src/memory/paddr.c:97 mtrace_log] R: 0x80002120 (len=4) data=0x00148493[0m
0x80002120: 00 14 84 93 addi	s1, s1, 1
[1;34m[src/memory/paddr.c:97 mtrace_log] R: 0x80002124 (len=4) data=0x001d8d93[0m
0x80002124: 00 1d 8d 93 addi	s11, s11, 1
[1;34m[src/memory/paddr.c:97 mtrace_log] R: 0x80002128 (len=4) data=0xfef48fa3[0m
[1;34m[src/memory/paddr.c:97 mtrace_log] W: 0x80095523 (len=1) data=0x00000036[0m
0x80002128: fe f4 8f a3 sb	a5, -1(s1)
[1;34m[src/memory/paddr.c:97 mtrace_log] R: 0x8000212c (len=4) data=0xfe9718e3[0m
0x8000212c: fe 97 18 e3 bne	a4, s1, -0x10
[1;34m[src/memory/paddr.c:97 mtrace_log] R: 0x8000211c (len=4) data=0x000dc783[0m
[1;34m[src/memory/paddr.c:97 mtrace_log] R: 0x8000299f (len=1) data=0x00000020[0m
0x8000211c: 00 0d c7 83 lbu	a5, 0(s11)
[1;34m[src/memory/paddr.c:97 mtrace_log] R: 0x80002120 (len=4) data=0x00148493[0m
0x80002120: 00 14 84 93 addi	s1, s1, 1
[1;34m[src/memory/paddr.c:97 mtrace_log] R: 0x80002124 (len=4) data=0x001d8d93[0m
0x80002124: 00 1d 8d 93 addi	s11, s11, 1
[1;34m[src/memory/paddr.c:97 mtrace_log] R: 0x80002128 (len=4) data=0xfef48fa3[0m
[1;34m[src/memory/paddr.c:97 mtrace_log] W: 0x80095524 (len=1) data=0x00000020[0m
0x80002128: fe f4 8f a3 sb	a5, -1(s1)
[1;34m[src/memory/paddr.c:97 mtrace_log] R: 0x8000212c (len=4) data=0xfe9718e3[0m
0x8000212c: fe 97 18 e3 bne	a4, s1, -0x10
[1;34m[src/memory/paddr.c:97 mtrace_log] R: 0x8000211c (len=4) data=0x000dc783[0m
[1;34m[src/memory/paddr.c:97 mtrace_log] R: 0x800029a0 (len=1) data=0x00000076[0m
0x8000211c: 00 0d c7 83 lbu	a5, 0(s11)
[1;34m[src/memory/paddr.c:97 mtrace_log] R: 0x80002120 (len=4) data=0x00148493[0m
0x80002120: 00 14 84 93 addi	s1, s1, 1
[1;34m[src/memory/paddr.c:97 mtrace_log] R: 0x80002124 (len=4) data=0x001d8d93[0m
0x80002124: 00 1d 8d 93 addi	s11, s11, 1
[1;34m[src/memory/paddr.c:97 mtrace_log] R: 0x80002128 (len=4) data=0xfef48fa3[0m
[1;34m[src/memory/paddr.c:97 mtrace_log] W: 0x80095525 (len=1) data=0x00000076[0m
0x80002128: fe f4 8f a3 sb	a5, -1(s1)
[1;34m[src/memory/paddr.c:97 mtrace_log] R: 0x8000212c (len=4) data=0xfe9718e3[0m
0x8000212c: fe 97 18 e3 bne	a4, s1, -0x10
[1;34m[src/memory/paddr.c:97 mtrace_log] R: 0x8000211c (len=4) data=0x000dc783[0m
[1;34m[src/memory/paddr.c:97 mtrace_log] R: 0x800029a1 (len=1) data=0x00000069[0m
0x8000211c: 00 0d c7 83 lbu	a5, 0(s11)
[1;34m[src/memory/paddr.c:97 mtrace_log] R: 0x80002120 (len=4) data=0x00148493[0m
0x80002120: 00 14 84 93 addi	s1, s1, 1
[1;34m[src/memory/paddr.c:97 mtrace_log] R: 0x80002124 (len=4) data=0x001d8d93[0m
0x80002124: 00 1d 8d 93 addi	s11, s11, 1
[1;34m[src/memory/paddr.c:97 mtrace_log] R: 0x80002128 (len=4) data=0xfef48fa3[0m
[1;34m[src/memory/paddr.c:97 mtrace_log] W: 0x80095526 (len=1) data=0x00000069[0m
0x80002128: fe f4 8f a3 sb	a5, -1(s1)
[1;34m[src/memory/paddr.c:97 mtrace_log] R: 0x8000212c (len=4) data=0xfe9718e3[0m
0x8000212c: fe 97 18 e3 bne	a4, s1, -0x10
[1;34m[src/memory/paddr.c:97 mtrace_log] R: 0x8000211c (len=4) data=0x000dc783[0m
[1;34m[src/memory/paddr.c:97 mtrace_log] R: 0x800029a2 (len=1) data=0x00000072[0m
0x8000211c: 00 0d c7 83 lbu	a5, 0(s11)
[1;34m[src/memory/paddr.c:97 mtrace_log] R: 0x80002120 (len=4) data=0x00148493[0m
0x80002120: 00 14 84 93 addi	s1, s1, 1
[1;34m[src/memory/paddr.c:97 mtrace_log] R: 0x80002124 (len=4) data=0x001d8d93[0m
0x80002124: 00 1d 8d 93 addi	s11, s11, 1
[1;34m[src/memory/paddr.c:97 mtrace_log] R: 0x80002128 (len=4) data=0xfef48fa3[0m
[1;34m[src/memory/paddr.c:97 mtrace_log] W: 0x80095527 (len=1) data=0x00000072[0m
0x80002128: fe f4 8f a3 sb	a5, -1(s1)
[1;34m[src/memory/paddr.c:97 mtrace_log] R: 0x8000212c (len=4) data=0xfe9718e3[0m
0x8000212c: fe 97 18 e3 bne	a4, s1, -0x10
[1;34m[src/memory/paddr.c:97 mtrace_log] R: 0x8000211c (len=4) data=0x000dc783[0m
[1;34m[src/memory/paddr.c:97 mtrace_log] R: 0x800029a3 (len=1) data=0x00000074[0m
0x8000211c: 00 0d c7 83 lbu	a5, 0(s11)
[1;34m[src/memory/paddr.c:97 mtrace_log] R: 0x80002120 (len=4) data=0x00148493[0m
0x80002120: 00 14 84 93 addi	s1, s1, 1
[1;34m[src/memory/paddr.c:97 mtrace_log] R: 0x80002124 (len=4) data=0x001d8d93[0m
0x80002124: 00 1d 8d 93 addi	s11, s11, 1
[1;34m[src/memory/paddr.c:97 mtrace_log] R: 0x80002128 (len=4) data=0xfef48fa3[0m
[1;34m[src/memory/paddr.c:97 mtrace_log] W: 0x80095528 (len=1) data=0x00000074[0m
0x80002128: fe f4 8f a3 sb	a5, -1(s1)
[1;34m[src/memory/paddr.c:97 mtrace_log] R: 0x8000212c (len=4) data=0xfe9718e3[0m
0x8000212c: fe 97 18 e3 bne	a4, s1, -0x10
[1;34m[src/memory/paddr.c:97 mtrace_log] R: 0x8000211c (len=4) data=0x000dc783[0m
[1;34m[src/memory/paddr.c:97 mtrace_log] R: 0x800029a4 (len=1) data=0x00000075[0m
0x8000211c: 00 0d c7 83 lbu	a5, 0(s11)
[1;34m[src/memory/paddr.c:97 mtrace_log] R: 0x80002120 (len=4) data=0x00148493[0m
0x80002120: 00 14 84 93 addi	s1, s1, 1
[1;34m[src/memory/paddr.c:97 mtrace_log] R: 0x80002124 (len=4) data=0x001d8d93[0m
0x80002124: 00 1d 8d 93 addi	s11, s11, 1
[1;34m[src/memory/paddr.c:97 mtrace_log] R: 0x80002128 (len=4) data=0xfef48fa3[0m
[1;34m[src/memory/paddr.c:97 mtrace_log] W: 0x80095529 (len=1) data=0x00000075[0m
0x80002128: fe f4 8f a3 sb	a5, -1(s1)
[1;34m[src/memory/paddr.c:97 mtrace_log] R: 0x8000212c (len=4) data=0xfe9718e3[0m
0x8000212c: fe 97 18 e3 bne	a4, s1, -0x10
[1;34m[src/memory/paddr.c:97 mtrace_log] R: 0x8000211c (len=4) data=0x000dc783[0m
[1;34m[src/memory/paddr.c:97 mtrace_log] R: 0x800029a5 (len=1) data=0x00000061[0m
0x8000211c: 00 0d c7 83 lbu	a5, 0(s11)
[1;34m[src/memory/paddr.c:97 mtrace_log] R: 0x80002120 (len=4) data=0x00148493[0m
0x80002120: 00 14 84 93 addi	s1, s1, 1
[1;34m[src/memory/paddr.c:97 mtrace_log] R: 0x80002124 (len=4) data=0x001d8d93[0m
0x80002124: 00 1d 8d 93 addi	s11, s11, 1
[1;34m[src/memory/paddr.c:97 mtrace_log] R: 0x80002128 (len=4) data=0xfef48fa3[0m
[1;34m[src/memory/paddr.c:97 mtrace_log] W: 0x8009552a (len=1) data=0x00000061[0m
0x80002128: fe f4 8f a3 sb	a5, -1(s1)
[1;34m[src/memory/paddr.c:97 mtrace_log] R: 0x8000212c (len=4) data=0xfe9718e3[0m
0x8000212c: fe 97 18 e3 bne	a4, s1, -0x10
[1;34m[src/memory/paddr.c:97 mtrace_log] R: 0x8000211c (len=4) data=0x000dc783[0m
[1;34m[src/memory/paddr.c:97 mtrace_log] R: 0x800029a6 (len=1) data=0x0000006c[0m
0x8000211c: 00 0d c7 83 lbu	a5, 0(s11)
[1;34m[src/memory/paddr.c:97 mtrace_log] R: 0x80002120 (len=4) data=0x00148493[0m
0x80002120: 00 14 84 93 addi	s1, s1, 1
[1;34m[src/memory/paddr.c:97 mtrace_log] R: 0x80002124 (len=4) data=0x001d8d93[0m
0x80002124: 00 1d 8d 93 addi	s11, s11, 1
[1;34m[src/memory/paddr.c:97 mtrace_log] R: 0x80002128 (len=4) data=0xfef48fa3[0m
[1;34m[src/memory/paddr.c:97 mtrace_log] W: 0x8009552b (len=1) data=0x0000006c[0m
0x80002128: fe f4 8f a3 sb	a5, -1(s1)
[1;34m[src/memory/paddr.c:97 mtrace_log] R: 0x8000212c (len=4) data=0xfe9718e3[0m
0x8000212c: fe 97 18 e3 bne	a4, s1, -0x10
[1;34m[src/memory/paddr.c:97 mtrace_log] R: 0x8000211c (len=4) data=0x000dc783[0m
[1;34m[src/memory/paddr.c:97 mtrace_log] R: 0x800029a7 (len=1) data=0x00000020[0m
0x8000211c: 00 0d c7 83 lbu	a5, 0(s11)
[1;34m[src/memory/paddr.c:97 mtrace_log] R: 0x80002120 (len=4) data=0x00148493[0m
0x80002120: 00 14 84 93 addi	s1, s1, 1
[1;34m[src/memory/paddr.c:97 mtrace_log] R: 0x80002124 (len=4) data=0x001d8d93[0m
0x80002124: 00 1d 8d 93 addi	s11, s11, 1
[1;34m[src/memory/paddr.c:97 mtrace_log] R: 0x80002128 (len=4) data=0xfef48fa3[0m
[1;34m[src/memory/paddr.c:97 mtrace_log] W: 0x8009552c (len=1) data=0x00000020[0m
0x80002128: fe f4 8f a3 sb	a5, -1(s1)
[1;34m[src/memory/paddr.c:97 mtrace_log] R: 0x8000212c (len=4) data=0xfe9718e3[0m
0x8000212c: fe 97 18 e3 bne	a4, s1, -0x10
[1;34m[src/memory/paddr.c:97 mtrace_log] R: 0x8000211c (len=4) data=0x000dc783[0m
[1;34m[src/memory/paddr.c:97 mtrace_log] R: 0x800029a8 (len=1) data=0x0000006d[0m
0x8000211c: 00 0d c7 83 lbu	a5, 0(s11)
[1;34m[src/memory/paddr.c:97 mtrace_log] R: 0x80002120 (len=4) data=0x00148493[0m
0x80002120: 00 14 84 93 addi	s1, s1, 1
[1;34m[src/memory/paddr.c:97 mtrace_log] R: 0x80002124 (len=4) data=0x001d8d93[0m
0x80002124: 00 1d 8d 93 addi	s11, s11, 1
[1;34m[src/memory/paddr.c:97 mtrace_log] R: 0x80002128 (len=4) data=0xfef48fa3[0m
[1;34m[src/memory/paddr.c:97 mtrace_log] W: 0x8009552d (len=1) data=0x0000006d[0m
0x80002128: fe f4 8f a3 sb	a5, -1(s1)
[1;34m[src/memory/paddr.c:97 mtrace_log] R: 0x8000212c (len=4) data=0xfe9718e3[0m
0x8000212c: fe 97 18 e3 bne	a4, s1, -0x10
[1;34m[src/memory/paddr.c:97 mtrace_log] R: 0x8000211c (len=4) data=0x000dc783[0m
[1;34m[src/memory/paddr.c:97 mtrace_log] R: 0x800029a9 (len=1) data=0x00000065[0m
0x8000211c: 00 0d c7 83 lbu	a5, 0(s11)
[1;34m[src/memory/paddr.c:97 mtrace_log] R: 0x80002120 (len=4) data=0x00148493[0m
0x80002120: 00 14 84 93 addi	s1, s1, 1
[1;34m[src/memory/paddr.c:97 mtrace_log] R: 0x80002124 (len=4) data=0x001d8d93[0m
0x80002124: 00 1d 8d 93 addi	s11, s11, 1
[1;34m[src/memory/paddr.c:97 mtrace_log] R: 0x80002128 (len=4) data=0xfef48fa3[0m
[1;34m[src/memory/paddr.c:97 mtrace_log] W: 0x8009552e (len=1) data=0x00000065[0m
0x80002128: fe f4 8f a3 sb	a5, -1(s1)
[1;34m[src/memory/paddr.c:97 mtrace_log] R: 0x8000212c (len=4) data=0xfe9718e3[0m
0x8000212c: fe 97 18 e3 bne	a4, s1, -0x10
[1;34m[src/memory/paddr.c:97 mtrace_log] R: 0x8000211c (len=4) data=0x000dc783[0m
[1;34m[src/memory/paddr.c:97 mtrace_log] R: 0x800029aa (len=1) data=0x0000006d[0m
0x8000211c: 00 0d c7 83 lbu	a5, 0(s11)
[1;34m[src/memory/paddr.c:97 mtrace_log] R: 0x80002120 (len=4) data=0x00148493[0m
0x80002120: 00 14 84 93 addi	s1, s1, 1
[1;34m[src/memory/paddr.c:97 mtrace_log] R: 0x80002124 (len=4) data=0x001d8d93[0m
0x80002124: 00 1d 8d 93 addi	s11, s11, 1
[1;34m[src/memory/paddr.c:97 mtrace_log] R: 0x80002128 (len=4) data=0xfef48fa3[0m
[1;34m[src/memory/paddr.c:97 mtrace_log] W: 0x8009552f (len=1) data=0x0000006d[0m
0x80002128: fe f4 8f a3 sb	a5, -1(s1)
[1;34m[src/memory/paddr.c:97 mtrace_log] R: 0x8000212c (len=4) data=0xfe9718e3[0m
0x8000212c: fe 97 18 e3 bne	a4, s1, -0x10
[1;34m[src/memory/paddr.c:97 mtrace_log] R: 0x8000211c (len=4) data=0x000dc783[0m
[1;34m[src/memory/paddr.c:97 mtrace_log] R: 0x800029ab (len=1) data=0x0000006f[0m
0x8000211c: 00 0d c7 83 lbu	a5, 0(s11)
[1;34m[src/memory/paddr.c:97 mtrace_log] R: 0x80002120 (len=4) data=0x00148493[0m
0x80002120: 00 14 84 93 addi	s1, s1, 1
[1;34m[src/memory/paddr.c:97 mtrace_log] R: 0x80002124 (len=4) data=0x001d8d93[0m
0x80002124: 00 1d 8d 93 addi	s11, s11, 1
[1;34m[src/memory/paddr.c:97 mtrace_log] R: 0x80002128 (len=4) data=0xfef48fa3[0m
[1;34m[src/memory/paddr.c:97 mtrace_log] W: 0x80095530 (len=1) data=0x0000006f[0m
0x80002128: fe f4 8f a3 sb	a5, -1(s1)
[1;34m[src/memory/paddr.c:97 mtrace_log] R: 0x8000212c (len=4) data=0xfe9718e3[0m
0x8000212c: fe 97 18 e3 bne	a4, s1, -0x10
[1;34m[src/memory/paddr.c:97 mtrace_log] R: 0x8000211c (len=4) data=0x000dc783[0m
[1;34m[src/memory/paddr.c:97 mtrace_log] R: 0x800029ac (len=1) data=0x00000072[0m
0x8000211c: 00 0d c7 83 lbu	a5, 0(s11)
[1;34m[src/memory/paddr.c:97 mtrace_log] R: 0x80002120 (len=4) data=0x00148493[0m
0x80002120: 00 14 84 93 addi	s1, s1, 1
[1;34m[src/memory/paddr.c:97 mtrace_log] R: 0x80002124 (len=4) data=0x001d8d93[0m
0x80002124: 00 1d 8d 93 addi	s11, s11, 1
[1;34m[src/memory/paddr.c:97 mtrace_log] R: 0x80002128 (len=4) data=0xfef48fa3[0m
[1;34m[src/memory/paddr.c:97 mtrace_log] W: 0x80095531 (len=1) data=0x00000072[0m
0x80002128: fe f4 8f a3 sb	a5, -1(s1)
[1;34m[src/memory/paddr.c:97 mtrace_log] R: 0x8000212c (len=4) data=0xfe9718e3[0m
0x8000212c: fe 97 18 e3 bne	a4, s1, -0x10
[1;34m[src/memory/paddr.c:97 mtrace_log] R: 0x8000211c (len=4) data=0x000dc783[0m
[1;34m[src/memory/paddr.c:97 mtrace_log] R: 0x800029ad (len=1) data=0x00000079[0m
0x8000211c: 00 0d c7 83 lbu	a5, 0(s11)
[1;34m[src/memory/paddr.c:97 mtrace_log] R: 0x80002120 (len=4) data=0x00148493[0m
0x80002120: 00 14 84 93 addi	s1, s1, 1
[1;34m[src/memory/paddr.c:97 mtrace_log] R: 0x80002124 (len=4) data=0x001d8d93[0m
0x80002124: 00 1d 8d 93 addi	s11, s11, 1
[1;34m[src/memory/paddr.c:97 mtrace_log] R: 0x80002128 (len=4) data=0xfef48fa3[0m
[1;34m[src/memory/paddr.c:97 mtrace_log] W: 0x80095532 (len=1) data=0x00000079[0m
0x80002128: fe f4 8f a3 sb	a5, -1(s1)
[1;34m[src/memory/paddr.c:97 mtrace_log] R: 0x8000212c (len=4) data=0xfe9718e3[0m
0x8000212c: fe 97 18 e3 bne	a4, s1, -0x10
[1;34m[src/memory/paddr.c:97 mtrace_log] R: 0x8000211c (len=4) data=0x000dc783[0m
[1;34m[src/memory/paddr.c:97 mtrace_log] R: 0x800029ae (len=1) data=0x00000020[0m
0x8000211c: 00 0d c7 83 lbu	a5, 0(s11)
[1;34m[src/memory/paddr.c:97 mtrace_log] R: 0x80002120 (len=4) data=0x00148493[0m
0x80002120: 00 14 84 93 addi	s1, s1, 1
[1;34m[src/memory/paddr.c:97 mtrace_log] R: 0x80002124 (len=4) data=0x001d8d93[0m
0x80002124: 00 1d 8d 93 addi	s11, s11, 1
[1;34m[src/memory/paddr.c:97 mtrace_log] R: 0x80002128 (len=4) data=0xfef48fa3[0m
[1;34m[src/memory/paddr.c:97 mtrace_log] W: 0x80095533 (len=1) data=0x00000020[0m
0x80002128: fe f4 8f a3 sb	a5, -1(s1)
[1;34m[src/memory/paddr.c:97 mtrace_log] R: 0x8000212c (len=4) data=0xfe9718e3[0m
0x8000212c: fe 97 18 e3 bne	a4, s1, -0x10
[1;34m[src/memory/paddr.c:97 mtrace_log] R: 0x8000211c (len=4) data=0x000dc783[0m
[1;34m[src/memory/paddr.c:97 mtrace_log] R: 0x800029af (len=1) data=0x00000074[0m
0x8000211c: 00 0d c7 83 lbu	a5, 0(s11)
[1;34m[src/memory/paddr.c:97 mtrace_log] R: 0x80002120 (len=4) data=0x00148493[0m
0x80002120: 00 14 84 93 addi	s1, s1, 1
[1;34m[src/memory/paddr.c:97 mtrace_log] R: 0x80002124 (len=4) data=0x001d8d93[0m
0x80002124: 00 1d 8d 93 addi	s11, s11, 1
[1;34m[src/memory/paddr.c:97 mtrace_log] R: 0x80002128 (len=4) data=0xfef48fa3[0m
[1;34m[src/memory/paddr.c:97 mtrace_log] W: 0x80095534 (len=1) data=0x00000074[0m
0x80002128: fe f4 8f a3 sb	a5, -1(s1)
[1;34m[src/memory/paddr.c:97 mtrace_log] R: 0x8000212c (len=4) data=0xfe9718e3[0m
0x8000212c: fe 97 18 e3 bne	a4, s1, -0x10
[1;34m[src/memory/paddr.c:97 mtrace_log] R: 0x8000211c (len=4) data=0x000dc783[0m
[1;34m[src/memory/paddr.c:97 mtrace_log] R: 0x800029b0 (len=1) data=0x00000065[0m
0x8000211c: 00 0d c7 83 lbu	a5, 0(s11)
[1;34m[src/memory/paddr.c:97 mtrace_log] R: 0x80002120 (len=4) data=0x00148493[0m
0x80002120: 00 14 84 93 addi	s1, s1, 1
[1;34m[src/memory/paddr.c:97 mtrace_log] R: 0x80002124 (len=4) data=0x001d8d93[0m
0x80002124: 00 1d 8d 93 addi	s11, s11, 1
[1;34m[src/memory/paddr.c:97 mtrace_log] R: 0x80002128 (len=4) data=0xfef48fa3[0m
[1;34m[src/memory/paddr.c:97 mtrace_log] W: 0x80095535 (len=1) data=0x00000065[0m
0x80002128: fe f4 8f a3 sb	a5, -1(s1)
[1;34m[src/memory/paddr.c:97 mtrace_log] R: 0x8000212c (len=4) data=0xfe9718e3[0m
0x8000212c: fe 97 18 e3 bne	a4, s1, -0x10
[1;34m[src/memory/paddr.c:97 mtrace_log] R: 0x8000211c (len=4) data=0x000dc783[0m
[1;34m[src/memory/paddr.c:97 mtrace_log] R: 0x800029b1 (len=1) data=0x00000073[0m
0x8000211c: 00 0d c7 83 lbu	a5, 0(s11)
[1;34m[src/memory/paddr.c:97 mtrace_log] R: 0x80002120 (len=4) data=0x00148493[0m
0x80002120: 00 14 84 93 addi	s1, s1, 1
[1;34m[src/memory/paddr.c:97 mtrace_log] R: 0x80002124 (len=4) data=0x001d8d93[0m
0x80002124: 00 1d 8d 93 addi	s11, s11, 1
[1;34m[src/memory/paddr.c:97 mtrace_log] R: 0x80002128 (len=4) data=0xfef48fa3[0m
[1;34m[src/memory/paddr.c:97 mtrace_log] W: 0x80095536 (len=1) data=0x00000073[0m
0x80002128: fe f4 8f a3 sb	a5, -1(s1)
[1;34m[src/memory/paddr.c:97 mtrace_log] R: 0x8000212c (len=4) data=0xfe9718e3[0m
0x8000212c: fe 97 18 e3 bne	a4, s1, -0x10
[1;34m[src/memory/paddr.c:97 mtrace_log] R: 0x8000211c (len=4) data=0x000dc783[0m
[1;34m[src/memory/paddr.c:97 mtrace_log] R: 0x800029b2 (len=1) data=0x00000074[0m
0x8000211c: 00 0d c7 83 lbu	a5, 0(s11)
[1;34m[src/memory/paddr.c:97 mtrace_log] R: 0x80002120 (len=4) data=0x00148493[0m
0x80002120: 00 14 84 93 addi	s1, s1, 1
[1;34m[src/memory/paddr.c:97 mtrace_log] R: 0x80002124 (len=4) data=0x001d8d93[0m
0x80002124: 00 1d 8d 93 addi	s11, s11, 1
[1;34m[src/memory/paddr.c:97 mtrace_log] R: 0x80002128 (len=4) data=0xfef48fa3[0m
[1;34m[src/memory/paddr.c:97 mtrace_log] W: 0x80095537 (len=1) data=0x00000074[0m
0x80002128: fe f4 8f a3 sb	a5, -1(s1)
[1;34m[src/memory/paddr.c:97 mtrace_log] R: 0x8000212c (len=4) data=0xfe9718e3[0m
0x8000212c: fe 97 18 e3 bne	a4, s1, -0x10
[1;34m[src/memory/paddr.c:97 mtrace_log] R: 0x80002130 (len=4) data=0x40a684b3[0m
0x80002130: 40 a6 84 b3 sub	s1, a3, a0
[1;34m[src/memory/paddr.c:97 mtrace_log] R: 0x80002134 (len=4) data=0x00140593[0m
0x80002134: 00 14 05 93 addi	a1, s0, 1
[1;34m[src/memory/paddr.c:97 mtrace_log] R: 0x80002138 (len=4) data=0x009704b3[0m
0x80002138: 00 97 04 b3 add	s1, a4, s1
[1;34m[src/memory/paddr.c:97 mtrace_log] R: 0x8000213c (len=4) data=0x02000793[0m
0x8000213c: 02 00 07 93 addi	a5, zero, 0x20
[1;34m[src/memory/paddr.c:97 mtrace_log] R: 0x80002140 (len=4) data=0x16d55663[0m
0x80002140: 16 d5 56 63 bge	a0, a3, 0x16c
[1;34m[src/memory/paddr.c:97 mtrace_log] R: 0x800022ac (len=4) data=0x00144783[0m
[1;34m[src/memory/paddr.c:97 mtrace_log] R: 0x8000291c (len=1) data=0x0000000a[0m
0x800022ac: 00 14 47 83 lbu	a5, 1(s0)
[1;34m[src/memory/paddr.c:97 mtrace_log] R: 0x800022b0 (len=4) data=0x01c12d83[0m
[1;34m[src/memory/paddr.c:97 mtrace_log] R: 0x8009df5c (len=4) data=0x00000000[0m
0x800022b0: 01 c1 2d 83 lw	s11, 0x1c(sp)
[1;34m[src/memory/paddr.c:97 mtrace_log] R: 0x800022b4 (len=4) data=0x00070493[0m
0x800022b4: 00 07 04 93 mv	s1, a4
[1;34m[src/memory/paddr.c:97 mtrace_log] R: 0x800022b8 (len=4) data=0xbc0792e3[0m
0x800022b8: bc 07 92 e3 bnez	a5, -0x43c
[1;34m[src/memory/paddr.c:97 mtrace_log] R: 0x80001e7c (len=4) data=0x05578c63[0m
0x80001e7c: 05 57 8c 63 beq	a5, s5, 0x58
[1;34m[src/memory/paddr.c:97 mtrace_log] R: 0x80001e80 (len=4) data=0x00f48023[0m
[1;34m[src/memory/paddr.c:97 mtrace_log] W: 0x80095538 (len=1) data=0x0000000a[0m
0x80001e80: 00 f4 80 23 sb	a5, 0(s1)
[1;34m[src/memory/paddr.c:97 mtrace_log] R: 0x80001e84 (len=4) data=0x0015c783[0m
[1;34m[src/memory/paddr.c:97 mtrace_log] R: 0x8000291d (len=1) data=0x00000000[0m
0x80001e84: 00 15 c7 83 lbu	a5, 1(a1)
[1;34m[src/memory/paddr.c:97 mtrace_log] R: 0x80001e88 (len=4) data=0x00148493[0m
0x80001e88: 00 14 84 93 addi	s1, s1, 1
[1;34m[src/memory/paddr.c:97 mtrace_log] R: 0x80001e8c (len=4) data=0x00158593[0m
0x80001e8c: 00 15 85 93 addi	a1, a1, 1
[1;34m[src/memory/paddr.c:97 mtrace_log] R: 0x80001e90 (len=4) data=0xfe0796e3[0m
0x80001e90: fe 07 96 e3 bnez	a5, -0x14
[1;34m[src/memory/paddr.c:97 mtrace_log] R: 0x80001e94 (len=4) data=0x04812403[0m
[1;34m[src/memory/paddr.c:97 mtrace_log] R: 0x8009df88 (len=4) data=0x00000070[0m
0x80001e94: 04 81 24 03 lw	s0, 0x48(sp)
[1;34m[src/memory/paddr.c:97 mtrace_log] R: 0x80001e98 (len=4) data=0x04012903[0m
[1;34m[src/memory/paddr.c:97 mtrace_log] R: 0x8009df80 (len=4) data=0x00000100[0m
0x80001e98: 04 01 29 03 lw	s2, 0x40(sp)
[1;34m[src/memory/paddr.c:97 mtrace_log] R: 0x80001e9c (len=4) data=0x03c12983[0m
[1;34m[src/memory/paddr.c:97 mtrace_log] R: 0x8009df7c (len=4) data=0x80002914[0m
0x80001e9c: 03 c1 29 83 lw	s3, 0x3c(sp)
[1;34m[src/memory/paddr.c:97 mtrace_log] R: 0x80001ea0 (len=4) data=0x03812a03[0m
[1;34m[src/memory/paddr.c:97 mtrace_log] R: 0x8009df78 (len=4) data=0x00000000[0m
0x80001ea0: 03 81 2a 03 lw	s4, 0x38(sp)
[1;34m[src/memory/paddr.c:97 mtrace_log] R: 0x80001ea4 (len=4) data=0x03412a83[0m
[1;34m[src/memory/paddr.c:97 mtrace_log] R: 0x8009df74 (len=4) data=0x00000000[0m
0x80001ea4: 03 41 2a 83 lw	s5, 0x34(sp)
[1;34m[src/memory/paddr.c:97 mtrace_log] R: 0x80001ea8 (len=4) data=0x02c12b83[0m
[1;34m[src/memory/paddr.c:97 mtrace_log] R: 0x8009df6c (len=4) data=0x00000000[0m
0x80001ea8: 02 c1 2b 83 lw	s7, 0x2c(sp)
[1;34m[src/memory/paddr.c:97 mtrace_log] R: 0x80001eac (len=4) data=0x02812c03[0m
[1;34m[src/memory/paddr.c:97 mtrace_log] R: 0x8009df68 (len=4) data=0x00000000[0m
0x80001eac: 02 81 2c 03 lw	s8, 0x28(sp)
[1;34m[src/memory/paddr.c:97 mtrace_log] R: 0x80001eb0 (len=4) data=0x02412c83[0m
[1;34m[src/memory/paddr.c:97 mtrace_log] R: 0x8009df64 (len=4) data=0x00000000[0m
0x80001eb0: 02 41 2c 83 lw	s9, 0x24(sp)
[1;34m[src/memory/paddr.c:97 mtrace_log] R: 0x80001eb4 (len=4) data=0x02012d03[0m
[1;34m[src/memory/paddr.c:97 mtrace_log] R: 0x8009df60 (len=4) data=0x00000000[0m
0x80001eb4: 02 01 2d 03 lw	s10, 0x20(sp)
[1;34m[src/memory/paddr.c:97 mtrace_log] R: 0x80001eb8 (len=4) data=0x00048023[0m
[1;34m[src/memory/paddr.c:97 mtrace_log] W: 0x80095539 (len=1) data=0x00000000[0m
0x80001eb8: 00 04 80 23 sb	zero, 0(s1)
[1;34m[src/memory/paddr.c:97 mtrace_log] R: 0x80001ebc (len=4) data=0x04c12083[0m
[1;34m[src/memory/paddr.c:97 mtrace_log] R: 0x8009df8c (len=4) data=0x80002340[0m
0x80001ebc: 04 c1 20 83 lw	ra, 0x4c(sp)
[1;34m[src/memory/paddr.c:97 mtrace_log] R: 0x80001ec0 (len=4) data=0x41648533[0m
0x80001ec0: 41 64 85 33 sub	a0, s1, s6
[1;34m[src/memory/paddr.c:97 mtrace_log] R: 0x80001ec4 (len=4) data=0x04412483[0m
[1;34m[src/memory/paddr.c:97 mtrace_log] R: 0x8009df84 (len=4) data=0x80002eb8[0m
0x80001ec4: 04 41 24 83 lw	s1, 0x44(sp)
[1;34m[src/memory/paddr.c:97 mtrace_log] R: 0x80001ec8 (len=4) data=0x03012b03[0m
[1;34m[src/memory/paddr.c:97 mtrace_log] R: 0x8009df70 (len=4) data=0x00000000[0m
0x80001ec8: 03 01 2b 03 lw	s6, 0x30(sp)
[1;34m[src/memory/paddr.c:97 mtrace_log] R: 0x80001ecc (len=4) data=0x05010113[0m
0x80001ecc: 05 01 01 13 addi	sp, sp, 0x50
[1;34m[src/memory/paddr.c:97 mtrace_log] R: 0x80001ed0 (len=4) data=0x00008067[0m
0x80001ed0: 00 00 80 67 ret
[1;34m[src/memory/paddr.c:97 mtrace_log] R: 0x80002340 (len=4) data=0x00093797[0m
0x80002340: 00 09 37 97 auipc	a5, 0x93
[1;34m[src/memory/paddr.c:97 mtrace_log] R: 0x80002344 (len=4) data=0x1dc78793[0m
0x80002344: 1d c7 87 93 addi	a5, a5, 0x1dc
[1;34m[src/memory/paddr.c:97 mtrace_log] R: 0x80002348 (len=4) data=0x0007c703[0m
[1;34m[src/memory/paddr.c:97 mtrace_log] R: 0x8009551c (len=1) data=0x00000020[0m
0x80002348: 00 07 c7 03 lbu	a4, 0(a5)
[1;34m[src/memory/paddr.c:97 mtrace_log] R: 0x8000234c (len=4) data=0x00070e63[0m
0x8000234c: 00 07 0e 63 beqz	a4, 0x1c
[1;34m[src/memory/paddr.c:97 mtrace_log] R: 0x80002350 (len=4) data=0xa00006b7[0m
0x80002350: a0 00 06 b7 lui	a3, 0xa0000
[1;34m[src/memory/paddr.c:97 mtrace_log] R: 0x80002354 (len=4) data=0x3f868693[0m
0x80002354: 3f 86 86 93 addi	a3, a3, 0x3f8
[1;34m[src/memory/paddr.c:97 mtrace_log] R: 0x80002358 (len=4) data=0x00178793[0m
0x80002358: 00 17 87 93 addi	a5, a5, 1
[1;34m[src/memory/paddr.c:97 mtrace_log] R: 0x8000235c (len=4) data=0x00e68023[0m
[1;34m[src/memory/paddr.c:97 mtrace_log] W: 0xa00003f8 (len=1) data=0x00000020[0m
0x8000235c: 00 e6 80 23 sb	a4, 0(a3)
[1;34m[src/memory/paddr.c:97 mtrace_log] R: 0x80002360 (len=4) data=0x0007c703[0m
[1;34m[src/memory/paddr.c:97 mtrace_log] R: 0x8009551d (len=1) data=0x00000020[0m
0x80002360: 00 07 c7 03 lbu	a4, 0(a5)
[1;34m[src/memory/paddr.c:97 mtrace_log] R: 0x80002364 (len=4) data=0xfe071ae3[0m
0x80002364: fe 07 1a e3 bnez	a4, -0xc
[1;34m[src/memory/paddr.c:97 mtrace_log] R: 0x80002358 (len=4) data=0x00178793[0m
0x80002358: 00 17 87 93 addi	a5, a5, 1
[1;34m[src/memory/paddr.c:97 mtrace_log] R: 0x8000235c (len=4) data=0x00e68023[0m
[1;34m[src/memory/paddr.c:97 mtrace_log] W: 0xa00003f8 (len=1) data=0x00000020[0m
0x8000235c: 00 e6 80 23 sb	a4, 0(a3)
[1;34m[src/memory/paddr.c:97 mtrace_log] R: 0x80002360 (len=4) data=0x0007c703[0m
[1;34m[src/memory/paddr.c:97 mtrace_log] R: 0x8009551e (len=1) data=0x00000070[0m
0x80002360: 00 07 c7 03 lbu	a4, 0(a5)
[1;34m[src/memory/paddr.c:97 mtrace_log] R: 0x80002364 (len=4) data=0xfe071ae3[0m
0x80002364: fe 07 1a e3 bnez	a4, -0xc
[1;34m[src/memory/paddr.c:97 mtrace_log] R: 0x80002358 (len=4) data=0x00178793[0m
0x80002358: 00 17 87 93 addi	a5, a5, 1
[1;34m[src/memory/paddr.c:97 mtrace_log] R: 0x8000235c (len=4) data=0x00e68023[0m
[1;34m[src/memory/paddr.c:97 mtrace_log] W: 0xa00003f8 (len=1) data=0x00000070[0m
0x8000235c: 00 e6 80 23 sb	a4, 0(a3)
[1;34m[src/memory/paddr.c:97 mtrace_log] R: 0x80002360 (len=4) data=0x0007c703[0m
[1;34m[src/memory/paddr.c:97 mtrace_log] R: 0x8009551f (len=1) data=0x0000003a[0m
0x80002360: 00 07 c7 03 lbu	a4, 0(a5)
[1;34m[src/memory/paddr.c:97 mtrace_log] R: 0x80002364 (len=4) data=0xfe071ae3[0m
0x80002364: fe 07 1a e3 bnez	a4, -0xc
[1;34m[src/memory/paddr.c:97 mtrace_log] R: 0x80002358 (len=4) data=0x00178793[0m
0x80002358: 00 17 87 93 addi	a5, a5, 1
[1;34m[src/memory/paddr.c:97 mtrace_log] R: 0x8000235c (len=4) data=0x00e68023[0m
[1;34m[src/memory/paddr.c:97 mtrace_log] W: 0xa00003f8 (len=1) data=0x0000003a[0m
0x8000235c: 00 e6 80 23 sb	a4, 0(a3)
[1;34m[src/memory/paddr.c:97 mtrace_log] R: 0x80002360 (len=4) data=0x0007c703[0m
[1;34m[src/memory/paddr.c:97 mtrace_log] R: 0x80095520 (len=1) data=0x00000020[0m
0x80002360: 00 07 c7 03 lbu	a4, 0(a5)
[1;34m[src/memory/paddr.c:97 mtrace_log] R: 0x80002364 (len=4) data=0xfe071ae3[0m
0x80002364: fe 07 1a e3 bnez	a4, -0xc
[1;34m[src/memory/paddr.c:97 mtrace_log] R: 0x80002358 (len=4) data=0x00178793[0m
0x80002358: 00 17 87 93 addi	a5, a5, 1
[1;34m[src/memory/paddr.c:97 mtrace_log] R: 0x8000235c (len=4) data=0x00e68023[0m
[1;34m[src/memory/paddr.c:97 mtrace_log] W: 0xa00003f8 (len=1) data=0x00000020[0m
0x8000235c: 00 e6 80 23 sb	a4, 0(a3)
[1;34m[src/memory/paddr.c:97 mtrace_log] R: 0x80002360 (len=4) data=0x0007c703[0m
[1;34m[src/memory/paddr.c:97 mtrace_log] R: 0x80095521 (len=1) data=0x00000078[0m
0x80002360: 00 07 c7 03 lbu	a4, 0(a5)
[1;34m[src/memory/paddr.c:97 mtrace_log] R: 0x80002364 (len=4) data=0xfe071ae3[0m
0x80002364: fe 07 1a e3 bnez	a4, -0xc
[1;34m[src/memory/paddr.c:97 mtrace_log] R: 0x80002358 (len=4) data=0x00178793[0m
0x80002358: 00 17 87 93 addi	a5, a5, 1
[1;34m[src/memory/paddr.c:97 mtrace_log] R: 0x8000235c (len=4) data=0x00e68023[0m
[1;34m[src/memory/paddr.c:97 mtrace_log] W: 0xa00003f8 (len=1) data=0x00000078[0m
0x8000235c: 00 e6 80 23 sb	a4, 0(a3)
[1;34m[src/memory/paddr.c:97 mtrace_log] R: 0x80002360 (len=4) data=0x0007c703[0m
[1;34m[src/memory/paddr.c:97 mtrace_log] R: 0x80095522 (len=1) data=0x00000038[0m
0x80002360: 00 07 c7 03 lbu	a4, 0(a5)
[1;34m[src/memory/paddr.c:97 mtrace_log] R: 0x80002364 (len=4) data=0xfe071ae3[0m
0x80002364: fe 07 1a e3 bnez	a4, -0xc
[1;34m[src/memory/paddr.c:97 mtrace_log] R: 0x80002358 (len=4) data=0x00178793[0m
0x80002358: 00 17 87 93 addi	a5, a5, 1
[1;34m[src/memory/paddr.c:97 mtrace_log] R: 0x8000235c (len=4) data=0x00e68023[0m
[1;34m[src/memory/paddr.c:97 mtrace_log] W: 0xa00003f8 (len=1) data=0x00000038[0m
0x8000235c: 00 e6 80 23 sb	a4, 0(a3)
[1;34m[src/memory/paddr.c:97 mtrace_log] R: 0x80002360 (len=4) data=0x0007c703[0m
[1;34m[src/memory/paddr.c:97 mtrace_log] R: 0x80095523 (len=1) data=0x00000036[0m
0x80002360: 00 07 c7 03 lbu	a4, 0(a5)
[1;34m[src/memory/paddr.c:97 mtrace_log] R: 0x80002364 (len=4) data=0xfe071ae3[0m
0x80002364: fe 07 1a e3 bnez	a4, -0xc
[1;34m[src/memory/paddr.c:97 mtrace_log] R: 0x80002358 (len=4) data=0x00178793[0m
0x80002358: 00 17 87 93 addi	a5, a5, 1
[1;34m[src/memory/paddr.c:97 mtrace_log] R: 0x8000235c (len=4) data=0x00e68023[0m
[1;34m[src/memory/paddr.c:97 mtrace_log] W: 0xa00003f8 (len=1) data=0x00000036[0m
0x8000235c: 00 e6 80 23 sb	a4, 0(a3)
[1;34m[src/memory/paddr.c:97 mtrace_log] R: 0x80002360 (len=4) data=0x0007c703[0m
[1;34m[src/memory/paddr.c:97 mtrace_log] R: 0x80095524 (len=1) data=0x00000020[0m
0x80002360: 00 07 c7 03 lbu	a4, 0(a5)
[1;34m[src/memory/paddr.c:97 mtrace_log] R: 0x80002364 (len=4) data=0xfe071ae3[0m
0x80002364: fe 07 1a e3 bnez	a4, -0xc
[1;34m[src/memory/paddr.c:97 mtrace_log] R: 0x80002358 (len=4) data=0x00178793[0m
0x80002358: 00 17 87 93 addi	a5, a5, 1
[1;34m[src/memory/paddr.c:97 mtrace_log] R: 0x8000235c (len=4) data=0x00e68023[0m
[1;34m[src/memory/paddr.c:97 mtrace_log] W: 0xa00003f8 (len=1) data=0x00000020[0m
0x8000235c: 00 e6 80 23 sb	a4, 0(a3)
[1;34m[src/memory/paddr.c:97 mtrace_log] R: 0x80002360 (len=4) data=0x0007c703[0m
[1;34m[src/memory/paddr.c:97 mtrace_log] R: 0x80095525 (len=1) data=0x00000076[0m
0x80002360: 00 07 c7 03 lbu	a4, 0(a5)
[1;34m[src/memory/paddr.c:97 mtrace_log] R: 0x80002364 (len=4) data=0xfe071ae3[0m
0x80002364: fe 07 1a e3 bnez	a4, -0xc
[1;34m[src/memory/paddr.c:97 mtrace_log] R: 0x80002358 (len=4) data=0x00178793[0m
0x80002358: 00 17 87 93 addi	a5, a5, 1
[1;34m[src/memory/paddr.c:97 mtrace_log] R: 0x8000235c (len=4) data=0x00e68023[0m
[1;34m[src/memory/paddr.c:97 mtrace_log] W: 0xa00003f8 (len=1) data=0x00000076[0m
0x8000235c: 00 e6 80 23 sb	a4, 0(a3)
[1;34m[src/memory/paddr.c:97 mtrace_log] R: 0x80002360 (len=4) data=0x0007c703[0m
[1;34m[src/memory/paddr.c:97 mtrace_log] R: 0x80095526 (len=1) data=0x00000069[0m
0x80002360: 00 07 c7 03 lbu	a4, 0(a5)
[1;34m[src/memory/paddr.c:97 mtrace_log] R: 0x80002364 (len=4) data=0xfe071ae3[0m
0x80002364: fe 07 1a e3 bnez	a4, -0xc
[1;34m[src/memory/paddr.c:97 mtrace_log] R: 0x80002358 (len=4) data=0x00178793[0m
0x80002358: 00 17 87 93 addi	a5, a5, 1
[1;34m[src/memory/paddr.c:97 mtrace_log] R: 0x8000235c (len=4) data=0x00e68023[0m
[1;34m[src/memory/paddr.c:97 mtrace_log] W: 0xa00003f8 (len=1) data=0x00000069[0m
0x8000235c: 00 e6 80 23 sb	a4, 0(a3)
[1;34m[src/memory/paddr.c:97 mtrace_log] R: 0x80002360 (len=4) data=0x0007c703[0m
[1;34m[src/memory/paddr.c:97 mtrace_log] R: 0x80095527 (len=1) data=0x00000072[0m
0x80002360: 00 07 c7 03 lbu	a4, 0(a5)
[1;34m[src/memory/paddr.c:97 mtrace_log] R: 0x80002364 (len=4) data=0xfe071ae3[0m
0x80002364: fe 07 1a e3 bnez	a4, -0xc
[1;34m[src/memory/paddr.c:97 mtrace_log] R: 0x80002358 (len=4) data=0x00178793[0m
0x80002358: 00 17 87 93 addi	a5, a5, 1
[1;34m[src/memory/paddr.c:97 mtrace_log] R: 0x8000235c (len=4) data=0x00e68023[0m
[1;34m[src/memory/paddr.c:97 mtrace_log] W: 0xa00003f8 (len=1) data=0x00000072[0m
0x8000235c: 00 e6 80 23 sb	a4, 0(a3)
[1;34m[src/memory/paddr.c:97 mtrace_log] R: 0x80002360 (len=4) data=0x0007c703[0m
[1;34m[src/memory/paddr.c:97 mtrace_log] R: 0x80095528 (len=1) data=0x00000074[0m
0x80002360: 00 07 c7 03 lbu	a4, 0(a5)
[1;34m[src/memory/paddr.c:97 mtrace_log] R: 0x80002364 (len=4) data=0xfe071ae3[0m
0x80002364: fe 07 1a e3 bnez	a4, -0xc
[1;34m[src/memory/paddr.c:97 mtrace_log] R: 0x80002358 (len=4) data=0x00178793[0m
0x80002358: 00 17 87 93 addi	a5, a5, 1
[1;34m[src/memory/paddr.c:97 mtrace_log] R: 0x8000235c (len=4) data=0x00e68023[0m
[1;34m[src/memory/paddr.c:97 mtrace_log] W: 0xa00003f8 (len=1) data=0x00000074[0m
0x8000235c: 00 e6 80 23 sb	a4, 0(a3)
[1;34m[src/memory/paddr.c:97 mtrace_log] R: 0x80002360 (len=4) data=0x0007c703[0m
[1;34m[src/memory/paddr.c:97 mtrace_log] R: 0x80095529 (len=1) data=0x00000075[0m
0x80002360: 00 07 c7 03 lbu	a4, 0(a5)
[1;34m[src/memory/paddr.c:97 mtrace_log] R: 0x80002364 (len=4) data=0xfe071ae3[0m
0x80002364: fe 07 1a e3 bnez	a4, -0xc
[1;34m[src/memory/paddr.c:97 mtrace_log] R: 0x80002358 (len=4) data=0x00178793[0m
0x80002358: 00 17 87 93 addi	a5, a5, 1
[1;34m[src/memory/paddr.c:97 mtrace_log] R: 0x8000235c (len=4) data=0x00e68023[0m
[1;34m[src/memory/paddr.c:97 mtrace_log] W: 0xa00003f8 (len=1) data=0x00000075[0m
0x8000235c: 00 e6 80 23 sb	a4, 0(a3)
[1;34m[src/memory/paddr.c:97 mtrace_log] R: 0x80002360 (len=4) data=0x0007c703[0m
[1;34m[src/memory/paddr.c:97 mtrace_log] R: 0x8009552a (len=1) data=0x00000061[0m
0x80002360: 00 07 c7 03 lbu	a4, 0(a5)
[1;34m[src/memory/paddr.c:97 mtrace_log] R: 0x80002364 (len=4) data=0xfe071ae3[0m
0x80002364: fe 07 1a e3 bnez	a4, -0xc
[1;34m[src/memory/paddr.c:97 mtrace_log] R: 0x80002358 (len=4) data=0x00178793[0m
0x80002358: 00 17 87 93 addi	a5, a5, 1
[1;34m[src/memory/paddr.c:97 mtrace_log] R: 0x8000235c (len=4) data=0x00e68023[0m
[1;34m[src/memory/paddr.c:97 mtrace_log] W: 0xa00003f8 (len=1) data=0x00000061[0m
0x8000235c: 00 e6 80 23 sb	a4, 0(a3)
[1;34m[src/memory/paddr.c:97 mtrace_log] R: 0x80002360 (len=4) data=0x0007c703[0m
[1;34m[src/memory/paddr.c:97 mtrace_log] R: 0x8009552b (len=1) data=0x0000006c[0m
0x80002360: 00 07 c7 03 lbu	a4, 0(a5)
[1;34m[src/memory/paddr.c:97 mtrace_log] R: 0x80002364 (len=4) data=0xfe071ae3[0m
0x80002364: fe 07 1a e3 bnez	a4, -0xc
[1;34m[src/memory/paddr.c:97 mtrace_log] R: 0x80002358 (len=4) data=0x00178793[0m
0x80002358: 00 17 87 93 addi	a5, a5, 1
[1;34m[src/memory/paddr.c:97 mtrace_log] R: 0x8000235c (len=4) data=0x00e68023[0m
[1;34m[src/memory/paddr.c:97 mtrace_log] W: 0xa00003f8 (len=1) data=0x0000006c[0m
0x8000235c: 00 e6 80 23 sb	a4, 0(a3)
[1;34m[src/memory/paddr.c:97 mtrace_log] R: 0x80002360 (len=4) data=0x0007c703[0m
[1;34m[src/memory/paddr.c:97 mtrace_log] R: 0x8009552c (len=1) data=0x00000020[0m
0x80002360: 00 07 c7 03 lbu	a4, 0(a5)
[1;34m[src/memory/paddr.c:97 mtrace_log] R: 0x80002364 (len=4) data=0xfe071ae3[0m
0x80002364: fe 07 1a e3 bnez	a4, -0xc
[1;34m[src/memory/paddr.c:97 mtrace_log] R: 0x80002358 (len=4) data=0x00178793[0m
0x80002358: 00 17 87 93 addi	a5, a5, 1
[1;34m[src/memory/paddr.c:97 mtrace_log] R: 0x8000235c (len=4) data=0x00e68023[0m
[1;34m[src/memory/paddr.c:97 mtrace_log] W: 0xa00003f8 (len=1) data=0x00000020[0m
0x8000235c: 00 e6 80 23 sb	a4, 0(a3)
[1;34m[src/memory/paddr.c:97 mtrace_log] R: 0x80002360 (len=4) data=0x0007c703[0m
[1;34m[src/memory/paddr.c:97 mtrace_log] R: 0x8009552d (len=1) data=0x0000006d[0m
0x80002360: 00 07 c7 03 lbu	a4, 0(a5)
[1;34m[src/memory/paddr.c:97 mtrace_log] R: 0x80002364 (len=4) data=0xfe071ae3[0m
0x80002364: fe 07 1a e3 bnez	a4, -0xc
[1;34m[src/memory/paddr.c:97 mtrace_log] R: 0x80002358 (len=4) data=0x00178793[0m
0x80002358: 00 17 87 93 addi	a5, a5, 1
[1;34m[src/memory/paddr.c:97 mtrace_log] R: 0x8000235c (len=4) data=0x00e68023[0m
[1;34m[src/memory/paddr.c:97 mtrace_log] W: 0xa00003f8 (len=1) data=0x0000006d[0m
0x8000235c: 00 e6 80 23 sb	a4, 0(a3)
[1;34m[src/memory/paddr.c:97 mtrace_log] R: 0x80002360 (len=4) data=0x0007c703[0m
[1;34m[src/memory/paddr.c:97 mtrace_log] R: 0x8009552e (len=1) data=0x00000065[0m
0x80002360: 00 07 c7 03 lbu	a4, 0(a5)
[1;34m[src/memory/paddr.c:97 mtrace_log] R: 0x80002364 (len=4) data=0xfe071ae3[0m
0x80002364: fe 07 1a e3 bnez	a4, -0xc
[1;34m[src/memory/paddr.c:97 mtrace_log] R: 0x80002358 (len=4) data=0x00178793[0m
0x80002358: 00 17 87 93 addi	a5, a5, 1
[1;34m[src/memory/paddr.c:97 mtrace_log] R: 0x8000235c (len=4) data=0x00e68023[0m
[1;34m[src/memory/paddr.c:97 mtrace_log] W: 0xa00003f8 (len=1) data=0x00000065[0m
0x8000235c: 00 e6 80 23 sb	a4, 0(a3)
[1;34m[src/memory/paddr.c:97 mtrace_log] R: 0x80002360 (len=4) data=0x0007c703[0m
[1;34m[src/memory/paddr.c:97 mtrace_log] R: 0x8009552f (len=1) data=0x0000006d[0m
0x80002360: 00 07 c7 03 lbu	a4, 0(a5)
[1;34m[src/memory/paddr.c:97 mtrace_log] R: 0x80002364 (len=4) data=0xfe071ae3[0m
0x80002364: fe 07 1a e3 bnez	a4, -0xc
[1;34m[src/memory/paddr.c:97 mtrace_log] R: 0x80002358 (len=4) data=0x00178793[0m
0x80002358: 00 17 87 93 addi	a5, a5, 1
[1;34m[src/memory/paddr.c:97 mtrace_log] R: 0x8000235c (len=4) data=0x00e68023[0m
[1;34m[src/memory/paddr.c:97 mtrace_log] W: 0xa00003f8 (len=1) data=0x0000006d[0m
0x8000235c: 00 e6 80 23 sb	a4, 0(a3)
[1;34m[src/memory/paddr.c:97 mtrace_log] R: 0x80002360 (len=4) data=0x0007c703[0m
[1;34m[src/memory/paddr.c:97 mtrace_log] R: 0x80095530 (len=1) data=0x0000006f[0m
0x80002360: 00 07 c7 03 lbu	a4, 0(a5)
[1;34m[src/memory/paddr.c:97 mtrace_log] R: 0x80002364 (len=4) data=0xfe071ae3[0m
0x80002364: fe 07 1a e3 bnez	a4, -0xc
[1;34m[src/memory/paddr.c:97 mtrace_log] R: 0x80002358 (len=4) data=0x00178793[0m
0x80002358: 00 17 87 93 addi	a5, a5, 1
[1;34m[src/memory/paddr.c:97 mtrace_log] R: 0x8000235c (len=4) data=0x00e68023[0m
[1;34m[src/memory/paddr.c:97 mtrace_log] W: 0xa00003f8 (len=1) data=0x0000006f[0m
0x8000235c: 00 e6 80 23 sb	a4, 0(a3)
[1;34m[src/memory/paddr.c:97 mtrace_log] R: 0x80002360 (len=4) data=0x0007c703[0m
[1;34m[src/memory/paddr.c:97 mtrace_log] R: 0x80095531 (len=1) data=0x00000072[0m
0x80002360: 00 07 c7 03 lbu	a4, 0(a5)
[1;34m[src/memory/paddr.c:97 mtrace_log] R: 0x80002364 (len=4) data=0xfe071ae3[0m
0x80002364: fe 07 1a e3 bnez	a4, -0xc
[1;34m[src/memory/paddr.c:97 mtrace_log] R: 0x80002358 (len=4) data=0x00178793[0m
0x80002358: 00 17 87 93 addi	a5, a5, 1
[1;34m[src/memory/paddr.c:97 mtrace_log] R: 0x8000235c (len=4) data=0x00e68023[0m
[1;34m[src/memory/paddr.c:97 mtrace_log] W: 0xa00003f8 (len=1) data=0x00000072[0m
0x8000235c: 00 e6 80 23 sb	a4, 0(a3)
[1;34m[src/memory/paddr.c:97 mtrace_log] R: 0x80002360 (len=4) data=0x0007c703[0m
[1;34m[src/memory/paddr.c:97 mtrace_log] R: 0x80095532 (len=1) data=0x00000079[0m
0x80002360: 00 07 c7 03 lbu	a4, 0(a5)
[1;34m[src/memory/paddr.c:97 mtrace_log] R: 0x80002364 (len=4) data=0xfe071ae3[0m
0x80002364: fe 07 1a e3 bnez	a4, -0xc
[1;34m[src/memory/paddr.c:97 mtrace_log] R: 0x80002358 (len=4) data=0x00178793[0m
0x80002358: 00 17 87 93 addi	a5, a5, 1
[1;34m[src/memory/paddr.c:97 mtrace_log] R: 0x8000235c (len=4) data=0x00e68023[0m
[1;34m[src/memory/paddr.c:97 mtrace_log] W: 0xa00003f8 (len=1) data=0x00000079[0m
0x8000235c: 00 e6 80 23 sb	a4, 0(a3)
[1;34m[src/memory/paddr.c:97 mtrace_log] R: 0x80002360 (len=4) data=0x0007c703[0m
[1;34m[src/memory/paddr.c:97 mtrace_log] R: 0x80095533 (len=1) data=0x00000020[0m
0x80002360: 00 07 c7 03 lbu	a4, 0(a5)
[1;34m[src/memory/paddr.c:97 mtrace_log] R: 0x80002364 (len=4) data=0xfe071ae3[0m
0x80002364: fe 07 1a e3 bnez	a4, -0xc
[1;34m[src/memory/paddr.c:97 mtrace_log] R: 0x80002358 (len=4) data=0x00178793[0m
0x80002358: 00 17 87 93 addi	a5, a5, 1
[1;34m[src/memory/paddr.c:97 mtrace_log] R: 0x8000235c (len=4) data=0x00e68023[0m
[1;34m[src/memory/paddr.c:97 mtrace_log] W: 0xa00003f8 (len=1) data=0x00000020[0m
0x8000235c: 00 e6 80 23 sb	a4, 0(a3)
[1;34m[src/memory/paddr.c:97 mtrace_log] R: 0x80002360 (len=4) data=0x0007c703[0m
[1;34m[src/memory/paddr.c:97 mtrace_log] R: 0x80095534 (len=1) data=0x00000074[0m
0x80002360: 00 07 c7 03 lbu	a4, 0(a5)
[1;34m[src/memory/paddr.c:97 mtrace_log] R: 0x80002364 (len=4) data=0xfe071ae3[0m
0x80002364: fe 07 1a e3 bnez	a4, -0xc
[1;34m[src/memory/paddr.c:97 mtrace_log] R: 0x80002358 (len=4) data=0x00178793[0m
0x80002358: 00 17 87 93 addi	a5, a5, 1
[1;34m[src/memory/paddr.c:97 mtrace_log] R: 0x8000235c (len=4) data=0x00e68023[0m
[1;34m[src/memory/paddr.c:97 mtrace_log] W: 0xa00003f8 (len=1) data=0x00000074[0m
0x8000235c: 00 e6 80 23 sb	a4, 0(a3)
[1;34m[src/memory/paddr.c:97 mtrace_log] R: 0x80002360 (len=4) data=0x0007c703[0m
[1;34m[src/memory/paddr.c:97 mtrace_log] R: 0x80095535 (len=1) data=0x00000065[0m
0x80002360: 00 07 c7 03 lbu	a4, 0(a5)
[1;34m[src/memory/paddr.c:97 mtrace_log] R: 0x80002364 (len=4) data=0xfe071ae3[0m
0x80002364: fe 07 1a e3 bnez	a4, -0xc
[1;34m[src/memory/paddr.c:97 mtrace_log] R: 0x80002358 (len=4) data=0x00178793[0m
0x80002358: 00 17 87 93 addi	a5, a5, 1
[1;34m[src/memory/paddr.c:97 mtrace_log] R: 0x8000235c (len=4) data=0x00e68023[0m
[1;34m[src/memory/paddr.c:97 mtrace_log] W: 0xa00003f8 (len=1) data=0x00000065[0m
0x8000235c: 00 e6 80 23 sb	a4, 0(a3)
[1;34m[src/memory/paddr.c:97 mtrace_log] R: 0x80002360 (len=4) data=0x0007c703[0m
[1;34m[src/memory/paddr.c:97 mtrace_log] R: 0x80095536 (len=1) data=0x00000073[0m
0x80002360: 00 07 c7 03 lbu	a4, 0(a5)
[1;34m[src/memory/paddr.c:97 mtrace_log] R: 0x80002364 (len=4) data=0xfe071ae3[0m
0x80002364: fe 07 1a e3 bnez	a4, -0xc
[1;34m[src/memory/paddr.c:97 mtrace_log] R: 0x80002358 (len=4) data=0x00178793[0m
0x80002358: 00 17 87 93 addi	a5, a5, 1
[1;34m[src/memory/paddr.c:97 mtrace_log] R: 0x8000235c (len=4) data=0x00e68023[0m
[1;34m[src/memory/paddr.c:97 mtrace_log] W: 0xa00003f8 (len=1) data=0x00000073[0m
0x8000235c: 00 e6 80 23 sb	a4, 0(a3)
[1;34m[src/memory/paddr.c:97 mtrace_log] R: 0x80002360 (len=4) data=0x0007c703[0m
[1;34m[src/memory/paddr.c:97 mtrace_log] R: 0x80095537 (len=1) data=0x00000074[0m
0x80002360: 00 07 c7 03 lbu	a4, 0(a5)
[1;34m[src/memory/paddr.c:97 mtrace_log] R: 0x80002364 (len=4) data=0xfe071ae3[0m
0x80002364: fe 07 1a e3 bnez	a4, -0xc
[1;34m[src/memory/paddr.c:97 mtrace_log] R: 0x80002358 (len=4) data=0x00178793[0m
0x80002358: 00 17 87 93 addi	a5, a5, 1
[1;34m[src/memory/paddr.c:97 mtrace_log] R: 0x8000235c (len=4) data=0x00e68023[0m
[1;34m[src/memory/paddr.c:97 mtrace_log] W: 0xa00003f8 (len=1) data=0x00000074[0m
0x8000235c: 00 e6 80 23 sb	a4, 0(a3)
[1;34m[src/memory/paddr.c:97 mtrace_log] R: 0x80002360 (len=4) data=0x0007c703[0m
[1;34m[src/memory/paddr.c:97 mtrace_log] R: 0x80095538 (len=1) data=0x0000000a[0m
0x80002360: 00 07 c7 03 lbu	a4, 0(a5)
[1;34m[src/memory/paddr.c:97 mtrace_log] R: 0x80002364 (len=4) data=0xfe071ae3[0m
0x80002364: fe 07 1a e3 bnez	a4, -0xc
[1;34m[src/memory/paddr.c:97 mtrace_log] R: 0x80002358 (len=4) data=0x00178793[0m
0x80002358: 00 17 87 93 addi	a5, a5, 1
[1;34m[src/memory/paddr.c:97 mtrace_log] R: 0x8000235c (len=4) data=0x00e68023[0m
[1;34m[src/memory/paddr.c:97 mtrace_log] W: 0xa00003f8 (len=1) data=0x0000000a[0m
0x8000235c: 00 e6 80 23 sb	a4, 0(a3)
[1;34m[src/memory/paddr.c:97 mtrace_log] R: 0x80002360 (len=4) data=0x0007c703[0m
[1;34m[src/memory/paddr.c:97 mtrace_log] R: 0x80095539 (len=1) data=0x00000000[0m
0x80002360: 00 07 c7 03 lbu	a4, 0(a5)
[1;34m[src/memory/paddr.c:97 mtrace_log] R: 0x80002364 (len=4) data=0xfe071ae3[0m
0x80002364: fe 07 1a e3 bnez	a4, -0xc
[1;34m[src/memory/paddr.c:97 mtrace_log] R: 0x80002368 (len=4) data=0x01c12083[0m
[1;34m[src/memory/paddr.c:97 mtrace_log] R: 0x8009dfac (len=4) data=0x80000e90[0m
0x80002368: 01 c1 20 83 lw	ra, 0x1c(sp)
[1;34m[src/memory/paddr.c:97 mtrace_log] R: 0x8000236c (len=4) data=0x04010113[0m
0x8000236c: 04 01 01 13 addi	sp, sp, 0x40
[1;34m[src/memory/paddr.c:97 mtrace_log] R: 0x80002370 (len=4) data=0x00008067[0m
0x80002370: 00 00 80 67 ret
[1;34m[src/memory/paddr.c:97 mtrace_log] R: 0x80000e90 (len=4) data=0x00140413[0m
0x80000e90: 00 14 04 13 addi	s0, s0, 1
[1;34m[src/memory/paddr.c:97 mtrace_log] R: 0x80000e94 (len=4) data=0x00448493[0m
0x80000e94: 00 44 84 93 addi	s1, s1, 4
[1;34m[src/memory/paddr.c:97 mtrace_log] R: 0x80000e98 (len=4) data=0xff2412e3[0m
0x80000e98: ff 24 12 e3 bne	s0, s2, -0x1c
[1;34m[src/memory/paddr.c:97 mtrace_log] R: 0x80000e7c (len=4) data=0x0004a603[0m
[1;34m[src/memory/paddr.c:97 mtrace_log] R: 0x80002ebc (len=4) data=0x00000000[0m
0x80000e7c: 00 04 a6 03 lw	a2, 0(s1)
[1;34m[src/memory/paddr.c:97 mtrace_log] R: 0x80000e80 (len=4) data=0x00060863[0m
0x80000e80: 00 06 08 63 beqz	a2, 0x10
[1;34m[src/memory/paddr.c:97 mtrace_log] R: 0x80000e90 (len=4) data=0x00140413[0m
0x80000e90: 00 14 04 13 addi	s0, s0, 1
[1;34m[src/memory/paddr.c:97 mtrace_log] R: 0x80000e94 (len=4) data=0x00448493[0m
0x80000e94: 00 44 84 93 addi	s1, s1, 4
[1;34m[src/memory/paddr.c:97 mtrace_log] R: 0x80000e98 (len=4) data=0xff2412e3[0m
0x80000e98: ff 24 12 e3 bne	s0, s2, -0x1c
[1;34m[src/memory/paddr.c:97 mtrace_log] R: 0x80000e7c (len=4) data=0x0004a603[0m
[1;34m[src/memory/paddr.c:97 mtrace_log] R: 0x80002ec0 (len=4) data=0x00000000[0m
0x80000e7c: 00 04 a6 03 lw	a2, 0(s1)
[1;34m[src/memory/paddr.c:97 mtrace_log] R: 0x80000e80 (len=4) data=0x00060863[0m
0x80000e80: 00 06 08 63 beqz	a2, 0x10
[1;34m[src/memory/paddr.c:97 mtrace_log] R: 0x80000e90 (len=4) data=0x00140413[0m
0x80000e90: 00 14 04 13 addi	s0, s0, 1
[1;34m[src/memory/paddr.c:97 mtrace_log] R: 0x80000e94 (len=4) data=0x00448493[0m
0x80000e94: 00 44 84 93 addi	s1, s1, 4
[1;34m[src/memory/paddr.c:97 mtrace_log] R: 0x80000e98 (len=4) data=0xff2412e3[0m
0x80000e98: ff 24 12 e3 bne	s0, s2, -0x1c
[1;34m[src/memory/paddr.c:97 mtrace_log] R: 0x80000e7c (len=4) data=0x0004a603[0m
[1;34m[src/memory/paddr.c:97 mtrace_log] R: 0x80002ec4 (len=4) data=0x00000000[0m
0x80000e7c: 00 04 a6 03 lw	a2, 0(s1)
[1;34m[src/memory/paddr.c:97 mtrace_log] R: 0x80000e80 (len=4) data=0x00060863[0m
0x80000e80: 00 06 08 63 beqz	a2, 0x10
[1;34m[src/memory/paddr.c:97 mtrace_log] R: 0x80000e90 (len=4) data=0x00140413[0m
0x80000e90: 00 14 04 13 addi	s0, s0, 1
[1;34m[src/memory/paddr.c:97 mtrace_log] R: 0x80000e94 (len=4) data=0x00448493[0m
0x80000e94: 00 44 84 93 addi	s1, s1, 4
[1;34m[src/memory/paddr.c:97 mtrace_log] R: 0x80000e98 (len=4) data=0xff2412e3[0m
0x80000e98: ff 24 12 e3 bne	s0, s2, -0x1c
[1;34m[src/memory/paddr.c:97 mtrace_log] R: 0x80000e7c (len=4) data=0x0004a603[0m
[1;34m[src/memory/paddr.c:97 mtrace_log] R: 0x80002ec8 (len=4) data=0x800029b4[0m
0x80000e7c: 00 04 a6 03 lw	a2, 0(s1)
[1;34m[src/memory/paddr.c:97 mtrace_log] R: 0x80000e80 (len=4) data=0x00060863[0m
0x80000e80: 00 06 08 63 beqz	a2, 0x10
[1;34m[src/memory/paddr.c:97 mtrace_log] R: 0x80000e84 (len=4) data=0x00040593[0m
0x80000e84: 00 04 05 93 mv	a1, s0
[1;34m[src/memory/paddr.c:97 mtrace_log] R: 0x80000e88 (len=4) data=0x00098513[0m
0x80000e88: 00 09 85 13 mv	a0, s3
[1;34m[src/memory/paddr.c:97 mtrace_log] R: 0x80000e8c (len=4) data=0x474010ef[0m
0x80000e8c: 47 40 10 ef jal	0x1474
[1;34m[src/memory/paddr.c:97 mtrace_log] R: 0x80002300 (len=4) data=0xfc010113[0m
0x80002300: fc 01 01 13 addi	sp, sp, -0x40
[1;34m[src/memory/paddr.c:97 mtrace_log] R: 0x80002304 (len=4) data=0x02410313[0m
0x80002304: 02 41 03 13 addi	t1, sp, 0x24
[1;34m[src/memory/paddr.c:97 mtrace_log] R: 0x80002308 (len=4) data=0x02b12223[0m
[1;34m[src/memory/paddr.c:97 mtrace_log] W: 0x8009dfb4 (len=4) data=0x00000074[0m
0x80002308: 02 b1 22 23 sw	a1, 0x24(sp)
[1;34m[src/memory/paddr.c:97 mtrace_log] R: 0x8000230c (len=4) data=0x02c12423[0m
[1;34m[src/memory/paddr.c:97 mtrace_log] W: 0x8009dfb8 (len=4) data=0x800029b4[0m
0x8000230c: 02 c1 24 23 sw	a2, 0x28(sp)
[1;34m[src/memory/paddr.c:97 mtrace_log] R: 0x80002310 (len=4) data=0x00050593[0m
0x80002310: 00 05 05 93 mv	a1, a0
[1;34m[src/memory/paddr.c:97 mtrace_log] R: 0x80002314 (len=4) data=0x00030613[0m
0x80002314: 00 03 06 13 mv	a2, t1
[1;34m[src/memory/paddr.c:97 mtrace_log] R: 0x80002318 (len=4) data=0x00093517[0m
0x80002318: 00 09 35 17 auipc	a0, 0x93
[1;34m[src/memory/paddr.c:97 mtrace_log] R: 0x8000231c (len=4) data=0x20450513[0m
0x8000231c: 20 45 05 13 addi	a0, a0, 0x204
[1;34m[src/memory/paddr.c:97 mtrace_log] R: 0x80002320 (len=4) data=0x02e12823[0m
[1;34m[src/memory/paddr.c:97 mtrace_log] W: 0x8009dfc0 (len=4) data=0x00000000[0m
0x80002320: 02 e1 28 23 sw	a4, 0x30(sp)
[1;34m[src/memory/paddr.c:97 mtrace_log] R: 0x80002324 (len=4) data=0x02f12a23[0m
[1;34m[src/memory/paddr.c:97 mtrace_log] W: 0x8009dfc4 (len=4) data=0x80095539[0m
0x80002324: 02 f1 2a 23 sw	a5, 0x34(sp)
[1;34m[src/memory/paddr.c:97 mtrace_log] R: 0x80002328 (len=4) data=0x00112e23[0m
[1;34m[src/memory/paddr.c:97 mtrace_log] W: 0x8009dfac (len=4) data=0x80000e90[0m
0x80002328: 00 11 2e 23 sw	ra, 0x1c(sp)
[1;34m[src/memory/paddr.c:97 mtrace_log] R: 0x8000232c (len=4) data=0x02d12623[0m
[1;34m[src/memory/paddr.c:97 mtrace_log] W: 0x8009dfbc (len=4) data=0xa00003f8[0m
0x8000232c: 02 d1 26 23 sw	a3, 0x2c(sp)
[1;34m[src/memory/paddr.c:97 mtrace_log] R: 0x80002330 (len=4) data=0x03012c23[0m
[1;34m[src/memory/paddr.c:97 mtrace_log] W: 0x8009dfc8 (len=4) data=0x800032b4[0m
0x80002330: 03 01 2c 23 sw	a6, 0x38(sp)
[1;34m[src/memory/paddr.c:97 mtrace_log] R: 0x80002334 (len=4) data=0x03112e23[0m
[1;34m[src/memory/paddr.c:97 mtrace_log] W: 0x8009dfcc (len=4) data=0x00000000[0m
0x80002334: 03 11 2e 23 sw	a7, 0x3c(sp)
[1;34m[src/memory/paddr.c:97 mtrace_log] R: 0x80002338 (len=4) data=0x00612623[0m
[1;34m[src/memory/paddr.c:97 mtrace_log] W: 0x8009df9c (len=4) data=0x8009dfb4[0m
0x80002338: 00 61 26 23 sw	t1, 0xc(sp)
[1;34m[src/memory/paddr.c:97 mtrace_log] R: 0x8000233c (len=4) data=0xad5ff0ef[0m
0x8000233c: ad 5f f0 ef jal	-0x52c
[1;34m[src/memory/paddr.c:97 mtrace_log] R: 0x80001e10 (len=4) data=0xfb010113[0m
0x80001e10: fb 01 01 13 addi	sp, sp, -0x50
[1;34m[src/memory/paddr.c:97 mtrace_log] R: 0x80001e14 (len=4) data=0x03612823[0m
[1;34m[src/memory/paddr.c:97 mtrace_log] W: 0x8009df70 (len=4) data=0x00000000[0m
0x80001e14: 03 61 28 23 sw	s6, 0x30(sp)
[1;34m[src/memory/paddr.c:97 mtrace_log] R: 0x80001e18 (len=4) data=0x04112623[0m
[1;34m[src/memory/paddr.c:97 mtrace_log] W: 0x8009df8c (len=4) data=0x80002340[0m
0x80001e18: 04 11 26 23 sw	ra, 0x4c(sp)
[1;34m[src/memory/paddr.c:97 mtrace_log] R: 0x80001e1c (len=4) data=0x04912223[0m
[1;34m[src/memory/paddr.c:97 mtrace_log] W: 0x8009df84 (len=4) data=0x80002ec8[0m
0x80001e1c: 04 91 22 23 sw	s1, 0x44(sp)
[1;34m[src/memory/paddr.c:97 mtrace_log] R: 0x80001e20 (len=4) data=0x0005c783[0m
[1;34m[src/memory/paddr.c:97 mtrace_log] R: 0x80002914 (len=1) data=0x00000020[0m
0x80001e20: 00 05 c7 83 lbu	a5, 0(a1)
[1;34m[src/memory/paddr.c:97 mtrace_log] R: 0x80001e24 (len=4) data=0x00050b13[0m
0x80001e24: 00 05 0b 13 mv	s6, a0
[1;34m[src/memory/paddr.c:97 mtrace_log] R: 0x80001e28 (len=4) data=0x44078a63[0m
0x80001e28: 44 07 8a 63 beqz	a5, 0x454
[1;34m[src/memory/paddr.c:97 mtrace_log] R: 0x80001e2c (len=4) data=0x05212023[0m
[1;34m[src/memory/paddr.c:97 mtrace_log] W: 0x8009df80 (len=4) data=0x00000100[0m
0x80001e2c: 05 21 20 23 sw	s2, 0x40(sp)
[1;34m[src/memory/paddr.c:97 mtrace_log] R: 0x80001e30 (len=4) data=0x03312e23[0m
[1;34m[src/memory/paddr.c:97 mtrace_log] W: 0x8009df7c (len=4) data=0x80002914[0m
0x80001e30: 03 31 2e 23 sw	s3, 0x3c(sp)
[1;34m[src/memory/paddr.c:97 mtrace_log] R: 0x80001e34 (len=4) data=0x03412c23[0m
[1;34m[src/memory/paddr.c:97 mtrace_log] W: 0x8009df78 (len=4) data=0x00000000[0m
0x80001e34: 03 41 2c 23 sw	s4, 0x38(sp)
[1;34m[src/memory/paddr.c:97 mtrace_log] R: 0x80001e38 (len=4) data=0x03512a23[0m
[1;34m[src/memory/paddr.c:97 mtrace_log] W: 0x8009df74 (len=4) data=0x00000000[0m
0x80001e38: 03 51 2a 23 sw	s5, 0x34(sp)
[1;34m[src/memory/paddr.c:97 mtrace_log] R: 0x80001e3c (len=4) data=0x03712623[0m
[1;34m[src/memory/paddr.c:97 mtrace_log] W: 0x8009df6c (len=4) data=0x00000000[0m
0x80001e3c: 03 71 26 23 sw	s7, 0x2c(sp)
[1;34m[src/memory/paddr.c:97 mtrace_log] R: 0x80001e40 (len=4) data=0x03812423[0m
[1;34m[src/memory/paddr.c:97 mtrace_log] W: 0x8009df68 (len=4) data=0x00000000[0m
0x80001e40: 03 81 24 23 sw	s8, 0x28(sp)
[1;34m[src/memory/paddr.c:97 mtrace_log] R: 0x80001e44 (len=4) data=0x03912223[0m
[1;34m[src/memory/paddr.c:97 mtrace_log] W: 0x8009df64 (len=4) data=0x00000000[0m
0x80001e44: 03 91 22 23 sw	s9, 0x24(sp)
[1;34m[src/memory/paddr.c:97 mtrace_log] R: 0x80001e48 (len=4) data=0x03a12023[0m
[1;34m[src/memory/paddr.c:97 mtrace_log] W: 0x8009df60 (len=4) data=0x00000000[0m
0x80001e48: 03 a1 20 23 sw	s10, 0x20(sp)
[1;34m[src/memory/paddr.c:97 mtrace_log] R: 0x80001e4c (len=4) data=0x04812423[0m
[1;34m[src/memory/paddr.c:97 mtrace_log] W: 0x8009df88 (len=4) data=0x00000074[0m
0x80001e4c: 04 81 24 23 sw	s0, 0x48(sp)
[1;34m[src/memory/paddr.c:97 mtrace_log] R: 0x80001e50 (len=4) data=0x00060a13[0m
0x80001e50: 00 06 0a 13 mv	s4, a2
[1;34m[src/memory/paddr.c:97 mtrace_log] R: 0x80001e54 (len=4) data=0x00050493[0m
0x80001e54: 00 05 04 93 mv	s1, a0
[1;34m[src/memory/paddr.c:97 mtrace_log] R: 0x80001e58 (len=4) data=0x02500a93[0m
0x80001e58: 02 50 0a 93 addi	s5, zero, 0x25
[1;34m[src/memory/paddr.c:97 mtrace_log] R: 0x80001e5c (len=4) data=0x01000993[0m
0x80001e5c: 01 00 09 93 addi	s3, zero, 0x10
[1;34m[src/memory/paddr.c:97 mtrace_log] R: 0x80001e60 (len=4) data=0x00001917[0m
0x80001e60: 00 00 19 17 auipc	s2, 1
[1;34m[src/memory/paddr.c:97 mtrace_log] R: 0x80001e64 (len=4) data=0x2d890913[0m
0x80001e64: 2d 89 09 13 addi	s2, s2, 0x2d8
[1;34m[src/memory/paddr.c:97 mtrace_log] R: 0x80001e68 (len=4) data=0x00900d13[0m
0x80001e68: 00 90 0d 13 addi	s10, zero, 9
[1;34m[src/memory/paddr.c:97 mtrace_log] R: 0x80001e6c (len=4) data=0x02e00c93[0m
0x80001e6c: 02 e0 0c 93 addi	s9, zero, 0x2e
[1;34m[src/memory/paddr.c:97 mtrace_log] R: 0x80001e70 (len=4) data=0x06800c13[0m
0x80001e70: 06 80 0c 13 addi	s8, zero, 0x68
[1;34m[src/memory/paddr.c:97 mtrace_log] R: 0x80001e74 (len=4) data=0x00001b97[0m
0x80001e74: 00 00 1b 97 auipc	s7, 1
[1;34m[src/memory/paddr.c:97 mtrace_log] R: 0x80001e78 (len=4) data=0x308b8b93[0m
0x80001e78: 30 8b 8b 93 addi	s7, s7, 0x308
[1;34m[src/memory/paddr.c:97 mtrace_log] R: 0x80001e7c (len=4) data=0x05578c63[0m
0x80001e7c: 05 57 8c 63 beq	a5, s5, 0x58
[1;34m[src/memory/paddr.c:97 mtrace_log] R: 0x80001e80 (len=4) data=0x00f48023[0m
[1;34m[src/memory/paddr.c:97 mtrace_log] W: 0x8009551c (len=1) data=0x00000020[0m
0x80001e80: 00 f4 80 23 sb	a5, 0(s1)
[1;34m[src/memory/paddr.c:97 mtrace_log] R: 0x80001e84 (len=4) data=0x0015c783[0m
[1;34m[src/memory/paddr.c:97 mtrace_log] R: 0x80002915 (len=1) data=0x00000020[0m
0x80001e84: 00 15 c7 83 lbu	a5, 1(a1)
[1;34m[src/memory/paddr.c:97 mtrace_log] R: 0x80001e88 (len=4) data=0x00148493[0m
0x80001e88: 00 14 84 93 addi	s1, s1, 1
[1;34m[src/memory/paddr.c:97 mtrace_log] R: 0x80001e8c (len=4) data=0x00158593[0m
0x80001e8c: 00 15 85 93 addi	a1, a1, 1
[1;34m[src/memory/paddr.c:97 mtrace_log] R: 0x80001e90 (len=4) data=0xfe0796e3[0m
0x80001e90: fe 07 96 e3 bnez	a5, -0x14
[1;34m[src/memory/paddr.c:97 mtrace_log] R: 0x80001e7c (len=4) data=0x05578c63[0m
0x80001e7c: 05 57 8c 63 beq	a5, s5, 0x58
[1;34m[src/memory/paddr.c:97 mtrace_log] R: 0x80001e80 (len=4) data=0x00f48023[0m
[1;34m[src/memory/paddr.c:97 mtrace_log] W: 0x8009551d (len=1) data=0x00000020[0m
0x80001e80: 00 f4 80 23 sb	a5, 0(s1)
[1;34m[src/memory/paddr.c:97 mtrace_log] R: 0x80001e84 (len=4) data=0x0015c783[0m
[1;34m[src/memory/paddr.c:97 mtrace_log] R: 0x80002916 (len=1) data=0x00000025[0m
0x80001e84: 00 15 c7 83 lbu	a5, 1(a1)
[1;34m[src/memory/paddr.c:97 mtrace_log] R: 0x80001e88 (len=4) data=0x00148493[0m
0x80001e88: 00 14 84 93 addi	s1, s1, 1
[1;34m[src/memory/paddr.c:97 mtrace_log] R: 0x80001e8c (len=4) data=0x00158593[0m
0x80001e8c: 00 15 85 93 addi	a1, a1, 1
[1;34m[src/memory/paddr.c:97 mtrace_log] R: 0x80001e90 (len=4) data=0xfe0796e3[0m
0x80001e90: fe 07 96 e3 bnez	a5, -0x14
[1;34m[src/memory/paddr.c:97 mtrace_log] R: 0x80001e7c (len=4) data=0x05578c63[0m
0x80001e7c: 05 57 8c 63 beq	a5, s5, 0x58
[1;34m[src/memory/paddr.c:97 mtrace_log] R: 0x80001ed4 (len=4) data=0x00000793[0m
0x80001ed4: 00 00 07 93 mv	a5, zero
[1;34m[src/memory/paddr.c:97 mtrace_log] R: 0x80001ed8 (len=4) data=0x0015c803[0m
[1;34m[src/memory/paddr.c:97 mtrace_log] R: 0x80002917 (len=1) data=0x00000063[0m
0x80001ed8: 00 15 c8 03 lbu	a6, 1(a1)
[1;34m[src/memory/paddr.c:97 mtrace_log] R: 0x80001edc (len=4) data=0x00158413[0m
0x80001edc: 00 15 84 13 addi	s0, a1, 1
[1;34m[src/memory/paddr.c:97 mtrace_log] R: 0x80001ee0 (len=4) data=0xfe080713[0m
0x80001ee0: fe 08 07 13 addi	a4, a6, -0x20
[1;34m[src/memory/paddr.c:97 mtrace_log] R: 0x80001ee4 (len=4) data=0x0ff77713[0m
0x80001ee4: 0f f7 77 13 andi	a4, a4, 0xff
[1;34m[src/memory/paddr.c:97 mtrace_log] R: 0x80001ee8 (len=4) data=0x00e9ec63[0m
0x80001ee8: 00 e9 ec 63 bltu	s3, a4, 0x18
[1;34m[src/memory/paddr.c:97 mtrace_log] R: 0x80001f00 (len=4) data=0xfd080713[0m
0x80001f00: fd 08 07 13 addi	a4, a6, -0x30
[1;34m[src/memory/paddr.c:97 mtrace_log] R: 0x80001f04 (len=4) data=0x0ff77713[0m
0x80001f04: 0f f7 77 13 andi	a4, a4, 0xff
[1;34m[src/memory/paddr.c:97 mtrace_log] R: 0x80001f08 (len=4) data=0x0ced7263[0m
0x80001f08: 0c ed 72 63 bgeu	s10, a4, 0xc4
[1;34m[src/memory/paddr.c:97 mtrace_log] R: 0x80001f0c (len=4) data=0x02a00713[0m
0x80001f0c: 02 a0 07 13 addi	a4, zero, 0x2a
[1;34m[src/memory/paddr.c:97 mtrace_log] R: 0x80001f10 (len=4) data=0xfff00693[0m
0x80001f10: ff f0 06 93 addi	a3, zero, -1
[1;34m[src/memory/paddr.c:97 mtrace_log] R: 0x80001f14 (len=4) data=0x00e81a63[0m
0x80001f14: 00 e8 1a 63 bne	a6, a4, 0x14
[1;34m[src/memory/paddr.c:97 mtrace_log] R: 0x80001f28 (len=4) data=0xfff00713[0m
0x80001f28: ff f0 07 13 addi	a4, zero, -1
[1;34m[src/memory/paddr.c:97 mtrace_log] R: 0x80001f2c (len=4) data=0x07980a63[0m
0x80001f2c: 07 98 0a 63 beq	a6, s9, 0x74
[1;34m[src/memory/paddr.c:97 mtrace_log] R: 0x80001f30 (len=4) data=0x0fb87613[0m
0x80001f30: 0f b8 76 13 andi	a2, a6, 0xfb
[1;34m[src/memory/paddr.c:97 mtrace_log] R: 0x80001f34 (len=4) data=0x01861663[0m
0x80001f34: 01 86 16 63 bne	a2, s8, 0xc
[1;34m[src/memory/paddr.c:97 mtrace_log] R: 0x80001f40 (len=4) data=0xfdb80813[0m
0x80001f40: fd b8 08 13 addi	a6, a6, -0x25
[1;34m[src/memory/paddr.c:97 mtrace_log] R: 0x80001f44 (len=4) data=0x0ff87813[0m
0x80001f44: 0f f8 78 13 andi	a6, a6, 0xff
[1;34m[src/memory/paddr.c:97 mtrace_log] R: 0x80001f48 (len=4) data=0x05300613[0m
0x80001f48: 05 30 06 13 addi	a2, zero, 0x53
[1;34m[src/memory/paddr.c:97 mtrace_log] R: 0x80001f4c (len=4) data=0x0b066c63[0m
0x80001f4c: 0b 06 6c 63 bltu	a2, a6, 0xb8
[1;34m[src/memory/paddr.c:97 mtrace_log] R: 0x80001f50 (len=4) data=0x00281813[0m
0x80001f50: 00 28 18 13 slli	a6, a6, 2
[1;34m[src/memory/paddr.c:97 mtrace_log] R: 0x80001f54 (len=4) data=0x01780833[0m
0x80001f54: 01 78 08 33 add	a6, a6, s7
[1;34m[src/memory/paddr.c:97 mtrace_log] R: 0x80001f58 (len=4) data=0x00082603[0m
[1;34m[src/memory/paddr.c:97 mtrace_log] R: 0x80003274 (len=4) data=0xffffef08[0m
0x80001f58: 00 08 26 03 lw	a2, 0(a6)
[1;34m[src/memory/paddr.c:97 mtrace_log] R: 0x80001f5c (len=4) data=0x01760633[0m
0x80001f5c: 01 76 06 33 add	a2, a2, s7
[1;34m[src/memory/paddr.c:97 mtrace_log] R: 0x80001f60 (len=4) data=0x00060067[0m
0x80001f60: 00 06 00 67 jr	a2
[1;34m[src/memory/paddr.c:97 mtrace_log] R: 0x80002084 (len=4) data=0x0017f793[0m
0x80002084: 00 17 f7 93 andi	a5, a5, 1
[1;34m[src/memory/paddr.c:97 mtrace_log] R: 0x80002088 (len=4) data=0x004a0613[0m
0x80002088: 00 4a 06 13 addi	a2, s4, 4
[1;34m[src/memory/paddr.c:97 mtrace_log] R: 0x8000208c (len=4) data=0x00140593[0m
0x8000208c: 00 14 05 93 addi	a1, s0, 1
[1;34m[src/memory/paddr.c:97 mtrace_log] R: 0x80002090 (len=4) data=0x18078c63[0m
0x80002090: 18 07 8c 63 beqz	a5, 0x198
[1;34m[src/memory/paddr.c:97 mtrace_log] R: 0x80002228 (len=4) data=0x00100793[0m
0x80002228: 00 10 07 93 addi	a5, zero, 1
[1;34m[src/memory/paddr.c:97 mtrace_log] R: 0x8000222c (len=4) data=0x0ad7dc63[0m
0x8000222c: 0a d7 dc 63 bge	a5, a3, 0xb8
[1;34m[src/memory/paddr.c:97 mtrace_log] R: 0x800022e4 (len=4) data=0x000a2783[0m
[1;34m[src/memory/paddr.c:97 mtrace_log] R: 0x8009dfb4 (len=4) data=0x00000074[0m
0x800022e4: 00 0a 27 83 lw	a5, 0(s4)
[1;34m[src/memory/paddr.c:97 mtrace_log] R: 0x800022e8 (len=4) data=0x00148493[0m
0x800022e8: 00 14 84 93 addi	s1, s1, 1
[1;34m[src/memory/paddr.c:97 mtrace_log] R: 0x800022ec (len=4) data=0x00060a13[0m
0x800022ec: 00 06 0a 13 mv	s4, a2
[1;34m[src/memory/paddr.c:97 mtrace_log] R: 0x800022f0 (len=4) data=0xfef48fa3[0m
[1;34m[src/memory/paddr.c:97 mtrace_log] W: 0x8009551e (len=1) data=0x00000074[0m
0x800022f0: fe f4 8f a3 sb	a5, -1(s1)
[1;34m[src/memory/paddr.c:97 mtrace_log] R: 0x800022f4 (len=4) data=0x00144783[0m
[1;34m[src/memory/paddr.c:97 mtrace_log] R: 0x80002918 (len=1) data=0x0000003a[0m
0x800022f4: 00 14 47 83 lbu	a5, 1(s0)
[1;34m[src/memory/paddr.c:97 mtrace_log] R: 0x800022f8 (len=4) data=0xb80792e3[0m
0x800022f8: b8 07 92 e3 bnez	a5, -0x47c
[1;34m[src/memory/paddr.c:97 mtrace_log] R: 0x80001e7c (len=4) data=0x05578c63[0m
0x80001e7c: 05 57 8c 63 beq	a5, s5, 0x58
[1;34m[src/memory/paddr.c:97 mtrace_log] R: 0x80001e80 (len=4) data=0x00f48023[0m
[1;34m[src/memory/paddr.c:97 mtrace_log] W: 0x8009551f (len=1) data=0x0000003a[0m
0x80001e80: 00 f4 80 23 sb	a5, 0(s1)
[1;34m[src/memory/paddr.c:97 mtrace_log] R: 0x80001e84 (len=4) data=0x0015c783[0m
[1;34m[src/memory/paddr.c:97 mtrace_log] R: 0x80002919 (len=1) data=0x00000020[0m
0x80001e84: 00 15 c7 83 lbu	a5, 1(a1)
[1;34m[src/memory/paddr.c:97 mtrace_log] R: 0x80001e88 (len=4) data=0x00148493[0m
0x80001e88: 00 14 84 93 addi	s1, s1, 1
[1;34m[src/memory/paddr.c:97 mtrace_log] R: 0x80001e8c (len=4) data=0x00158593[0m
0x80001e8c: 00 15 85 93 addi	a1, a1, 1
[1;34m[src/memory/paddr.c:97 mtrace_log] R: 0x80001e90 (len=4) data=0xfe0796e3[0m
0x80001e90: fe 07 96 e3 bnez	a5, -0x14
[1;34m[src/memory/paddr.c:97 mtrace_log] R: 0x80001e7c (len=4) data=0x05578c63[0m
0x80001e7c: 05 57 8c 63 beq	a5, s5, 0x58
[1;34m[src/memory/paddr.c:97 mtrace_log] R: 0x80001e80 (len=4) data=0x00f48023[0m
[1;34m[src/memory/paddr.c:97 mtrace_log] W: 0x80095520 (len=1) data=0x00000020[0m
0x80001e80: 00 f4 80 23 sb	a5, 0(s1)
[1;34m[src/memory/paddr.c:97 mtrace_log] R: 0x80001e84 (len=4) data=0x0015c783[0m
[1;34m[src/memory/paddr.c:97 mtrace_log] R: 0x8000291a (len=1) data=0x00000025[0m
0x80001e84: 00 15 c7 83 lbu	a5, 1(a1)
[1;34m[src/memory/paddr.c:97 mtrace_log] R: 0x80001e88 (len=4) data=0x00148493[0m
0x80001e88: 00 14 84 93 addi	s1, s1, 1
[1;34m[src/memory/paddr.c:97 mtrace_log] R: 0x80001e8c (len=4) data=0x00158593[0m
0x80001e8c: 00 15 85 93 addi	a1, a1, 1
[1;34m[src/memory/paddr.c:97 mtrace_log] R: 0x80001e90 (len=4) data=0xfe0796e3[0m
0x80001e90: fe 07 96 e3 bnez	a5, -0x14
[1;34m[src/memory/paddr.c:97 mtrace_log] R: 0x80001e7c (len=4) data=0x05578c63[0m
0x80001e7c: 05 57 8c 63 beq	a5, s5, 0x58
[1;34m[src/memory/paddr.c:97 mtrace_log] R: 0x80001ed4 (len=4) data=0x00000793[0m
0x80001ed4: 00 00 07 93 mv	a5, zero
[1;34m[src/memory/paddr.c:97 mtrace_log] R: 0x80001ed8 (len=4) data=0x0015c803[0m
[1;34m[src/memory/paddr.c:97 mtrace_log] R: 0x8000291b (len=1) data=0x00000073[0m
0x80001ed8: 00 15 c8 03 lbu	a6, 1(a1)
[1;34m[src/memory/paddr.c:97 mtrace_log] R: 0x80001edc (len=4) data=0x00158413[0m
0x80001edc: 00 15 84 13 addi	s0, a1, 1
[1;34m[src/memory/paddr.c:97 mtrace_log] R: 0x80001ee0 (len=4) data=0xfe080713[0m
0x80001ee0: fe 08 07 13 addi	a4, a6, -0x20
[1;34m[src/memory/paddr.c:97 mtrace_log] R: 0x80001ee4 (len=4) data=0x0ff77713[0m
0x80001ee4: 0f f7 77 13 andi	a4, a4, 0xff
[1;34m[src/memory/paddr.c:97 mtrace_log] R: 0x80001ee8 (len=4) data=0x00e9ec63[0m
0x80001ee8: 00 e9 ec 63 bltu	s3, a4, 0x18
[1;34m[src/memory/paddr.c:97 mtrace_log] R: 0x80001f00 (len=4) data=0xfd080713[0m
0x80001f00: fd 08 07 13 addi	a4, a6, -0x30
[1;34m[src/memory/paddr.c:97 mtrace_log] R: 0x80001f04 (len=4) data=0x0ff77713[0m
0x80001f04: 0f f7 77 13 andi	a4, a4, 0xff
[1;34m[src/memory/paddr.c:97 mtrace_log] R: 0x80001f08 (len=4) data=0x0ced7263[0m
0x80001f08: 0c ed 72 63 bgeu	s10, a4, 0xc4
[1;34m[src/memory/paddr.c:97 mtrace_log] R: 0x80001f0c (len=4) data=0x02a00713[0m
0x80001f0c: 02 a0 07 13 addi	a4, zero, 0x2a
[1;34m[src/memory/paddr.c:97 mtrace_log] R: 0x80001f10 (len=4) data=0xfff00693[0m
0x80001f10: ff f0 06 93 addi	a3, zero, -1
[1;34m[src/memory/paddr.c:97 mtrace_log] R: 0x80001f14 (len=4) data=0x00e81a63[0m
0x80001f14: 00 e8 1a 63 bne	a6, a4, 0x14
[1;34m[src/memory/paddr.c:97 mtrace_log] R: 0x80001f28 (len=4) data=0xfff00713[0m
0x80001f28: ff f0 07 13 addi	a4, zero, -1
[1;34m[src/memory/paddr.c:97 mtrace_log] R: 0x80001f2c (len=4) data=0x07980a63[0m
0x80001f2c: 07 98 0a 63 beq	a6, s9, 0x74
[1;34m[src/memory/paddr.c:97 mtrace_log] R: 0x80001f30 (len=4) data=0x0fb87613[0m
0x80001f30: 0f b8 76 13 andi	a2, a6, 0xfb
[1;34m[src/memory/paddr.c:97 mtrace_log] R: 0x80001f34 (len=4) data=0x01861663[0m
0x80001f34: 01 86 16 63 bne	a2, s8, 0xc
[1;34m[src/memory/paddr.c:97 mtrace_log] R: 0x80001f40 (len=4) data=0xfdb80813[0m
0x80001f40: fd b8 08 13 addi	a6, a6, -0x25
[1;34m[src/memory/paddr.c:97 mtrace_log] R: 0x80001f44 (len=4) data=0x0ff87813[0m
0x80001f44: 0f f8 78 13 andi	a6, a6, 0xff
[1;34m[src/memory/paddr.c:97 mtrace_log] R: 0x80001f48 (len=4) data=0x05300613[0m
0x80001f48: 05 30 06 13 addi	a2, zero, 0x53
[1;34m[src/memory/paddr.c:97 mtrace_log] R: 0x80001f4c (len=4) data=0x0b066c63[0m
0x80001f4c: 0b 06 6c 63 bltu	a2, a6, 0xb8
[1;34m[src/memory/paddr.c:97 mtrace_log] R: 0x80001f50 (len=4) data=0x00281813[0m
0x80001f50: 00 28 18 13 slli	a6, a6, 2
[1;34m[src/memory/paddr.c:97 mtrace_log] R: 0x80001f54 (len=4) data=0x01780833[0m
0x80001f54: 01 78 08 33 add	a6, a6, s7
[1;34m[src/memory/paddr.c:97 mtrace_log] R: 0x80001f58 (len=4) data=0x00082603[0m
[1;34m[src/memory/paddr.c:97 mtrace_log] R: 0x800032b4 (len=4) data=0xffffef50[0m
0x80001f58: 00 08 26 03 lw	a2, 0(a6)
[1;34m[src/memory/paddr.c:97 mtrace_log] R: 0x80001f5c (len=4) data=0x01760633[0m
0x80001f5c: 01 76 06 33 add	a2, a2, s7
[1;34m[src/memory/paddr.c:97 mtrace_log] R: 0x80001f60 (len=4) data=0x00060067[0m
0x80001f60: 00 06 00 67 jr	a2
[1;34m[src/memory/paddr.c:97 mtrace_log] R: 0x800020cc (len=4) data=0x01b12e23[0m
[1;34m[src/memory/paddr.c:97 mtrace_log] W: 0x8009df5c (len=4) data=0x00000000[0m
0x800020cc: 01 b1 2e 23 sw	s11, 0x1c(sp)
[1;34m[src/memory/paddr.c:97 mtrace_log] R: 0x800020d0 (len=4) data=0x000a2d83[0m
[1;34m[src/memory/paddr.c:97 mtrace_log] R: 0x8009dfb8 (len=4) data=0x800029b4[0m
0x800020d0: 00 0a 2d 83 lw	s11, 0(s4)
[1;34m[src/memory/paddr.c:97 mtrace_log] R: 0x800020d4 (len=4) data=0x004a0a13[0m
0x800020d4: 00 4a 0a 13 addi	s4, s4, 4
[1;34m[src/memory/paddr.c:97 mtrace_log] R: 0x800020d8 (len=4) data=0x140d8263[0m
0x800020d8: 14 0d 82 63 beqz	s11, 0x144
[1;34m[src/memory/paddr.c:97 mtrace_log] R: 0x800020dc (len=4) data=0x000d8513[0m
0x800020dc: 00 0d 85 13 mv	a0, s11
[1;34m[src/memory/paddr.c:97 mtrace_log] R: 0x800020e0 (len=4) data=0x00d12623[0m
[1;34m[src/memory/paddr.c:97 mtrace_log] W: 0x8009df4c (len=4) data=0xffffffff[0m
0x800020e0: 00 d1 26 23 sw	a3, 0xc(sp)
[1;34m[src/memory/paddr.c:97 mtrace_log] R: 0x800020e4 (len=4) data=0x00f12423[0m
[1;34m[src/memory/paddr.c:97 mtrace_log] W: 0x8009df48 (len=4) data=0x00000000[0m
0x800020e4: 00 f1 24 23 sw	a5, 8(sp)
[1;34m[src/memory/paddr.c:97 mtrace_log] R: 0x800020e8 (len=4) data=0x00e12223[0m
[1;34m[src/memory/paddr.c:97 mtrace_log] W: 0x8009df44 (len=4) data=0xffffffff[0m
0x800020e8: 00 e1 22 23 sw	a4, 4(sp)
[1;34m[src/memory/paddr.c:97 mtrace_log] R: 0x800020ec (len=4) data=0x9c9ff0ef[0m
0x800020ec: 9c 9f f0 ef jal	-0x638
[1;34m[src/memory/paddr.c:97 mtrace_log] R: 0x80001ab4 (len=4) data=0x00054783[0m
[1;34m[src/memory/paddr.c:97 mtrace_log] R: 0x800029b4 (len=1) data=0x00000072[0m
0x80001ab4: 00 05 47 83 lbu	a5, 0(a0)
[1;34m[src/memory/paddr.c:97 mtrace_log] R: 0x80001ab8 (len=4) data=0x00050713[0m
0x80001ab8: 00 05 07 13 mv	a4, a0
[1;34m[src/memory/paddr.c:97 mtrace_log] R: 0x80001abc (len=4) data=0x00000513[0m
0x80001abc: 00 00 05 13 mv	a0, zero
[1;34m[src/memory/paddr.c:97 mtrace_log] R: 0x80001ac0 (len=4) data=0x00078c63[0m
0x80001ac0: 00 07 8c 63 beqz	a5, 0x18
[1;34m[src/memory/paddr.c:97 mtrace_log] R: 0x80001ac4 (len=4) data=0x00150513[0m
0x80001ac4: 00 15 05 13 addi	a0, a0, 1
[1;34m[src/memory/paddr.c:97 mtrace_log] R: 0x80001ac8 (len=4) data=0x00a707b3[0m
0x80001ac8: 00 a7 07 b3 add	a5, a4, a0
[1;34m[src/memory/paddr.c:97 mtrace_log] R: 0x80001acc (len=4) data=0x0007c783[0m
[1;34m[src/memory/paddr.c:97 mtrace_log] R: 0x800029b5 (len=1) data=0x00000065[0m
0x80001acc: 00 07 c7 83 lbu	a5, 0(a5)
[1;34m[src/memory/paddr.c:97 mtrace_log] R: 0x80001ad0 (len=4) data=0xfe079ae3[0m
0x80001ad0: fe 07 9a e3 bnez	a5, -0xc
[1;34m[src/memory/paddr.c:97 mtrace_log] R: 0x80001ac4 (len=4) data=0x00150513[0m
0x80001ac4: 00 15 05 13 addi	a0, a0, 1
[1;34m[src/memory/paddr.c:97 mtrace_log] R: 0x80001ac8 (len=4) data=0x00a707b3[0m
0x80001ac8: 00 a7 07 b3 add	a5, a4, a0
[1;34m[src/memory/paddr.c:97 mtrace_log] R: 0x80001acc (len=4) data=0x0007c783[0m
[1;34m[src/memory/paddr.c:97 mtrace_log] R: 0x800029b6 (len=1) data=0x00000061[0m
0x80001acc: 00 07 c7 83 lbu	a5, 0(a5)
[1;34m[src/memory/paddr.c:97 mtrace_log] R: 0x80001ad0 (len=4) data=0xfe079ae3[0m
0x80001ad0: fe 07 9a e3 bnez	a5, -0xc
[1;34m[src/memory/paddr.c:97 mtrace_log] R: 0x80001ac4 (len=4) data=0x00150513[0m
0x80001ac4: 00 15 05 13 addi	a0, a0, 1
[1;34m[src/memory/paddr.c:97 mtrace_log] R: 0x80001ac8 (len=4) data=0x00a707b3[0m
0x80001ac8: 00 a7 07 b3 add	a5, a4, a0
[1;34m[src/memory/paddr.c:97 mtrace_log] R: 0x80001acc (len=4) data=0x0007c783[0m
[1;34m[src/memory/paddr.c:97 mtrace_log] R: 0x800029b7 (len=1) data=0x0000006c[0m
0x80001acc: 00 07 c7 83 lbu	a5, 0(a5)
[1;34m[src/memory/paddr.c:97 mtrace_log] R: 0x80001ad0 (len=4) data=0xfe079ae3[0m
0x80001ad0: fe 07 9a e3 bnez	a5, -0xc
[1;34m[src/memory/paddr.c:97 mtrace_log] R: 0x80001ac4 (len=4) data=0x00150513[0m
0x80001ac4: 00 15 05 13 addi	a0, a0, 1
[1;34m[src/memory/paddr.c:97 mtrace_log] R: 0x80001ac8 (len=4) data=0x00a707b3[0m
0x80001ac8: 00 a7 07 b3 add	a5, a4, a0
[1;34m[src/memory/paddr.c:97 mtrace_log] R: 0x80001acc (len=4) data=0x0007c783[0m
[1;34m[src/memory/paddr.c:97 mtrace_log] R: 0x800029b8 (len=1) data=0x0000002d[0m
0x80001acc: 00 07 c7 83 lbu	a5, 0(a5)
[1;34m[src/memory/paddr.c:97 mtrace_log] R: 0x80001ad0 (len=4) data=0xfe079ae3[0m
0x80001ad0: fe 07 9a e3 bnez	a5, -0xc
[1;34m[src/memory/paddr.c:97 mtrace_log] R: 0x80001ac4 (len=4) data=0x00150513[0m
0x80001ac4: 00 15 05 13 addi	a0, a0, 1
[1;34m[src/memory/paddr.c:97 mtrace_log] R: 0x80001ac8 (len=4) data=0x00a707b3[0m
0x80001ac8: 00 a7 07 b3 add	a5, a4, a0
[1;34m[src/memory/paddr.c:97 mtrace_log] R: 0x80001acc (len=4) data=0x0007c783[0m
[1;34m[src/memory/paddr.c:97 mtrace_log] R: 0x800029b9 (len=1) data=0x00000074[0m
0x80001acc: 00 07 c7 83 lbu	a5, 0(a5)
[1;34m[src/memory/paddr.c:97 mtrace_log] R: 0x80001ad0 (len=4) data=0xfe079ae3[0m
0x80001ad0: fe 07 9a e3 bnez	a5, -0xc
[1;34m[src/memory/paddr.c:97 mtrace_log] R: 0x80001ac4 (len=4) data=0x00150513[0m
0x80001ac4: 00 15 05 13 addi	a0, a0, 1
[1;34m[src/memory/paddr.c:97 mtrace_log] R: 0x80001ac8 (len=4) data=0x00a707b3[0m
0x80001ac8: 00 a7 07 b3 add	a5, a4, a0
[1;34m[src/memory/paddr.c:97 mtrace_log] R: 0x80001acc (len=4) data=0x0007c783[0m
[1;34m[src/memory/paddr.c:97 mtrace_log] R: 0x800029ba (len=1) data=0x00000069[0m
0x80001acc: 00 07 c7 83 lbu	a5, 0(a5)
[1;34m[src/memory/paddr.c:97 mtrace_log] R: 0x80001ad0 (len=4) data=0xfe079ae3[0m
0x80001ad0: fe 07 9a e3 bnez	a5, -0xc
[1;34m[src/memory/paddr.c:97 mtrace_log] R: 0x80001ac4 (len=4) data=0x00150513[0m
0x80001ac4: 00 15 05 13 addi	a0, a0, 1
[1;34m[src/memory/paddr.c:97 mtrace_log] R: 0x80001ac8 (len=4) data=0x00a707b3[0m
0x80001ac8: 00 a7 07 b3 add	a5, a4, a0
[1;34m[src/memory/paddr.c:97 mtrace_log] R: 0x80001acc (len=4) data=0x0007c783[0m
[1;34m[src/memory/paddr.c:97 mtrace_log] R: 0x800029bb (len=1) data=0x0000006d[0m
0x80001acc: 00 07 c7 83 lbu	a5, 0(a5)
[1;34m[src/memory/paddr.c:97 mtrace_log] R: 0x80001ad0 (len=4) data=0xfe079ae3[0m
0x80001ad0: fe 07 9a e3 bnez	a5, -0xc
[1;34m[src/memory/paddr.c:97 mtrace_log] R: 0x80001ac4 (len=4) data=0x00150513[0m
0x80001ac4: 00 15 05 13 addi	a0, a0, 1
[1;34m[src/memory/paddr.c:97 mtrace_log] R: 0x80001ac8 (len=4) data=0x00a707b3[0m
0x80001ac8: 00 a7 07 b3 add	a5, a4, a0
[1;34m[src/memory/paddr.c:97 mtrace_log] R: 0x80001acc (len=4) data=0x0007c783[0m
[1;34m[src/memory/paddr.c:97 mtrace_log] R: 0x800029bc (len=1) data=0x00000065[0m
0x80001acc: 00 07 c7 83 lbu	a5, 0(a5)
[1;34m[src/memory/paddr.c:97 mtrace_log] R: 0x80001ad0 (len=4) data=0xfe079ae3[0m
0x80001ad0: fe 07 9a e3 bnez	a5, -0xc
[1;34m[src/memory/paddr.c:97 mtrace_log] R: 0x80001ac4 (len=4) data=0x00150513[0m
0x80001ac4: 00 15 05 13 addi	a0, a0, 1
[1;34m[src/memory/paddr.c:97 mtrace_log] R: 0x80001ac8 (len=4) data=0x00a707b3[0m
0x80001ac8: 00 a7 07 b3 add	a5, a4, a0
[1;34m[src/memory/paddr.c:97 mtrace_log] R: 0x80001acc (len=4) data=0x0007c783[0m
[1;34m[src/memory/paddr.c:97 mtrace_log] R: 0x800029bd (len=1) data=0x00000020[0m
0x80001acc: 00 07 c7 83 lbu	a5, 0(a5)
[1;34m[src/memory/paddr.c:97 mtrace_log] R: 0x80001ad0 (len=4) data=0xfe079ae3[0m
0x80001ad0: fe 07 9a e3 bnez	a5, -0xc
[1;34m[src/memory/paddr.c:97 mtrace_log] R: 0x80001ac4 (len=4) data=0x00150513[0m
0x80001ac4: 00 15 05 13 addi	a0, a0, 1
[1;34m[src/memory/paddr.c:97 mtrace_log] R: 0x80001ac8 (len=4) data=0x00a707b3[0m
0x80001ac8: 00 a7 07 b3 add	a5, a4, a0
[1;34m[src/memory/paddr.c:97 mtrace_log] R: 0x80001acc (len=4) data=0x0007c783[0m
[1;34m[src/memory/paddr.c:97 mtrace_log] R: 0x800029be (len=1) data=0x00000063[0m
0x80001acc: 00 07 c7 83 lbu	a5, 0(a5)
[1;34m[src/memory/paddr.c:97 mtrace_log] R: 0x80001ad0 (len=4) data=0xfe079ae3[0m
0x80001ad0: fe 07 9a e3 bnez	a5, -0xc
[1;34m[src/memory/paddr.c:97 mtrace_log] R: 0x80001ac4 (len=4) data=0x00150513[0m
0x80001ac4: 00 15 05 13 addi	a0, a0, 1
[1;34m[src/memory/paddr.c:97 mtrace_log] R: 0x80001ac8 (len=4) data=0x00a707b3[0m
0x80001ac8: 00 a7 07 b3 add	a5, a4, a0
[1;34m[src/memory/paddr.c:97 mtrace_log] R: 0x80001acc (len=4) data=0x0007c783[0m
[1;34m[src/memory/paddr.c:97 mtrace_log] R: 0x800029bf (len=1) data=0x0000006c[0m
0x80001acc: 00 07 c7 83 lbu	a5, 0(a5)
[1;34m[src/memory/paddr.c:97 mtrace_log] R: 0x80001ad0 (len=4) data=0xfe079ae3[0m
0x80001ad0: fe 07 9a e3 bnez	a5, -0xc
[1;34m[src/memory/paddr.c:97 mtrace_log] R: 0x80001ac4 (len=4) data=0x00150513[0m
0x80001ac4: 00 15 05 13 addi	a0, a0, 1
[1;34m[src/memory/paddr.c:97 mtrace_log] R: 0x80001ac8 (len=4) data=0x00a707b3[0m
0x80001ac8: 00 a7 07 b3 add	a5, a4, a0
[1;34m[src/memory/paddr.c:97 mtrace_log] R: 0x80001acc (len=4) data=0x0007c783[0m
[1;34m[src/memory/paddr.c:97 mtrace_log] R: 0x800029c0 (len=1) data=0x0000006f[0m
0x80001acc: 00 07 c7 83 lbu	a5, 0(a5)
[1;34m[src/memory/paddr.c:97 mtrace_log] R: 0x80001ad0 (len=4) data=0xfe079ae3[0m
0x80001ad0: fe 07 9a e3 bnez	a5, -0xc
[1;34m[src/memory/paddr.c:97 mtrace_log] R: 0x80001ac4 (len=4) data=0x00150513[0m
0x80001ac4: 00 15 05 13 addi	a0, a0, 1
[1;34m[src/memory/paddr.c:97 mtrace_log] R: 0x80001ac8 (len=4) data=0x00a707b3[0m
0x80001ac8: 00 a7 07 b3 add	a5, a4, a0
[1;34m[src/memory/paddr.c:97 mtrace_log] R: 0x80001acc (len=4) data=0x0007c783[0m
[1;34m[src/memory/paddr.c:97 mtrace_log] R: 0x800029c1 (len=1) data=0x00000063[0m
0x80001acc: 00 07 c7 83 lbu	a5, 0(a5)
[1;34m[src/memory/paddr.c:97 mtrace_log] R: 0x80001ad0 (len=4) data=0xfe079ae3[0m
0x80001ad0: fe 07 9a e3 bnez	a5, -0xc
[1;34m[src/memory/paddr.c:97 mtrace_log] R: 0x80001ac4 (len=4) data=0x00150513[0m
0x80001ac4: 00 15 05 13 addi	a0, a0, 1
[1;34m[src/memory/paddr.c:97 mtrace_log] R: 0x80001ac8 (len=4) data=0x00a707b3[0m
0x80001ac8: 00 a7 07 b3 add	a5, a4, a0
[1;34m[src/memory/paddr.c:97 mtrace_log] R: 0x80001acc (len=4) data=0x0007c783[0m
[1;34m[src/memory/paddr.c:97 mtrace_log] R: 0x800029c2 (len=1) data=0x0000006b[0m
0x80001acc: 00 07 c7 83 lbu	a5, 0(a5)
[1;34m[src/memory/paddr.c:97 mtrace_log] R: 0x80001ad0 (len=4) data=0xfe079ae3[0m
0x80001ad0: fe 07 9a e3 bnez	a5, -0xc
[1;34m[src/memory/paddr.c:97 mtrace_log] R: 0x80001ac4 (len=4) data=0x00150513[0m
0x80001ac4: 00 15 05 13 addi	a0, a0, 1
[1;34m[src/memory/paddr.c:97 mtrace_log] R: 0x80001ac8 (len=4) data=0x00a707b3[0m
0x80001ac8: 00 a7 07 b3 add	a5, a4, a0
[1;34m[src/memory/paddr.c:97 mtrace_log] R: 0x80001acc (len=4) data=0x0007c783[0m
[1;34m[src/memory/paddr.c:97 mtrace_log] R: 0x800029c3 (len=1) data=0x00000020[0m
0x80001acc: 00 07 c7 83 lbu	a5, 0(a5)
[1;34m[src/memory/paddr.c:97 mtrace_log] R: 0x80001ad0 (len=4) data=0xfe079ae3[0m
0x80001ad0: fe 07 9a e3 bnez	a5, -0xc
[1;34m[src/memory/paddr.c:97 mtrace_log] R: 0x80001ac4 (len=4) data=0x00150513[0m
0x80001ac4: 00 15 05 13 addi	a0, a0, 1
[1;34m[src/memory/paddr.c:97 mtrace_log] R: 0x80001ac8 (len=4) data=0x00a707b3[0m
0x80001ac8: 00 a7 07 b3 add	a5, a4, a0
[1;34m[src/memory/paddr.c:97 mtrace_log] R: 0x80001acc (len=4) data=0x0007c783[0m
[1;34m[src/memory/paddr.c:97 mtrace_log] R: 0x800029c4 (len=1) data=0x00000074[0m
0x80001acc: 00 07 c7 83 lbu	a5, 0(a5)
[1;34m[src/memory/paddr.c:97 mtrace_log] R: 0x80001ad0 (len=4) data=0xfe079ae3[0m
0x80001ad0: fe 07 9a e3 bnez	a5, -0xc
[1;34m[src/memory/paddr.c:97 mtrace_log] R: 0x80001ac4 (len=4) data=0x00150513[0m
0x80001ac4: 00 15 05 13 addi	a0, a0, 1
[1;34m[src/memory/paddr.c:97 mtrace_log] R: 0x80001ac8 (len=4) data=0x00a707b3[0m
0x80001ac8: 00 a7 07 b3 add	a5, a4, a0
[1;34m[src/memory/paddr.c:97 mtrace_log] R: 0x80001acc (len=4) data=0x0007c783[0m
[1;34m[src/memory/paddr.c:97 mtrace_log] R: 0x800029c5 (len=1) data=0x00000065[0m
0x80001acc: 00 07 c7 83 lbu	a5, 0(a5)
[1;34m[src/memory/paddr.c:97 mtrace_log] R: 0x80001ad0 (len=4) data=0xfe079ae3[0m
0x80001ad0: fe 07 9a e3 bnez	a5, -0xc
[1;34m[src/memory/paddr.c:97 mtrace_log] R: 0x80001ac4 (len=4) data=0x00150513[0m
0x80001ac4: 00 15 05 13 addi	a0, a0, 1
[1;34m[src/memory/paddr.c:97 mtrace_log] R: 0x80001ac8 (len=4) data=0x00a707b3[0m
0x80001ac8: 00 a7 07 b3 add	a5, a4, a0
[1;34m[src/memory/paddr.c:97 mtrace_log] R: 0x80001acc (len=4) data=0x0007c783[0m
[1;34m[src/memory/paddr.c:97 mtrace_log] R: 0x800029c6 (len=1) data=0x00000073[0m
0x80001acc: 00 07 c7 83 lbu	a5, 0(a5)
[1;34m[src/memory/paddr.c:97 mtrace_log] R: 0x80001ad0 (len=4) data=0xfe079ae3[0m
0x80001ad0: fe 07 9a e3 bnez	a5, -0xc
[1;34m[src/memory/paddr.c:97 mtrace_log] R: 0x80001ac4 (len=4) data=0x00150513[0m
0x80001ac4: 00 15 05 13 addi	a0, a0, 1
[1;34m[src/memory/paddr.c:97 mtrace_log] R: 0x80001ac8 (len=4) data=0x00a707b3[0m
0x80001ac8: 00 a7 07 b3 add	a5, a4, a0
[1;34m[src/memory/paddr.c:97 mtrace_log] R: 0x80001acc (len=4) data=0x0007c783[0m
[1;34m[src/memory/paddr.c:97 mtrace_log] R: 0x800029c7 (len=1) data=0x00000074[0m
0x80001acc: 00 07 c7 83 lbu	a5, 0(a5)
[1;34m[src/memory/paddr.c:97 mtrace_log] R: 0x80001ad0 (len=4) data=0xfe079ae3[0m
0x80001ad0: fe 07 9a e3 bnez	a5, -0xc
[1;34m[src/memory/paddr.c:97 mtrace_log] R: 0x80001ac4 (len=4) data=0x00150513[0m
0x80001ac4: 00 15 05 13 addi	a0, a0, 1
[1;34m[src/memory/paddr.c:97 mtrace_log] R: 0x80001ac8 (len=4) data=0x00a707b3[0m
0x80001ac8: 00 a7 07 b3 add	a5, a4, a0
[1;34m[src/memory/paddr.c:97 mtrace_log] R: 0x80001acc (len=4) data=0x0007c783[0m
[1;34m[src/memory/paddr.c:97 mtrace_log] R: 0x800029c8 (len=1) data=0x00000000[0m
0x80001acc: 00 07 c7 83 lbu	a5, 0(a5)
[1;34m[src/memory/paddr.c:97 mtrace_log] R: 0x80001ad0 (len=4) data=0xfe079ae3[0m
0x80001ad0: fe 07 9a e3 bnez	a5, -0xc
[1;34m[src/memory/paddr.c:97 mtrace_log] R: 0x80001ad4 (len=4) data=0x00008067[0m
0x80001ad4: 00 00 80 67 ret
[1;34m[src/memory/paddr.c:97 mtrace_log] R: 0x800020f0 (len=4) data=0x00412703[0m
[1;34m[src/memory/paddr.c:97 mtrace_log] R: 0x8009df44 (len=4) data=0xffffffff[0m
0x800020f0: 00 41 27 03 lw	a4, 4(sp)
[1;34m[src/memory/paddr.c:97 mtrace_log] R: 0x800020f4 (len=4) data=0xfff00613[0m
0x800020f4: ff f0 06 13 addi	a2, zero, -1
[1;34m[src/memory/paddr.c:97 mtrace_log] R: 0x800020f8 (len=4) data=0x00812783[0m
[1;34m[src/memory/paddr.c:97 mtrace_log] R: 0x8009df48 (len=4) data=0x00000000[0m
0x800020f8: 00 81 27 83 lw	a5, 8(sp)
[1;34m[src/memory/paddr.c:97 mtrace_log] R: 0x800020fc (len=4) data=0x00c12683[0m
[1;34m[src/memory/paddr.c:97 mtrace_log] R: 0x8009df4c (len=4) data=0xffffffff[0m
0x800020fc: 00 c1 26 83 lw	a3, 0xc(sp)
[1;34m[src/memory/paddr.c:97 mtrace_log] R: 0x80002100 (len=4) data=0x00c70663[0m
0x80002100: 00 c7 06 63 beq	a4, a2, 0xc
[1;34m[src/memory/paddr.c:97 mtrace_log] R: 0x8000210c (len=4) data=0x0017f793[0m
0x8000210c: 00 17 f7 93 andi	a5, a5, 1
[1;34m[src/memory/paddr.c:97 mtrace_log] R: 0x80002110 (len=4) data=0x14078063[0m
0x80002110: 14 07 80 63 beqz	a5, 0x140
[1;34m[src/memory/paddr.c:97 mtrace_log] R: 0x80002250 (len=4) data=0xfff68613[0m
0x80002250: ff f6 86 13 addi	a2, a3, -1
[1;34m[src/memory/paddr.c:97 mtrace_log] R: 0x80002254 (len=4) data=0x08d55463[0m
0x80002254: 08 d5 54 63 bge	a0, a3, 0x88
[1;34m[src/memory/paddr.c:97 mtrace_log] R: 0x800022dc (len=4) data=0x00060693[0m
0x800022dc: 00 06 06 93 mv	a3, a2
[1;34m[src/memory/paddr.c:97 mtrace_log] R: 0x800022e0 (len=4) data=0xe35ff06f[0m
0x800022e0: e3 5f f0 6f j	-0x1cc
[1;34m[src/memory/paddr.c:97 mtrace_log] R: 0x80002114 (len=4) data=0x1aa05663[0m
0x80002114: 1a a0 56 63 blez	a0, 0x1ac
[1;34m[src/memory/paddr.c:97 mtrace_log] R: 0x80002118 (len=4) data=0x00a48733[0m
0x80002118: 00 a4 87 33 add	a4, s1, a0
[1;34m[src/memory/paddr.c:97 mtrace_log] R: 0x8000211c (len=4) data=0x000dc783[0m
[1;34m[src/memory/paddr.c:97 mtrace_log] R: 0x800029b4 (len=1) data=0x00000072[0m
0x8000211c: 00 0d c7 83 lbu	a5, 0(s11)
[1;34m[src/memory/paddr.c:97 mtrace_log] R: 0x80002120 (len=4) data=0x00148493[0m
0x80002120: 00 14 84 93 addi	s1, s1, 1
[1;34m[src/memory/paddr.c:97 mtrace_log] R: 0x80002124 (len=4) data=0x001d8d93[0m
0x80002124: 00 1d 8d 93 addi	s11, s11, 1
[1;34m[src/memory/paddr.c:97 mtrace_log] R: 0x80002128 (len=4) data=0xfef48fa3[0m
[1;34m[src/memory/paddr.c:97 mtrace_log] W: 0x80095521 (len=1) data=0x00000072[0m
0x80002128: fe f4 8f a3 sb	a5, -1(s1)
[1;34m[src/memory/paddr.c:97 mtrace_log] R: 0x8000212c (len=4) data=0xfe9718e3[0m
0x8000212c: fe 97 18 e3 bne	a4, s1, -0x10
[1;34m[src/memory/paddr.c:97 mtrace_log] R: 0x8000211c (len=4) data=0x000dc783[0m
[1;34m[src/memory/paddr.c:97 mtrace_log] R: 0x800029b5 (len=1) data=0x00000065[0m
0x8000211c: 00 0d c7 83 lbu	a5, 0(s11)
[1;34m[src/memory/paddr.c:97 mtrace_log] R: 0x80002120 (len=4) data=0x00148493[0m
0x80002120: 00 14 84 93 addi	s1, s1, 1
[1;34m[src/memory/paddr.c:97 mtrace_log] R: 0x80002124 (len=4) data=0x001d8d93[0m
0x80002124: 00 1d 8d 93 addi	s11, s11, 1
[1;34m[src/memory/paddr.c:97 mtrace_log] R: 0x80002128 (len=4) data=0xfef48fa3[0m
[1;34m[src/memory/paddr.c:97 mtrace_log] W: 0x80095522 (len=1) data=0x00000065[0m
0x80002128: fe f4 8f a3 sb	a5, -1(s1)
[1;34m[src/memory/paddr.c:97 mtrace_log] R: 0x8000212c (len=4) data=0xfe9718e3[0m
0x8000212c: fe 97 18 e3 bne	a4, s1, -0x10
[1;34m[src/memory/paddr.c:97 mtrace_log] R: 0x8000211c (len=4) data=0x000dc783[0m
[1;34m[src/memory/paddr.c:97 mtrace_log] R: 0x800029b6 (len=1) data=0x00000061[0m
0x8000211c: 00 0d c7 83 lbu	a5, 0(s11)
[1;34m[src/memory/paddr.c:97 mtrace_log] R: 0x80002120 (len=4) data=0x00148493[0m
0x80002120: 00 14 84 93 addi	s1, s1, 1
[1;34m[src/memory/paddr.c:97 mtrace_log] R: 0x80002124 (len=4) data=0x001d8d93[0m
0x80002124: 00 1d 8d 93 addi	s11, s11, 1
[1;34m[src/memory/paddr.c:97 mtrace_log] R: 0x80002128 (len=4) data=0xfef48fa3[0m
[1;34m[src/memory/paddr.c:97 mtrace_log] W: 0x80095523 (len=1) data=0x00000061[0m
0x80002128: fe f4 8f a3 sb	a5, -1(s1)
[1;34m[src/memory/paddr.c:97 mtrace_log] R: 0x8000212c (len=4) data=0xfe9718e3[0m
0x8000212c: fe 97 18 e3 bne	a4, s1, -0x10
[1;34m[src/memory/paddr.c:97 mtrace_log] R: 0x8000211c (len=4) data=0x000dc783[0m
[1;34m[src/memory/paddr.c:97 mtrace_log] R: 0x800029b7 (len=1) data=0x0000006c[0m
0x8000211c: 00 0d c7 83 lbu	a5, 0(s11)
[1;34m[src/memory/paddr.c:97 mtrace_log] R: 0x80002120 (len=4) data=0x00148493[0m
0x80002120: 00 14 84 93 addi	s1, s1, 1
[1;34m[src/memory/paddr.c:97 mtrace_log] R: 0x80002124 (len=4) data=0x001d8d93[0m
0x80002124: 00 1d 8d 93 addi	s11, s11, 1
[1;34m[src/memory/paddr.c:97 mtrace_log] R: 0x80002128 (len=4) data=0xfef48fa3[0m
[1;34m[src/memory/paddr.c:97 mtrace_log] W: 0x80095524 (len=1) data=0x0000006c[0m
0x80002128: fe f4 8f a3 sb	a5, -1(s1)
[1;34m[src/memory/paddr.c:97 mtrace_log] R: 0x8000212c (len=4) data=0xfe9718e3[0m
0x8000212c: fe 97 18 e3 bne	a4, s1, -0x10
[1;34m[src/memory/paddr.c:97 mtrace_log] R: 0x8000211c (len=4) data=0x000dc783[0m
[1;34m[src/memory/paddr.c:97 mtrace_log] R: 0x800029b8 (len=1) data=0x0000002d[0m
0x8000211c: 00 0d c7 83 lbu	a5, 0(s11)
[1;34m[src/memory/paddr.c:97 mtrace_log] R: 0x80002120 (len=4) data=0x00148493[0m
0x80002120: 00 14 84 93 addi	s1, s1, 1
[1;34m[src/memory/paddr.c:97 mtrace_log] R: 0x80002124 (len=4) data=0x001d8d93[0m
0x80002124: 00 1d 8d 93 addi	s11, s11, 1
[1;34m[src/memory/paddr.c:97 mtrace_log] R: 0x80002128 (len=4) data=0xfef48fa3[0m
[1;34m[src/memory/paddr.c:97 mtrace_log] W: 0x80095525 (len=1) data=0x0000002d[0m
0x80002128: fe f4 8f a3 sb	a5, -1(s1)
[1;34m[src/memory/paddr.c:97 mtrace_log] R: 0x8000212c (len=4) data=0xfe9718e3[0m
0x8000212c: fe 97 18 e3 bne	a4, s1, -0x10
[1;34m[src/memory/paddr.c:97 mtrace_log] R: 0x8000211c (len=4) data=0x000dc783[0m
[1;34m[src/memory/paddr.c:97 mtrace_log] R: 0x800029b9 (len=1) data=0x00000074[0m
0x8000211c: 00 0d c7 83 lbu	a5, 0(s11)
[1;34m[src/memory/paddr.c:97 mtrace_log] R: 0x80002120 (len=4) data=0x00148493[0m
0x80002120: 00 14 84 93 addi	s1, s1, 1
[1;34m[src/memory/paddr.c:97 mtrace_log] R: 0x80002124 (len=4) data=0x001d8d93[0m
0x80002124: 00 1d 8d 93 addi	s11, s11, 1
[1;34m[src/memory/paddr.c:97 mtrace_log] R: 0x80002128 (len=4) data=0xfef48fa3[0m
[1;34m[src/memory/paddr.c:97 mtrace_log] W: 0x80095526 (len=1) data=0x00000074[0m
0x80002128: fe f4 8f a3 sb	a5, -1(s1)
[1;34m[src/memory/paddr.c:97 mtrace_log] R: 0x8000212c (len=4) data=0xfe9718e3[0m
0x8000212c: fe 97 18 e3 bne	a4, s1, -0x10
[1;34m[src/memory/paddr.c:97 mtrace_log] R: 0x8000211c (len=4) data=0x000dc783[0m
[1;34m[src/memory/paddr.c:97 mtrace_log] R: 0x800029ba (len=1) data=0x00000069[0m
0x8000211c: 00 0d c7 83 lbu	a5, 0(s11)
[1;34m[src/memory/paddr.c:97 mtrace_log] R: 0x80002120 (len=4) data=0x00148493[0m
0x80002120: 00 14 84 93 addi	s1, s1, 1
[1;34m[src/memory/paddr.c:97 mtrace_log] R: 0x80002124 (len=4) data=0x001d8d93[0m
0x80002124: 00 1d 8d 93 addi	s11, s11, 1
[1;34m[src/memory/paddr.c:97 mtrace_log] R: 0x80002128 (len=4) data=0xfef48fa3[0m
[1;34m[src/memory/paddr.c:97 mtrace_log] W: 0x80095527 (len=1) data=0x00000069[0m
0x80002128: fe f4 8f a3 sb	a5, -1(s1)
[1;34m[src/memory/paddr.c:97 mtrace_log] R: 0x8000212c (len=4) data=0xfe9718e3[0m
0x8000212c: fe 97 18 e3 bne	a4, s1, -0x10
[1;34m[src/memory/paddr.c:97 mtrace_log] R: 0x8000211c (len=4) data=0x000dc783[0m
[1;34m[src/memory/paddr.c:97 mtrace_log] R: 0x800029bb (len=1) data=0x0000006d[0m
0x8000211c: 00 0d c7 83 lbu	a5, 0(s11)
[1;34m[src/memory/paddr.c:97 mtrace_log] R: 0x80002120 (len=4) data=0x00148493[0m
0x80002120: 00 14 84 93 addi	s1, s1, 1
[1;34m[src/memory/paddr.c:97 mtrace_log] R: 0x80002124 (len=4) data=0x001d8d93[0m
0x80002124: 00 1d 8d 93 addi	s11, s11, 1
[1;34m[src/memory/paddr.c:97 mtrace_log] R: 0x80002128 (len=4) data=0xfef48fa3[0m
[1;34m[src/memory/paddr.c:97 mtrace_log] W: 0x80095528 (len=1) data=0x0000006d[0m
0x80002128: fe f4 8f a3 sb	a5, -1(s1)
[1;34m[src/memory/paddr.c:97 mtrace_log] R: 0x8000212c (len=4) data=0xfe9718e3[0m
0x8000212c: fe 97 18 e3 bne	a4, s1, -0x10
[1;34m[src/memory/paddr.c:97 mtrace_log] R: 0x8000211c (len=4) data=0x000dc783[0m
[1;34m[src/memory/paddr.c:97 mtrace_log] R: 0x800029bc (len=1) data=0x00000065[0m
0x8000211c: 00 0d c7 83 lbu	a5, 0(s11)
[1;34m[src/memory/paddr.c:97 mtrace_log] R: 0x80002120 (len=4) data=0x00148493[0m
0x80002120: 00 14 84 93 addi	s1, s1, 1
[1;34m[src/memory/paddr.c:97 mtrace_log] R: 0x80002124 (len=4) data=0x001d8d93[0m
0x80002124: 00 1d 8d 93 addi	s11, s11, 1
[1;34m[src/memory/paddr.c:97 mtrace_log] R: 0x80002128 (len=4) data=0xfef48fa3[0m
[1;34m[src/memory/paddr.c:97 mtrace_log] W: 0x80095529 (len=1) data=0x00000065[0m
0x80002128: fe f4 8f a3 sb	a5, -1(s1)
[1;34m[src/memory/paddr.c:97 mtrace_log] R: 0x8000212c (len=4) data=0xfe9718e3[0m
0x8000212c: fe 97 18 e3 bne	a4, s1, -0x10
[1;34m[src/memory/paddr.c:97 mtrace_log] R: 0x8000211c (len=4) data=0x000dc783[0m
[1;34m[src/memory/paddr.c:97 mtrace_log] R: 0x800029bd (len=1) data=0x00000020[0m
0x8000211c: 00 0d c7 83 lbu	a5, 0(s11)
[1;34m[src/memory/paddr.c:97 mtrace_log] R: 0x80002120 (len=4) data=0x00148493[0m
0x80002120: 00 14 84 93 addi	s1, s1, 1
[1;34m[src/memory/paddr.c:97 mtrace_log] R: 0x80002124 (len=4) data=0x001d8d93[0m
0x80002124: 00 1d 8d 93 addi	s11, s11, 1
[1;34m[src/memory/paddr.c:97 mtrace_log] R: 0x80002128 (len=4) data=0xfef48fa3[0m
[1;34m[src/memory/paddr.c:97 mtrace_log] W: 0x8009552a (len=1) data=0x00000020[0m
0x80002128: fe f4 8f a3 sb	a5, -1(s1)
[1;34m[src/memory/paddr.c:97 mtrace_log] R: 0x8000212c (len=4) data=0xfe9718e3[0m
0x8000212c: fe 97 18 e3 bne	a4, s1, -0x10
[1;34m[src/memory/paddr.c:97 mtrace_log] R: 0x8000211c (len=4) data=0x000dc783[0m
[1;34m[src/memory/paddr.c:97 mtrace_log] R: 0x800029be (len=1) data=0x00000063[0m
0x8000211c: 00 0d c7 83 lbu	a5, 0(s11)
[1;34m[src/memory/paddr.c:97 mtrace_log] R: 0x80002120 (len=4) data=0x00148493[0m
0x80002120: 00 14 84 93 addi	s1, s1, 1
[1;34m[src/memory/paddr.c:97 mtrace_log] R: 0x80002124 (len=4) data=0x001d8d93[0m
0x80002124: 00 1d 8d 93 addi	s11, s11, 1
[1;34m[src/memory/paddr.c:97 mtrace_log] R: 0x80002128 (len=4) data=0xfef48fa3[0m
[1;34m[src/memory/paddr.c:97 mtrace_log] W: 0x8009552b (len=1) data=0x00000063[0m
0x80002128: fe f4 8f a3 sb	a5, -1(s1)
[1;34m[src/memory/paddr.c:97 mtrace_log] R: 0x8000212c (len=4) data=0xfe9718e3[0m
0x8000212c: fe 97 18 e3 bne	a4, s1, -0x10
[1;34m[src/memory/paddr.c:97 mtrace_log] R: 0x8000211c (len=4) data=0x000dc783[0m
[1;34m[src/memory/paddr.c:97 mtrace_log] R: 0x800029bf (len=1) data=0x0000006c[0m
0x8000211c: 00 0d c7 83 lbu	a5, 0(s11)
[1;34m[src/memory/paddr.c:97 mtrace_log] R: 0x80002120 (len=4) data=0x00148493[0m
0x80002120: 00 14 84 93 addi	s1, s1, 1
[1;34m[src/memory/paddr.c:97 mtrace_log] R: 0x80002124 (len=4) data=0x001d8d93[0m
0x80002124: 00 1d 8d 93 addi	s11, s11, 1
[1;34m[src/memory/paddr.c:97 mtrace_log] R: 0x80002128 (len=4) data=0xfef48fa3[0m
[1;34m[src/memory/paddr.c:97 mtrace_log] W: 0x8009552c (len=1) data=0x0000006c[0m
0x80002128: fe f4 8f a3 sb	a5, -1(s1)
[1;34m[src/memory/paddr.c:97 mtrace_log] R: 0x8000212c (len=4) data=0xfe9718e3[0m
0x8000212c: fe 97 18 e3 bne	a4, s1, -0x10
[1;34m[src/memory/paddr.c:97 mtrace_log] R: 0x8000211c (len=4) data=0x000dc783[0m
[1;34m[src/memory/paddr.c:97 mtrace_log] R: 0x800029c0 (len=1) data=0x0000006f[0m
0x8000211c: 00 0d c7 83 lbu	a5, 0(s11)
[1;34m[src/memory/paddr.c:97 mtrace_log] R: 0x80002120 (len=4) data=0x00148493[0m
0x80002120: 00 14 84 93 addi	s1, s1, 1
[1;34m[src/memory/paddr.c:97 mtrace_log] R: 0x80002124 (len=4) data=0x001d8d93[0m
0x80002124: 00 1d 8d 93 addi	s11, s11, 1
[1;34m[src/memory/paddr.c:97 mtrace_log] R: 0x80002128 (len=4) data=0xfef48fa3[0m
[1;34m[src/memory/paddr.c:97 mtrace_log] W: 0x8009552d (len=1) data=0x0000006f[0m
0x80002128: fe f4 8f a3 sb	a5, -1(s1)
[1;34m[src/memory/paddr.c:97 mtrace_log] R: 0x8000212c (len=4) data=0xfe9718e3[0m
0x8000212c: fe 97 18 e3 bne	a4, s1, -0x10
[1;34m[src/memory/paddr.c:97 mtrace_log] R: 0x8000211c (len=4) data=0x000dc783[0m
[1;34m[src/memory/paddr.c:97 mtrace_log] R: 0x800029c1 (len=1) data=0x00000063[0m
0x8000211c: 00 0d c7 83 lbu	a5, 0(s11)
[1;34m[src/memory/paddr.c:97 mtrace_log] R: 0x80002120 (len=4) data=0x00148493[0m
0x80002120: 00 14 84 93 addi	s1, s1, 1
[1;34m[src/memory/paddr.c:97 mtrace_log] R: 0x80002124 (len=4) data=0x001d8d93[0m
0x80002124: 00 1d 8d 93 addi	s11, s11, 1
[1;34m[src/memory/paddr.c:97 mtrace_log] R: 0x80002128 (len=4) data=0xfef48fa3[0m
[1;34m[src/memory/paddr.c:97 mtrace_log] W: 0x8009552e (len=1) data=0x00000063[0m
0x80002128: fe f4 8f a3 sb	a5, -1(s1)
[1;34m[src/memory/paddr.c:97 mtrace_log] R: 0x8000212c (len=4) data=0xfe9718e3[0m
0x8000212c: fe 97 18 e3 bne	a4, s1, -0x10
[1;34m[src/memory/paddr.c:97 mtrace_log] R: 0x8000211c (len=4) data=0x000dc783[0m
[1;34m[src/memory/paddr.c:97 mtrace_log] R: 0x800029c2 (len=1) data=0x0000006b[0m
0x8000211c: 00 0d c7 83 lbu	a5, 0(s11)
[1;34m[src/memory/paddr.c:97 mtrace_log] R: 0x80002120 (len=4) data=0x00148493[0m
0x80002120: 00 14 84 93 addi	s1, s1, 1
[1;34m[src/memory/paddr.c:97 mtrace_log] R: 0x80002124 (len=4) data=0x001d8d93[0m
0x80002124: 00 1d 8d 93 addi	s11, s11, 1
[1;34m[src/memory/paddr.c:97 mtrace_log] R: 0x80002128 (len=4) data=0xfef48fa3[0m
[1;34m[src/memory/paddr.c:97 mtrace_log] W: 0x8009552f (len=1) data=0x0000006b[0m
0x80002128: fe f4 8f a3 sb	a5, -1(s1)
[1;34m[src/memory/paddr.c:97 mtrace_log] R: 0x8000212c (len=4) data=0xfe9718e3[0m
0x8000212c: fe 97 18 e3 bne	a4, s1, -0x10
[1;34m[src/memory/paddr.c:97 mtrace_log] R: 0x8000211c (len=4) data=0x000dc783[0m
[1;34m[src/memory/paddr.c:97 mtrace_log] R: 0x800029c3 (len=1) data=0x00000020[0m
0x8000211c: 00 0d c7 83 lbu	a5, 0(s11)
[1;34m[src/memory/paddr.c:97 mtrace_log] R: 0x80002120 (len=4) data=0x00148493[0m
0x80002120: 00 14 84 93 addi	s1, s1, 1
[1;34m[src/memory/paddr.c:97 mtrace_log] R: 0x80002124 (len=4) data=0x001d8d93[0m
0x80002124: 00 1d 8d 93 addi	s11, s11, 1
[1;34m[src/memory/paddr.c:97 mtrace_log] R: 0x80002128 (len=4) data=0xfef48fa3[0m
[1;34m[src/memory/paddr.c:97 mtrace_log] W: 0x80095530 (len=1) data=0x00000020[0m
0x80002128: fe f4 8f a3 sb	a5, -1(s1)
[1;34m[src/memory/paddr.c:97 mtrace_log] R: 0x8000212c (len=4) data=0xfe9718e3[0m
0x8000212c: fe 97 18 e3 bne	a4, s1, -0x10
[1;34m[src/memory/paddr.c:97 mtrace_log] R: 0x8000211c (len=4) data=0x000dc783[0m
[1;34m[src/memory/paddr.c:97 mtrace_log] R: 0x800029c4 (len=1) data=0x00000074[0m
0x8000211c: 00 0d c7 83 lbu	a5, 0(s11)
[1;34m[src/memory/paddr.c:97 mtrace_log] R: 0x80002120 (len=4) data=0x00148493[0m
0x80002120: 00 14 84 93 addi	s1, s1, 1
[1;34m[src/memory/paddr.c:97 mtrace_log] R: 0x80002124 (len=4) data=0x001d8d93[0m
0x80002124: 00 1d 8d 93 addi	s11, s11, 1
[1;34m[src/memory/paddr.c:97 mtrace_log] R: 0x80002128 (len=4) data=0xfef48fa3[0m
[1;34m[src/memory/paddr.c:97 mtrace_log] W: 0x80095531 (len=1) data=0x00000074[0m
0x80002128: fe f4 8f a3 sb	a5, -1(s1)
[1;34m[src/memory/paddr.c:97 mtrace_log] R: 0x8000212c (len=4) data=0xfe9718e3[0m
0x8000212c: fe 97 18 e3 bne	a4, s1, -0x10
[1;34m[src/memory/paddr.c:97 mtrace_log] R: 0x8000211c (len=4) data=0x000dc783[0m
[1;34m[src/memory/paddr.c:97 mtrace_log] R: 0x800029c5 (len=1) data=0x00000065[0m
0x8000211c: 00 0d c7 83 lbu	a5, 0(s11)
[1;34m[src/memory/paddr.c:97 mtrace_log] R: 0x80002120 (len=4) data=0x00148493[0m
0x80002120: 00 14 84 93 addi	s1, s1, 1
[1;34m[src/memory/paddr.c:97 mtrace_log] R: 0x80002124 (len=4) data=0x001d8d93[0m
0x80002124: 00 1d 8d 93 addi	s11, s11, 1
[1;34m[src/memory/paddr.c:97 mtrace_log] R: 0x80002128 (len=4) data=0xfef48fa3[0m
[1;34m[src/memory/paddr.c:97 mtrace_log] W: 0x80095532 (len=1) data=0x00000065[0m
0x80002128: fe f4 8f a3 sb	a5, -1(s1)
[1;34m[src/memory/paddr.c:97 mtrace_log] R: 0x8000212c (len=4) data=0xfe9718e3[0m
0x8000212c: fe 97 18 e3 bne	a4, s1, -0x10
[1;34m[src/memory/paddr.c:97 mtrace_log] R: 0x8000211c (len=4) data=0x000dc783[0m
[1;34m[src/memory/paddr.c:97 mtrace_log] R: 0x800029c6 (len=1) data=0x00000073[0m
0x8000211c: 00 0d c7 83 lbu	a5, 0(s11)
[1;34m[src/memory/paddr.c:97 mtrace_log] R: 0x80002120 (len=4) data=0x00148493[0m
0x80002120: 00 14 84 93 addi	s1, s1, 1
[1;34m[src/memory/paddr.c:97 mtrace_log] R: 0x80002124 (len=4) data=0x001d8d93[0m
0x80002124: 00 1d 8d 93 addi	s11, s11, 1
[1;34m[src/memory/paddr.c:97 mtrace_log] R: 0x80002128 (len=4) data=0xfef48fa3[0m
[1;34m[src/memory/paddr.c:97 mtrace_log] W: 0x80095533 (len=1) data=0x00000073[0m
0x80002128: fe f4 8f a3 sb	a5, -1(s1)
[1;34m[src/memory/paddr.c:97 mtrace_log] R: 0x8000212c (len=4) data=0xfe9718e3[0m
0x8000212c: fe 97 18 e3 bne	a4, s1, -0x10
[1;34m[src/memory/paddr.c:97 mtrace_log] R: 0x8000211c (len=4) data=0x000dc783[0m
[1;34m[src/memory/paddr.c:97 mtrace_log] R: 0x800029c7 (len=1) data=0x00000074[0m
0x8000211c: 00 0d c7 83 lbu	a5, 0(s11)
[1;34m[src/memory/paddr.c:97 mtrace_log] R: 0x80002120 (len=4) data=0x00148493[0m
0x80002120: 00 14 84 93 addi	s1, s1, 1
[1;34m[src/memory/paddr.c:97 mtrace_log] R: 0x80002124 (len=4) data=0x001d8d93[0m
0x80002124: 00 1d 8d 93 addi	s11, s11, 1
[1;34m[src/memory/paddr.c:97 mtrace_log] R: 0x80002128 (len=4) data=0xfef48fa3[0m
[1;34m[src/memory/paddr.c:97 mtrace_log] W: 0x80095534 (len=1) data=0x00000074[0m
0x80002128: fe f4 8f a3 sb	a5, -1(s1)
[1;34m[src/memory/paddr.c:97 mtrace_log] R: 0x8000212c (len=4) data=0xfe9718e3[0m
0x8000212c: fe 97 18 e3 bne	a4, s1, -0x10
[1;34m[src/memory/paddr.c:97 mtrace_log] R: 0x80002130 (len=4) data=0x40a684b3[0m
0x80002130: 40 a6 84 b3 sub	s1, a3, a0
[1;34m[src/memory/paddr.c:97 mtrace_log] R: 0x80002134 (len=4) data=0x00140593[0m
0x80002134: 00 14 05 93 addi	a1, s0, 1
[1;34m[src/memory/paddr.c:97 mtrace_log] R: 0x80002138 (len=4) data=0x009704b3[0m
0x80002138: 00 97 04 b3 add	s1, a4, s1
[1;34m[src/memory/paddr.c:97 mtrace_log] R: 0x8000213c (len=4) data=0x02000793[0m
0x8000213c: 02 00 07 93 addi	a5, zero, 0x20
[1;34m[src/memory/paddr.c:97 mtrace_log] R: 0x80002140 (len=4) data=0x16d55663[0m
0x80002140: 16 d5 56 63 bge	a0, a3, 0x16c
[1;34m[src/memory/paddr.c:97 mtrace_log] R: 0x800022ac (len=4) data=0x00144783[0m
[1;34m[src/memory/paddr.c:97 mtrace_log] R: 0x8000291c (len=1) data=0x0000000a[0m
0x800022ac: 00 14 47 83 lbu	a5, 1(s0)
[1;34m[src/memory/paddr.c:97 mtrace_log] R: 0x800022b0 (len=4) data=0x01c12d83[0m
[1;34m[src/memory/paddr.c:97 mtrace_log] R: 0x8009df5c (len=4) data=0x00000000[0m
0x800022b0: 01 c1 2d 83 lw	s11, 0x1c(sp)
[1;34m[src/memory/paddr.c:97 mtrace_log] R: 0x800022b4 (len=4) data=0x00070493[0m
0x800022b4: 00 07 04 93 mv	s1, a4
[1;34m[src/memory/paddr.c:97 mtrace_log] R: 0x800022b8 (len=4) data=0xbc0792e3[0m
0x800022b8: bc 07 92 e3 bnez	a5, -0x43c
[1;34m[src/memory/paddr.c:97 mtrace_log] R: 0x80001e7c (len=4) data=0x05578c63[0m
0x80001e7c: 05 57 8c 63 beq	a5, s5, 0x58
[1;34m[src/memory/paddr.c:97 mtrace_log] R: 0x80001e80 (len=4) data=0x00f48023[0m
[1;34m[src/memory/paddr.c:97 mtrace_log] W: 0x80095535 (len=1) data=0x0000000a[0m
0x80001e80: 00 f4 80 23 sb	a5, 0(s1)
[1;34m[src/memory/paddr.c:97 mtrace_log] R: 0x80001e84 (len=4) data=0x0015c783[0m
[1;34m[src/memory/paddr.c:97 mtrace_log] R: 0x8000291d (len=1) data=0x00000000[0m
0x80001e84: 00 15 c7 83 lbu	a5, 1(a1)
[1;34m[src/memory/paddr.c:97 mtrace_log] R: 0x80001e88 (len=4) data=0x00148493[0m
0x80001e88: 00 14 84 93 addi	s1, s1, 1
[1;34m[src/memory/paddr.c:97 mtrace_log] R: 0x80001e8c (len=4) data=0x00158593[0m
0x80001e8c: 00 15 85 93 addi	a1, a1, 1
[1;34m[src/memory/paddr.c:97 mtrace_log] R: 0x80001e90 (len=4) data=0xfe0796e3[0m
0x80001e90: fe 07 96 e3 bnez	a5, -0x14
[1;34m[src/memory/paddr.c:97 mtrace_log] R: 0x80001e94 (len=4) data=0x04812403[0m
[1;34m[src/memory/paddr.c:97 mtrace_log] R: 0x8009df88 (len=4) data=0x00000074[0m
0x80001e94: 04 81 24 03 lw	s0, 0x48(sp)
[1;34m[src/memory/paddr.c:97 mtrace_log] R: 0x80001e98 (len=4) data=0x04012903[0m
[1;34m[src/memory/paddr.c:97 mtrace_log] R: 0x8009df80 (len=4) data=0x00000100[0m
0x80001e98: 04 01 29 03 lw	s2, 0x40(sp)
[1;34m[src/memory/paddr.c:97 mtrace_log] R: 0x80001e9c (len=4) data=0x03c12983[0m
[1;34m[src/memory/paddr.c:97 mtrace_log] R: 0x8009df7c (len=4) data=0x80002914[0m
0x80001e9c: 03 c1 29 83 lw	s3, 0x3c(sp)
[1;34m[src/memory/paddr.c:97 mtrace_log] R: 0x80001ea0 (len=4) data=0x03812a03[0m
[1;34m[src/memory/paddr.c:97 mtrace_log] R: 0x8009df78 (len=4) data=0x00000000[0m
0x80001ea0: 03 81 2a 03 lw	s4, 0x38(sp)
[1;34m[src/memory/paddr.c:97 mtrace_log] R: 0x80001ea4 (len=4) data=0x03412a83[0m
[1;34m[src/memory/paddr.c:97 mtrace_log] R: 0x8009df74 (len=4) data=0x00000000[0m
0x80001ea4: 03 41 2a 83 lw	s5, 0x34(sp)
[1;34m[src/memory/paddr.c:97 mtrace_log] R: 0x80001ea8 (len=4) data=0x02c12b83[0m
[1;34m[src/memory/paddr.c:97 mtrace_log] R: 0x8009df6c (len=4) data=0x00000000[0m
0x80001ea8: 02 c1 2b 83 lw	s7, 0x2c(sp)
[1;34m[src/memory/paddr.c:97 mtrace_log] R: 0x80001eac (len=4) data=0x02812c03[0m
[1;34m[src/memory/paddr.c:97 mtrace_log] R: 0x8009df68 (len=4) data=0x00000000[0m
0x80001eac: 02 81 2c 03 lw	s8, 0x28(sp)
[1;34m[src/memory/paddr.c:97 mtrace_log] R: 0x80001eb0 (len=4) data=0x02412c83[0m
[1;34m[src/memory/paddr.c:97 mtrace_log] R: 0x8009df64 (len=4) data=0x00000000[0m
0x80001eb0: 02 41 2c 83 lw	s9, 0x24(sp)
[1;34m[src/memory/paddr.c:97 mtrace_log] R: 0x80001eb4 (len=4) data=0x02012d03[0m
[1;34m[src/memory/paddr.c:97 mtrace_log] R: 0x8009df60 (len=4) data=0x00000000[0m
0x80001eb4: 02 01 2d 03 lw	s10, 0x20(sp)
[1;34m[src/memory/paddr.c:97 mtrace_log] R: 0x80001eb8 (len=4) data=0x00048023[0m
[1;34m[src/memory/paddr.c:97 mtrace_log] W: 0x80095536 (len=1) data=0x00000000[0m
0x80001eb8: 00 04 80 23 sb	zero, 0(s1)
[1;34m[src/memory/paddr.c:97 mtrace_log] R: 0x80001ebc (len=4) data=0x04c12083[0m
[1;34m[src/memory/paddr.c:97 mtrace_log] R: 0x8009df8c (len=4) data=0x80002340[0m
0x80001ebc: 04 c1 20 83 lw	ra, 0x4c(sp)
[1;34m[src/memory/paddr.c:97 mtrace_log] R: 0x80001ec0 (len=4) data=0x41648533[0m
0x80001ec0: 41 64 85 33 sub	a0, s1, s6
[1;34m[src/memory/paddr.c:97 mtrace_log] R: 0x80001ec4 (len=4) data=0x04412483[0m
[1;34m[src/memory/paddr.c:97 mtrace_log] R: 0x8009df84 (len=4) data=0x80002ec8[0m
0x80001ec4: 04 41 24 83 lw	s1, 0x44(sp)
[1;34m[src/memory/paddr.c:97 mtrace_log] R: 0x80001ec8 (len=4) data=0x03012b03[0m
[1;34m[src/memory/paddr.c:97 mtrace_log] R: 0x8009df70 (len=4) data=0x00000000[0m
0x80001ec8: 03 01 2b 03 lw	s6, 0x30(sp)
[1;34m[src/memory/paddr.c:97 mtrace_log] R: 0x80001ecc (len=4) data=0x05010113[0m
0x80001ecc: 05 01 01 13 addi	sp, sp, 0x50
[1;34m[src/memory/paddr.c:97 mtrace_log] R: 0x80001ed0 (len=4) data=0x00008067[0m
0x80001ed0: 00 00 80 67 ret
[1;34m[src/memory/paddr.c:97 mtrace_log] R: 0x80002340 (len=4) data=0x00093797[0m
0x80002340: 00 09 37 97 auipc	a5, 0x93
[1;34m[src/memory/paddr.c:97 mtrace_log] R: 0x80002344 (len=4) data=0x1dc78793[0m
0x80002344: 1d c7 87 93 addi	a5, a5, 0x1dc
[1;34m[src/memory/paddr.c:97 mtrace_log] R: 0x80002348 (len=4) data=0x0007c703[0m
[1;34m[src/memory/paddr.c:97 mtrace_log] R: 0x8009551c (len=1) data=0x00000020[0m
0x80002348: 00 07 c7 03 lbu	a4, 0(a5)
[1;34m[src/memory/paddr.c:97 mtrace_log] R: 0x8000234c (len=4) data=0x00070e63[0m
0x8000234c: 00 07 0e 63 beqz	a4, 0x1c
[1;34m[src/memory/paddr.c:97 mtrace_log] R: 0x80002350 (len=4) data=0xa00006b7[0m
0x80002350: a0 00 06 b7 lui	a3, 0xa0000
[1;34m[src/memory/paddr.c:97 mtrace_log] R: 0x80002354 (len=4) data=0x3f868693[0m
0x80002354: 3f 86 86 93 addi	a3, a3, 0x3f8
[1;34m[src/memory/paddr.c:97 mtrace_log] R: 0x80002358 (len=4) data=0x00178793[0m
0x80002358: 00 17 87 93 addi	a5, a5, 1
[1;34m[src/memory/paddr.c:97 mtrace_log] R: 0x8000235c (len=4) data=0x00e68023[0m
[1;34m[src/memory/paddr.c:97 mtrace_log] W: 0xa00003f8 (len=1) data=0x00000020[0m
0x8000235c: 00 e6 80 23 sb	a4, 0(a3)
[1;34m[src/memory/paddr.c:97 mtrace_log] R: 0x80002360 (len=4) data=0x0007c703[0m
[1;34m[src/memory/paddr.c:97 mtrace_log] R: 0x8009551d (len=1) data=0x00000020[0m
0x80002360: 00 07 c7 03 lbu	a4, 0(a5)
[1;34m[src/memory/paddr.c:97 mtrace_log] R: 0x80002364 (len=4) data=0xfe071ae3[0m
0x80002364: fe 07 1a e3 bnez	a4, -0xc
[1;34m[src/memory/paddr.c:97 mtrace_log] R: 0x80002358 (len=4) data=0x00178793[0m
0x80002358: 00 17 87 93 addi	a5, a5, 1
[1;34m[src/memory/paddr.c:97 mtrace_log] R: 0x8000235c (len=4) data=0x00e68023[0m
[1;34m[src/memory/paddr.c:97 mtrace_log] W: 0xa00003f8 (len=1) data=0x00000020[0m
0x8000235c: 00 e6 80 23 sb	a4, 0(a3)
[1;34m[src/memory/paddr.c:97 mtrace_log] R: 0x80002360 (len=4) data=0x0007c703[0m
[1;34m[src/memory/paddr.c:97 mtrace_log] R: 0x8009551e (len=1) data=0x00000074[0m
0x80002360: 00 07 c7 03 lbu	a4, 0(a5)
[1;34m[src/memory/paddr.c:97 mtrace_log] R: 0x80002364 (len=4) data=0xfe071ae3[0m
0x80002364: fe 07 1a e3 bnez	a4, -0xc
[1;34m[src/memory/paddr.c:97 mtrace_log] R: 0x80002358 (len=4) data=0x00178793[0m
0x80002358: 00 17 87 93 addi	a5, a5, 1
[1;34m[src/memory/paddr.c:97 mtrace_log] R: 0x8000235c (len=4) data=0x00e68023[0m
[1;34m[src/memory/paddr.c:97 mtrace_log] W: 0xa00003f8 (len=1) data=0x00000074[0m
0x8000235c: 00 e6 80 23 sb	a4, 0(a3)
[1;34m[src/memory/paddr.c:97 mtrace_log] R: 0x80002360 (len=4) data=0x0007c703[0m
[1;34m[src/memory/paddr.c:97 mtrace_log] R: 0x8009551f (len=1) data=0x0000003a[0m
0x80002360: 00 07 c7 03 lbu	a4, 0(a5)
[1;34m[src/memory/paddr.c:97 mtrace_log] R: 0x80002364 (len=4) data=0xfe071ae3[0m
0x80002364: fe 07 1a e3 bnez	a4, -0xc
[1;34m[src/memory/paddr.c:97 mtrace_log] R: 0x80002358 (len=4) data=0x00178793[0m
0x80002358: 00 17 87 93 addi	a5, a5, 1
[1;34m[src/memory/paddr.c:97 mtrace_log] R: 0x8000235c (len=4) data=0x00e68023[0m
[1;34m[src/memory/paddr.c:97 mtrace_log] W: 0xa00003f8 (len=1) data=0x0000003a[0m
0x8000235c: 00 e6 80 23 sb	a4, 0(a3)
[1;34m[src/memory/paddr.c:97 mtrace_log] R: 0x80002360 (len=4) data=0x0007c703[0m
[1;34m[src/memory/paddr.c:97 mtrace_log] R: 0x80095520 (len=1) data=0x00000020[0m
0x80002360: 00 07 c7 03 lbu	a4, 0(a5)
[1;34m[src/memory/paddr.c:97 mtrace_log] R: 0x80002364 (len=4) data=0xfe071ae3[0m
0x80002364: fe 07 1a e3 bnez	a4, -0xc
[1;34m[src/memory/paddr.c:97 mtrace_log] R: 0x80002358 (len=4) data=0x00178793[0m
0x80002358: 00 17 87 93 addi	a5, a5, 1
[1;34m[src/memory/paddr.c:97 mtrace_log] R: 0x8000235c (len=4) data=0x00e68023[0m
[1;34m[src/memory/paddr.c:97 mtrace_log] W: 0xa00003f8 (len=1) data=0x00000020[0m
0x8000235c: 00 e6 80 23 sb	a4, 0(a3)
[1;34m[src/memory/paddr.c:97 mtrace_log] R: 0x80002360 (len=4) data=0x0007c703[0m
[1;34m[src/memory/paddr.c:97 mtrace_log] R: 0x80095521 (len=1) data=0x00000072[0m
0x80002360: 00 07 c7 03 lbu	a4, 0(a5)
[1;34m[src/memory/paddr.c:97 mtrace_log] R: 0x80002364 (len=4) data=0xfe071ae3[0m
0x80002364: fe 07 1a e3 bnez	a4, -0xc
[1;34m[src/memory/paddr.c:97 mtrace_log] R: 0x80002358 (len=4) data=0x00178793[0m
0x80002358: 00 17 87 93 addi	a5, a5, 1
[1;34m[src/memory/paddr.c:97 mtrace_log] R: 0x8000235c (len=4) data=0x00e68023[0m
[1;34m[src/memory/paddr.c:97 mtrace_log] W: 0xa00003f8 (len=1) data=0x00000072[0m
0x8000235c: 00 e6 80 23 sb	a4, 0(a3)
[1;34m[src/memory/paddr.c:97 mtrace_log] R: 0x80002360 (len=4) data=0x0007c703[0m
[1;34m[src/memory/paddr.c:97 mtrace_log] R: 0x80095522 (len=1) data=0x00000065[0m
0x80002360: 00 07 c7 03 lbu	a4, 0(a5)
[1;34m[src/memory/paddr.c:97 mtrace_log] R: 0x80002364 (len=4) data=0xfe071ae3[0m
0x80002364: fe 07 1a e3 bnez	a4, -0xc
[1;34m[src/memory/paddr.c:97 mtrace_log] R: 0x80002358 (len=4) data=0x00178793[0m
0x80002358: 00 17 87 93 addi	a5, a5, 1
[1;34m[src/memory/paddr.c:97 mtrace_log] R: 0x8000235c (len=4) data=0x00e68023[0m
[1;34m[src/memory/paddr.c:97 mtrace_log] W: 0xa00003f8 (len=1) data=0x00000065[0m
0x8000235c: 00 e6 80 23 sb	a4, 0(a3)
[1;34m[src/memory/paddr.c:97 mtrace_log] R: 0x80002360 (len=4) data=0x0007c703[0m
[1;34m[src/memory/paddr.c:97 mtrace_log] R: 0x80095523 (len=1) data=0x00000061[0m
0x80002360: 00 07 c7 03 lbu	a4, 0(a5)
[1;34m[src/memory/paddr.c:97 mtrace_log] R: 0x80002364 (len=4) data=0xfe071ae3[0m
0x80002364: fe 07 1a e3 bnez	a4, -0xc
[1;34m[src/memory/paddr.c:97 mtrace_log] R: 0x80002358 (len=4) data=0x00178793[0m
0x80002358: 00 17 87 93 addi	a5, a5, 1
[1;34m[src/memory/paddr.c:97 mtrace_log] R: 0x8000235c (len=4) data=0x00e68023[0m
[1;34m[src/memory/paddr.c:97 mtrace_log] W: 0xa00003f8 (len=1) data=0x00000061[0m
0x8000235c: 00 e6 80 23 sb	a4, 0(a3)
[1;34m[src/memory/paddr.c:97 mtrace_log] R: 0x80002360 (len=4) data=0x0007c703[0m
[1;34m[src/memory/paddr.c:97 mtrace_log] R: 0x80095524 (len=1) data=0x0000006c[0m
0x80002360: 00 07 c7 03 lbu	a4, 0(a5)
[1;34m[src/memory/paddr.c:97 mtrace_log] R: 0x80002364 (len=4) data=0xfe071ae3[0m
0x80002364: fe 07 1a e3 bnez	a4, -0xc
[1;34m[src/memory/paddr.c:97 mtrace_log] R: 0x80002358 (len=4) data=0x00178793[0m
0x80002358: 00 17 87 93 addi	a5, a5, 1
[1;34m[src/memory/paddr.c:97 mtrace_log] R: 0x8000235c (len=4) data=0x00e68023[0m
[1;34m[src/memory/paddr.c:97 mtrace_log] W: 0xa00003f8 (len=1) data=0x0000006c[0m
0x8000235c: 00 e6 80 23 sb	a4, 0(a3)
[1;34m[src/memory/paddr.c:97 mtrace_log] R: 0x80002360 (len=4) data=0x0007c703[0m
[1;34m[src/memory/paddr.c:97 mtrace_log] R: 0x80095525 (len=1) data=0x0000002d[0m
0x80002360: 00 07 c7 03 lbu	a4, 0(a5)
[1;34m[src/memory/paddr.c:97 mtrace_log] R: 0x80002364 (len=4) data=0xfe071ae3[0m
0x80002364: fe 07 1a e3 bnez	a4, -0xc
[1;34m[src/memory/paddr.c:97 mtrace_log] R: 0x80002358 (len=4) data=0x00178793[0m
0x80002358: 00 17 87 93 addi	a5, a5, 1
[1;34m[src/memory/paddr.c:97 mtrace_log] R: 0x8000235c (len=4) data=0x00e68023[0m
[1;34m[src/memory/paddr.c:97 mtrace_log] W: 0xa00003f8 (len=1) data=0x0000002d[0m
0x8000235c: 00 e6 80 23 sb	a4, 0(a3)
[1;34m[src/memory/paddr.c:97 mtrace_log] R: 0x80002360 (len=4) data=0x0007c703[0m
[1;34m[src/memory/paddr.c:97 mtrace_log] R: 0x80095526 (len=1) data=0x00000074[0m
0x80002360: 00 07 c7 03 lbu	a4, 0(a5)
[1;34m[src/memory/paddr.c:97 mtrace_log] R: 0x80002364 (len=4) data=0xfe071ae3[0m
0x80002364: fe 07 1a e3 bnez	a4, -0xc
[1;34m[src/memory/paddr.c:97 mtrace_log] R: 0x80002358 (len=4) data=0x00178793[0m
0x80002358: 00 17 87 93 addi	a5, a5, 1
[1;34m[src/memory/paddr.c:97 mtrace_log] R: 0x8000235c (len=4) data=0x00e68023[0m
[1;34m[src/memory/paddr.c:97 mtrace_log] W: 0xa00003f8 (len=1) data=0x00000074[0m
0x8000235c: 00 e6 80 23 sb	a4, 0(a3)
[1;34m[src/memory/paddr.c:97 mtrace_log] R: 0x80002360 (len=4) data=0x0007c703[0m
[1;34m[src/memory/paddr.c:97 mtrace_log] R: 0x80095527 (len=1) data=0x00000069[0m
0x80002360: 00 07 c7 03 lbu	a4, 0(a5)
[1;34m[src/memory/paddr.c:97 mtrace_log] R: 0x80002364 (len=4) data=0xfe071ae3[0m
0x80002364: fe 07 1a e3 bnez	a4, -0xc
[1;34m[src/memory/paddr.c:97 mtrace_log] R: 0x80002358 (len=4) data=0x00178793[0m
0x80002358: 00 17 87 93 addi	a5, a5, 1
[1;34m[src/memory/paddr.c:97 mtrace_log] R: 0x8000235c (len=4) data=0x00e68023[0m
[1;34m[src/memory/paddr.c:97 mtrace_log] W: 0xa00003f8 (len=1) data=0x00000069[0m
0x8000235c: 00 e6 80 23 sb	a4, 0(a3)
[1;34m[src/memory/paddr.c:97 mtrace_log] R: 0x80002360 (len=4) data=0x0007c703[0m
[1;34m[src/memory/paddr.c:97 mtrace_log] R: 0x80095528 (len=1) data=0x0000006d[0m
0x80002360: 00 07 c7 03 lbu	a4, 0(a5)
[1;34m[src/memory/paddr.c:97 mtrace_log] R: 0x80002364 (len=4) data=0xfe071ae3[0m
0x80002364: fe 07 1a e3 bnez	a4, -0xc
[1;34m[src/memory/paddr.c:97 mtrace_log] R: 0x80002358 (len=4) data=0x00178793[0m
0x80002358: 00 17 87 93 addi	a5, a5, 1
[1;34m[src/memory/paddr.c:97 mtrace_log] R: 0x8000235c (len=4) data=0x00e68023[0m
[1;34m[src/memory/paddr.c:97 mtrace_log] W: 0xa00003f8 (len=1) data=0x0000006d[0m
0x8000235c: 00 e6 80 23 sb	a4, 0(a3)
[1;34m[src/memory/paddr.c:97 mtrace_log] R: 0x80002360 (len=4) data=0x0007c703[0m
[1;34m[src/memory/paddr.c:97 mtrace_log] R: 0x80095529 (len=1) data=0x00000065[0m
0x80002360: 00 07 c7 03 lbu	a4, 0(a5)
[1;34m[src/memory/paddr.c:97 mtrace_log] R: 0x80002364 (len=4) data=0xfe071ae3[0m
0x80002364: fe 07 1a e3 bnez	a4, -0xc
[1;34m[src/memory/paddr.c:97 mtrace_log] R: 0x80002358 (len=4) data=0x00178793[0m
0x80002358: 00 17 87 93 addi	a5, a5, 1
[1;34m[src/memory/paddr.c:97 mtrace_log] R: 0x8000235c (len=4) data=0x00e68023[0m
[1;34m[src/memory/paddr.c:97 mtrace_log] W: 0xa00003f8 (len=1) data=0x00000065[0m
0x8000235c: 00 e6 80 23 sb	a4, 0(a3)
[1;34m[src/memory/paddr.c:97 mtrace_log] R: 0x80002360 (len=4) data=0x0007c703[0m
[1;34m[src/memory/paddr.c:97 mtrace_log] R: 0x8009552a (len=1) data=0x00000020[0m
0x80002360: 00 07 c7 03 lbu	a4, 0(a5)
[1;34m[src/memory/paddr.c:97 mtrace_log] R: 0x80002364 (len=4) data=0xfe071ae3[0m
0x80002364: fe 07 1a e3 bnez	a4, -0xc
[1;34m[src/memory/paddr.c:97 mtrace_log] R: 0x80002358 (len=4) data=0x00178793[0m
0x80002358: 00 17 87 93 addi	a5, a5, 1
[1;34m[src/memory/paddr.c:97 mtrace_log] R: 0x8000235c (len=4) data=0x00e68023[0m
[1;34m[src/memory/paddr.c:97 mtrace_log] W: 0xa00003f8 (len=1) data=0x00000020[0m
0x8000235c: 00 e6 80 23 sb	a4, 0(a3)
[1;34m[src/memory/paddr.c:97 mtrace_log] R: 0x80002360 (len=4) data=0x0007c703[0m
[1;34m[src/memory/paddr.c:97 mtrace_log] R: 0x8009552b (len=1) data=0x00000063[0m
0x80002360: 00 07 c7 03 lbu	a4, 0(a5)
[1;34m[src/memory/paddr.c:97 mtrace_log] R: 0x80002364 (len=4) data=0xfe071ae3[0m
0x80002364: fe 07 1a e3 bnez	a4, -0xc
[1;34m[src/memory/paddr.c:97 mtrace_log] R: 0x80002358 (len=4) data=0x00178793[0m
0x80002358: 00 17 87 93 addi	a5, a5, 1
[1;34m[src/memory/paddr.c:97 mtrace_log] R: 0x8000235c (len=4) data=0x00e68023[0m
[1;34m[src/memory/paddr.c:97 mtrace_log] W: 0xa00003f8 (len=1) data=0x00000063[0m
0x8000235c: 00 e6 80 23 sb	a4, 0(a3)
[1;34m[src/memory/paddr.c:97 mtrace_log] R: 0x80002360 (len=4) data=0x0007c703[0m
[1;34m[src/memory/paddr.c:97 mtrace_log] R: 0x8009552c (len=1) data=0x0000006c[0m
0x80002360: 00 07 c7 03 lbu	a4, 0(a5)
[1;34m[src/memory/paddr.c:97 mtrace_log] R: 0x80002364 (len=4) data=0xfe071ae3[0m
0x80002364: fe 07 1a e3 bnez	a4, -0xc
[1;34m[src/memory/paddr.c:97 mtrace_log] R: 0x80002358 (len=4) data=0x00178793[0m
0x80002358: 00 17 87 93 addi	a5, a5, 1
[1;34m[src/memory/paddr.c:97 mtrace_log] R: 0x8000235c (len=4) data=0x00e68023[0m
[1;34m[src/memory/paddr.c:97 mtrace_log] W: 0xa00003f8 (len=1) data=0x0000006c[0m
0x8000235c: 00 e6 80 23 sb	a4, 0(a3)
[1;34m[src/memory/paddr.c:97 mtrace_log] R: 0x80002360 (len=4) data=0x0007c703[0m
[1;34m[src/memory/paddr.c:97 mtrace_log] R: 0x8009552d (len=1) data=0x0000006f[0m
0x80002360: 00 07 c7 03 lbu	a4, 0(a5)
[1;34m[src/memory/paddr.c:97 mtrace_log] R: 0x80002364 (len=4) data=0xfe071ae3[0m
0x80002364: fe 07 1a e3 bnez	a4, -0xc
[1;34m[src/memory/paddr.c:97 mtrace_log] R: 0x80002358 (len=4) data=0x00178793[0m
0x80002358: 00 17 87 93 addi	a5, a5, 1
[1;34m[src/memory/paddr.c:97 mtrace_log] R: 0x8000235c (len=4) data=0x00e68023[0m
[1;34m[src/memory/paddr.c:97 mtrace_log] W: 0xa00003f8 (len=1) data=0x0000006f[0m
0x8000235c: 00 e6 80 23 sb	a4, 0(a3)
[1;34m[src/memory/paddr.c:97 mtrace_log] R: 0x80002360 (len=4) data=0x0007c703[0m
[1;34m[src/memory/paddr.c:97 mtrace_log] R: 0x8009552e (len=1) data=0x00000063[0m
0x80002360: 00 07 c7 03 lbu	a4, 0(a5)
[1;34m[src/memory/paddr.c:97 mtrace_log] R: 0x80002364 (len=4) data=0xfe071ae3[0m
0x80002364: fe 07 1a e3 bnez	a4, -0xc
[1;34m[src/memory/paddr.c:97 mtrace_log] R: 0x80002358 (len=4) data=0x00178793[0m
0x80002358: 00 17 87 93 addi	a5, a5, 1
[1;34m[src/memory/paddr.c:97 mtrace_log] R: 0x8000235c (len=4) data=0x00e68023[0m
[1;34m[src/memory/paddr.c:97 mtrace_log] W: 0xa00003f8 (len=1) data=0x00000063[0m
0x8000235c: 00 e6 80 23 sb	a4, 0(a3)
[1;34m[src/memory/paddr.c:97 mtrace_log] R: 0x80002360 (len=4) data=0x0007c703[0m
[1;34m[src/memory/paddr.c:97 mtrace_log] R: 0x8009552f (len=1) data=0x0000006b[0m
0x80002360: 00 07 c7 03 lbu	a4, 0(a5)
[1;34m[src/memory/paddr.c:97 mtrace_log] R: 0x80002364 (len=4) data=0xfe071ae3[0m
0x80002364: fe 07 1a e3 bnez	a4, -0xc
[1;34m[src/memory/paddr.c:97 mtrace_log] R: 0x80002358 (len=4) data=0x00178793[0m
0x80002358: 00 17 87 93 addi	a5, a5, 1
[1;34m[src/memory/paddr.c:97 mtrace_log] R: 0x8000235c (len=4) data=0x00e68023[0m
[1;34m[src/memory/paddr.c:97 mtrace_log] W: 0xa00003f8 (len=1) data=0x0000006b[0m
0x8000235c: 00 e6 80 23 sb	a4, 0(a3)
[1;34m[src/memory/paddr.c:97 mtrace_log] R: 0x80002360 (len=4) data=0x0007c703[0m
[1;34m[src/memory/paddr.c:97 mtrace_log] R: 0x80095530 (len=1) data=0x00000020[0m
0x80002360: 00 07 c7 03 lbu	a4, 0(a5)
[1;34m[src/memory/paddr.c:97 mtrace_log] R: 0x80002364 (len=4) data=0xfe071ae3[0m
0x80002364: fe 07 1a e3 bnez	a4, -0xc
[1;34m[src/memory/paddr.c:97 mtrace_log] R: 0x80002358 (len=4) data=0x00178793[0m
0x80002358: 00 17 87 93 addi	a5, a5, 1
[1;34m[src/memory/paddr.c:97 mtrace_log] R: 0x8000235c (len=4) data=0x00e68023[0m
[1;34m[src/memory/paddr.c:97 mtrace_log] W: 0xa00003f8 (len=1) data=0x00000020[0m
0x8000235c: 00 e6 80 23 sb	a4, 0(a3)
[1;34m[src/memory/paddr.c:97 mtrace_log] R: 0x80002360 (len=4) data=0x0007c703[0m
[1;34m[src/memory/paddr.c:97 mtrace_log] R: 0x80095531 (len=1) data=0x00000074[0m
0x80002360: 00 07 c7 03 lbu	a4, 0(a5)
[1;34m[src/memory/paddr.c:97 mtrace_log] R: 0x80002364 (len=4) data=0xfe071ae3[0m
0x80002364: fe 07 1a e3 bnez	a4, -0xc
[1;34m[src/memory/paddr.c:97 mtrace_log] R: 0x80002358 (len=4) data=0x00178793[0m
0x80002358: 00 17 87 93 addi	a5, a5, 1
[1;34m[src/memory/paddr.c:97 mtrace_log] R: 0x8000235c (len=4) data=0x00e68023[0m
[1;34m[src/memory/paddr.c:97 mtrace_log] W: 0xa00003f8 (len=1) data=0x00000074[0m
0x8000235c: 00 e6 80 23 sb	a4, 0(a3)
[1;34m[src/memory/paddr.c:97 mtrace_log] R: 0x80002360 (len=4) data=0x0007c703[0m
[1;34m[src/memory/paddr.c:97 mtrace_log] R: 0x80095532 (len=1) data=0x00000065[0m
0x80002360: 00 07 c7 03 lbu	a4, 0(a5)
[1;34m[src/memory/paddr.c:97 mtrace_log] R: 0x80002364 (len=4) data=0xfe071ae3[0m
0x80002364: fe 07 1a e3 bnez	a4, -0xc
[1;34m[src/memory/paddr.c:97 mtrace_log] R: 0x80002358 (len=4) data=0x00178793[0m
0x80002358: 00 17 87 93 addi	a5, a5, 1
[1;34m[src/memory/paddr.c:97 mtrace_log] R: 0x8000235c (len=4) data=0x00e68023[0m
[1;34m[src/memory/paddr.c:97 mtrace_log] W: 0xa00003f8 (len=1) data=0x00000065[0m
0x8000235c: 00 e6 80 23 sb	a4, 0(a3)
[1;34m[src/memory/paddr.c:97 mtrace_log] R: 0x80002360 (len=4) data=0x0007c703[0m
[1;34m[src/memory/paddr.c:97 mtrace_log] R: 0x80095533 (len=1) data=0x00000073[0m
0x80002360: 00 07 c7 03 lbu	a4, 0(a5)
[1;34m[src/memory/paddr.c:97 mtrace_log] R: 0x80002364 (len=4) data=0xfe071ae3[0m
0x80002364: fe 07 1a e3 bnez	a4, -0xc
[1;34m[src/memory/paddr.c:97 mtrace_log] R: 0x80002358 (len=4) data=0x00178793[0m
0x80002358: 00 17 87 93 addi	a5, a5, 1
[1;34m[src/memory/paddr.c:97 mtrace_log] R: 0x8000235c (len=4) data=0x00e68023[0m
[1;34m[src/memory/paddr.c:97 mtrace_log] W: 0xa00003f8 (len=1) data=0x00000073[0m
0x8000235c: 00 e6 80 23 sb	a4, 0(a3)
[1;34m[src/memory/paddr.c:97 mtrace_log] R: 0x80002360 (len=4) data=0x0007c703[0m
[1;34m[src/memory/paddr.c:97 mtrace_log] R: 0x80095534 (len=1) data=0x00000074[0m
0x80002360: 00 07 c7 03 lbu	a4, 0(a5)
[1;34m[src/memory/paddr.c:97 mtrace_log] R: 0x80002364 (len=4) data=0xfe071ae3[0m
0x80002364: fe 07 1a e3 bnez	a4, -0xc
[1;34m[src/memory/paddr.c:97 mtrace_log] R: 0x80002358 (len=4) data=0x00178793[0m
0x80002358: 00 17 87 93 addi	a5, a5, 1
[1;34m[src/memory/paddr.c:97 mtrace_log] R: 0x8000235c (len=4) data=0x00e68023[0m
[1;34m[src/memory/paddr.c:97 mtrace_log] W: 0xa00003f8 (len=1) data=0x00000074[0m
0x8000235c: 00 e6 80 23 sb	a4, 0(a3)
[1;34m[src/memory/paddr.c:97 mtrace_log] R: 0x80002360 (len=4) data=0x0007c703[0m
[1;34m[src/memory/paddr.c:97 mtrace_log] R: 0x80095535 (len=1) data=0x0000000a[0m
0x80002360: 00 07 c7 03 lbu	a4, 0(a5)
[1;34m[src/memory/paddr.c:97 mtrace_log] R: 0x80002364 (len=4) data=0xfe071ae3[0m
0x80002364: fe 07 1a e3 bnez	a4, -0xc
[1;34m[src/memory/paddr.c:97 mtrace_log] R: 0x80002358 (len=4) data=0x00178793[0m
0x80002358: 00 17 87 93 addi	a5, a5, 1
[1;34m[src/memory/paddr.c:97 mtrace_log] R: 0x8000235c (len=4) data=0x00e68023[0m
[1;34m[src/memory/paddr.c:97 mtrace_log] W: 0xa00003f8 (len=1) data=0x0000000a[0m
0x8000235c: 00 e6 80 23 sb	a4, 0(a3)
[1;34m[src/memory/paddr.c:97 mtrace_log] R: 0x80002360 (len=4) data=0x0007c703[0m
[1;34m[src/memory/paddr.c:97 mtrace_log] R: 0x80095536 (len=1) data=0x00000000[0m
0x80002360: 00 07 c7 03 lbu	a4, 0(a5)
[1;34m[src/memory/paddr.c:97 mtrace_log] R: 0x80002364 (len=4) data=0xfe071ae3[0m
0x80002364: fe 07 1a e3 bnez	a4, -0xc
[1;34m[src/memory/paddr.c:97 mtrace_log] R: 0x80002368 (len=4) data=0x01c12083[0m
[1;34m[src/memory/paddr.c:97 mtrace_log] R: 0x8009dfac (len=4) data=0x80000e90[0m
0x80002368: 01 c1 20 83 lw	ra, 0x1c(sp)
[1;34m[src/memory/paddr.c:97 mtrace_log] R: 0x8000236c (len=4) data=0x04010113[0m
0x8000236c: 04 01 01 13 addi	sp, sp, 0x40
[1;34m[src/memory/paddr.c:97 mtrace_log] R: 0x80002370 (len=4) data=0x00008067[0m
0x80002370: 00 00 80 67 ret
[1;34m[src/memory/paddr.c:97 mtrace_log] R: 0x80000e90 (len=4) data=0x00140413[0m
0x80000e90: 00 14 04 13 addi	s0, s0, 1
[1;34m[src/memory/paddr.c:97 mtrace_log] R: 0x80000e94 (len=4) data=0x00448493[0m
0x80000e94: 00 44 84 93 addi	s1, s1, 4
[1;34m[src/memory/paddr.c:97 mtrace_log] R: 0x80000e98 (len=4) data=0xff2412e3[0m
0x80000e98: ff 24 12 e3 bne	s0, s2, -0x1c
[1;34m[src/memory/paddr.c:97 mtrace_log] R: 0x80000e7c (len=4) data=0x0004a603[0m
[1;34m[src/memory/paddr.c:97 mtrace_log] R: 0x80002ecc (len=4) data=0x00000000[0m
0x80000e7c: 00 04 a6 03 lw	a2, 0(s1)
[1;34m[src/memory/paddr.c:97 mtrace_log] R: 0x80000e80 (len=4) data=0x00060863[0m
0x80000e80: 00 06 08 63 beqz	a2, 0x10
[1;34m[src/memory/paddr.c:97 mtrace_log] R: 0x80000e90 (len=4) data=0x00140413[0m
0x80000e90: 00 14 04 13 addi	s0, s0, 1
[1;34m[src/memory/paddr.c:97 mtrace_log] R: 0x80000e94 (len=4) data=0x00448493[0m
0x80000e94: 00 44 84 93 addi	s1, s1, 4
[1;34m[src/memory/paddr.c:97 mtrace_log] R: 0x80000e98 (len=4) data=0xff2412e3[0m
0x80000e98: ff 24 12 e3 bne	s0, s2, -0x1c
[1;34m[src/memory/paddr.c:97 mtrace_log] R: 0x80000e7c (len=4) data=0x0004a603[0m
[1;34m[src/memory/paddr.c:97 mtrace_log] R: 0x80002ed0 (len=4) data=0x800029cc[0m
0x80000e7c: 00 04 a6 03 lw	a2, 0(s1)
[1;34m[src/memory/paddr.c:97 mtrace_log] R: 0x80000e80 (len=4) data=0x00060863[0m
0x80000e80: 00 06 08 63 beqz	a2, 0x10
[1;34m[src/memory/paddr.c:97 mtrace_log] R: 0x80000e84 (len=4) data=0x00040593[0m
0x80000e84: 00 04 05 93 mv	a1, s0
[1;34m[src/memory/paddr.c:97 mtrace_log] R: 0x80000e88 (len=4) data=0x00098513[0m
0x80000e88: 00 09 85 13 mv	a0, s3
[1;34m[src/memory/paddr.c:97 mtrace_log] R: 0x80000e8c (len=4) data=0x474010ef[0m
0x80000e8c: 47 40 10 ef jal	0x1474
[1;34m[src/memory/paddr.c:97 mtrace_log] R: 0x80002300 (len=4) data=0xfc010113[0m
0x80002300: fc 01 01 13 addi	sp, sp, -0x40
[1;34m[src/memory/paddr.c:97 mtrace_log] R: 0x80002304 (len=4) data=0x02410313[0m
0x80002304: 02 41 03 13 addi	t1, sp, 0x24
[1;34m[src/memory/paddr.c:97 mtrace_log] R: 0x80002308 (len=4) data=0x02b12223[0m
[1;34m[src/memory/paddr.c:97 mtrace_log] W: 0x8009dfb4 (len=4) data=0x00000076[0m
0x80002308: 02 b1 22 23 sw	a1, 0x24(sp)
[1;34m[src/memory/paddr.c:97 mtrace_log] R: 0x8000230c (len=4) data=0x02c12423[0m
[1;34m[src/memory/paddr.c:97 mtrace_log] W: 0x8009dfb8 (len=4) data=0x800029cc[0m
0x8000230c: 02 c1 24 23 sw	a2, 0x28(sp)
[1;34m[src/memory/paddr.c:97 mtrace_log] R: 0x80002310 (len=4) data=0x00050593[0m
0x80002310: 00 05 05 93 mv	a1, a0
[1;34m[src/memory/paddr.c:97 mtrace_log] R: 0x80002314 (len=4) data=0x00030613[0m
0x80002314: 00 03 06 13 mv	a2, t1
[1;34m[src/memory/paddr.c:97 mtrace_log] R: 0x80002318 (len=4) data=0x00093517[0m
0x80002318: 00 09 35 17 auipc	a0, 0x93
[1;34m[src/memory/paddr.c:97 mtrace_log] R: 0x8000231c (len=4) data=0x20450513[0m
0x8000231c: 20 45 05 13 addi	a0, a0, 0x204
[1;34m[src/memory/paddr.c:97 mtrace_log] R: 0x80002320 (len=4) data=0x02e12823[0m
[1;34m[src/memory/paddr.c:97 mtrace_log] W: 0x8009dfc0 (len=4) data=0x00000000[0m
0x80002320: 02 e1 28 23 sw	a4, 0x30(sp)
[1;34m[src/memory/paddr.c:97 mtrace_log] R: 0x80002324 (len=4) data=0x02f12a23[0m
[1;34m[src/memory/paddr.c:97 mtrace_log] W: 0x8009dfc4 (len=4) data=0x80095536[0m
0x80002324: 02 f1 2a 23 sw	a5, 0x34(sp)
[1;34m[src/memory/paddr.c:97 mtrace_log] R: 0x80002328 (len=4) data=0x00112e23[0m
[1;34m[src/memory/paddr.c:97 mtrace_log] W: 0x8009dfac (len=4) data=0x80000e90[0m
0x80002328: 00 11 2e 23 sw	ra, 0x1c(sp)
[1;34m[src/memory/paddr.c:97 mtrace_log] R: 0x8000232c (len=4) data=0x02d12623[0m
[1;34m[src/memory/paddr.c:97 mtrace_log] W: 0x8009dfbc (len=4) data=0xa00003f8[0m
0x8000232c: 02 d1 26 23 sw	a3, 0x2c(sp)
[1;34m[src/memory/paddr.c:97 mtrace_log] R: 0x80002330 (len=4) data=0x03012c23[0m
[1;34m[src/memory/paddr.c:97 mtrace_log] W: 0x8009dfc8 (len=4) data=0x800032b4[0m
0x80002330: 03 01 2c 23 sw	a6, 0x38(sp)
[1;34m[src/memory/paddr.c:97 mtrace_log] R: 0x80002334 (len=4) data=0x03112e23[0m
[1;34m[src/memory/paddr.c:97 mtrace_log] W: 0x8009dfcc (len=4) data=0x00000000[0m
0x80002334: 03 11 2e 23 sw	a7, 0x3c(sp)
[1;34m[src/memory/paddr.c:97 mtrace_log] R: 0x80002338 (len=4) data=0x00612623[0m
[1;34m[src/memory/paddr.c:97 mtrace_log] W: 0x8009df9c (len=4) data=0x8009dfb4[0m
0x80002338: 00 61 26 23 sw	t1, 0xc(sp)
[1;34m[src/memory/paddr.c:97 mtrace_log] R: 0x8000233c (len=4) data=0xad5ff0ef[0m
0x8000233c: ad 5f f0 ef jal	-0x52c
[1;34m[src/memory/paddr.c:97 mtrace_log] R: 0x80001e10 (len=4) data=0xfb010113[0m
0x80001e10: fb 01 01 13 addi	sp, sp, -0x50
[1;34m[src/memory/paddr.c:97 mtrace_log] R: 0x80001e14 (len=4) data=0x03612823[0m
[1;34m[src/memory/paddr.c:97 mtrace_log] W: 0x8009df70 (len=4) data=0x00000000[0m
0x80001e14: 03 61 28 23 sw	s6, 0x30(sp)
[1;34m[src/memory/paddr.c:97 mtrace_log] R: 0x80001e18 (len=4) data=0x04112623[0m
[1;34m[src/memory/paddr.c:97 mtrace_log] W: 0x8009df8c (len=4) data=0x80002340[0m
0x80001e18: 04 11 26 23 sw	ra, 0x4c(sp)
[1;34m[src/memory/paddr.c:97 mtrace_log] R: 0x80001e1c (len=4) data=0x04912223[0m
[1;34m[src/memory/paddr.c:97 mtrace_log] W: 0x8009df84 (len=4) data=0x80002ed0[0m
0x80001e1c: 04 91 22 23 sw	s1, 0x44(sp)
[1;34m[src/memory/paddr.c:97 mtrace_log] R: 0x80001e20 (len=4) data=0x0005c783[0m
[1;34m[src/memory/paddr.c:97 mtrace_log] R: 0x80002914 (len=1) data=0x00000020[0m
0x80001e20: 00 05 c7 83 lbu	a5, 0(a1)
[1;34m[src/memory/paddr.c:97 mtrace_log] R: 0x80001e24 (len=4) data=0x00050b13[0m
0x80001e24: 00 05 0b 13 mv	s6, a0
[1;34m[src/memory/paddr.c:97 mtrace_log] R: 0x80001e28 (len=4) data=0x44078a63[0m
0x80001e28: 44 07 8a 63 beqz	a5, 0x454
[1;34m[src/memory/paddr.c:97 mtrace_log] R: 0x80001e2c (len=4) data=0x05212023[0m
[1;34m[src/memory/paddr.c:97 mtrace_log] W: 0x8009df80 (len=4) data=0x00000100[0m
0x80001e2c: 05 21 20 23 sw	s2, 0x40(sp)
[1;34m[src/memory/paddr.c:97 mtrace_log] R: 0x80001e30 (len=4) data=0x03312e23[0m
[1;34m[src/memory/paddr.c:97 mtrace_log] W: 0x8009df7c (len=4) data=0x80002914[0m
0x80001e30: 03 31 2e 23 sw	s3, 0x3c(sp)
[1;34m[src/memory/paddr.c:97 mtrace_log] R: 0x80001e34 (len=4) data=0x03412c23[0m
[1;34m[src/memory/paddr.c:97 mtrace_log] W: 0x8009df78 (len=4) data=0x00000000[0m
0x80001e34: 03 41 2c 23 sw	s4, 0x38(sp)
[1;34m[src/memory/paddr.c:97 mtrace_log] R: 0x80001e38 (len=4) data=0x03512a23[0m
[1;34m[src/memory/paddr.c:97 mtrace_log] W: 0x8009df74 (len=4) data=0x00000000[0m
0x80001e38: 03 51 2a 23 sw	s5, 0x34(sp)
[1;34m[src/memory/paddr.c:97 mtrace_log] R: 0x80001e3c (len=4) data=0x03712623[0m
[1;34m[src/memory/paddr.c:97 mtrace_log] W: 0x8009df6c (len=4) data=0x00000000[0m
0x80001e3c: 03 71 26 23 sw	s7, 0x2c(sp)
[1;34m[src/memory/paddr.c:97 mtrace_log] R: 0x80001e40 (len=4) data=0x03812423[0m
[1;34m[src/memory/paddr.c:97 mtrace_log] W: 0x8009df68 (len=4) data=0x00000000[0m
0x80001e40: 03 81 24 23 sw	s8, 0x28(sp)
[1;34m[src/memory/paddr.c:97 mtrace_log] R: 0x80001e44 (len=4) data=0x03912223[0m
[1;34m[src/memory/paddr.c:97 mtrace_log] W: 0x8009df64 (len=4) data=0x00000000[0m
0x80001e44: 03 91 22 23 sw	s9, 0x24(sp)
[1;34m[src/memory/paddr.c:97 mtrace_log] R: 0x80001e48 (len=4) data=0x03a12023[0m
[1;34m[src/memory/paddr.c:97 mtrace_log] W: 0x8009df60 (len=4) data=0x00000000[0m
0x80001e48: 03 a1 20 23 sw	s10, 0x20(sp)
[1;34m[src/memory/paddr.c:97 mtrace_log] R: 0x80001e4c (len=4) data=0x04812423[0m
[1;34m[src/memory/paddr.c:97 mtrace_log] W: 0x8009df88 (len=4) data=0x00000076[0m
0x80001e4c: 04 81 24 23 sw	s0, 0x48(sp)
[1;34m[src/memory/paddr.c:97 mtrace_log] R: 0x80001e50 (len=4) data=0x00060a13[0m
0x80001e50: 00 06 0a 13 mv	s4, a2
[1;34m[src/memory/paddr.c:97 mtrace_log] R: 0x80001e54 (len=4) data=0x00050493[0m
0x80001e54: 00 05 04 93 mv	s1, a0
[1;34m[src/memory/paddr.c:97 mtrace_log] R: 0x80001e58 (len=4) data=0x02500a93[0m
0x80001e58: 02 50 0a 93 addi	s5, zero, 0x25
[1;34m[src/memory/paddr.c:97 mtrace_log] R: 0x80001e5c (len=4) data=0x01000993[0m
0x80001e5c: 01 00 09 93 addi	s3, zero, 0x10
[1;34m[src/memory/paddr.c:97 mtrace_log] R: 0x80001e60 (len=4) data=0x00001917[0m
0x80001e60: 00 00 19 17 auipc	s2, 1
[1;34m[src/memory/paddr.c:97 mtrace_log] R: 0x80001e64 (len=4) data=0x2d890913[0m
0x80001e64: 2d 89 09 13 addi	s2, s2, 0x2d8
[1;34m[src/memory/paddr.c:97 mtrace_log] R: 0x80001e68 (len=4) data=0x00900d13[0m
0x80001e68: 00 90 0d 13 addi	s10, zero, 9
[1;34m[src/memory/paddr.c:97 mtrace_log] R: 0x80001e6c (len=4) data=0x02e00c93[0m
0x80001e6c: 02 e0 0c 93 addi	s9, zero, 0x2e
[1;34m[src/memory/paddr.c:97 mtrace_log] R: 0x80001e70 (len=4) data=0x06800c13[0m
0x80001e70: 06 80 0c 13 addi	s8, zero, 0x68
[1;34m[src/memory/paddr.c:97 mtrace_log] R: 0x80001e74 (len=4) data=0x00001b97[0m
0x80001e74: 00 00 1b 97 auipc	s7, 1
[1;34m[src/memory/paddr.c:97 mtrace_log] R: 0x80001e78 (len=4) data=0x308b8b93[0m
0x80001e78: 30 8b 8b 93 addi	s7, s7, 0x308
[1;34m[src/memory/paddr.c:97 mtrace_log] R: 0x80001e7c (len=4) data=0x05578c63[0m
0x80001e7c: 05 57 8c 63 beq	a5, s5, 0x58
[1;34m[src/memory/paddr.c:97 mtrace_log] R: 0x80001e80 (len=4) data=0x00f48023[0m
[1;34m[src/memory/paddr.c:97 mtrace_log] W: 0x8009551c (len=1) data=0x00000020[0m
0x80001e80: 00 f4 80 23 sb	a5, 0(s1)
[1;34m[src/memory/paddr.c:97 mtrace_log] R: 0x80001e84 (len=4) data=0x0015c783[0m
[1;34m[src/memory/paddr.c:97 mtrace_log] R: 0x80002915 (len=1) data=0x00000020[0m
0x80001e84: 00 15 c7 83 lbu	a5, 1(a1)
[1;34m[src/memory/paddr.c:97 mtrace_log] R: 0x80001e88 (len=4) data=0x00148493[0m
0x80001e88: 00 14 84 93 addi	s1, s1, 1
[1;34m[src/memory/paddr.c:97 mtrace_log] R: 0x80001e8c (len=4) data=0x00158593[0m
0x80001e8c: 00 15 85 93 addi	a1, a1, 1
[1;34m[src/memory/paddr.c:97 mtrace_log] R: 0x80001e90 (len=4) data=0xfe0796e3[0m
0x80001e90: fe 07 96 e3 bnez	a5, -0x14
[1;34m[src/memory/paddr.c:97 mtrace_log] R: 0x80001e7c (len=4) data=0x05578c63[0m
0x80001e7c: 05 57 8c 63 beq	a5, s5, 0x58
[1;34m[src/memory/paddr.c:97 mtrace_log] R: 0x80001e80 (len=4) data=0x00f48023[0m
[1;34m[src/memory/paddr.c:97 mtrace_log] W: 0x8009551d (len=1) data=0x00000020[0m
0x80001e80: 00 f4 80 23 sb	a5, 0(s1)
[1;34m[src/memory/paddr.c:97 mtrace_log] R: 0x80001e84 (len=4) data=0x0015c783[0m
[1;34m[src/memory/paddr.c:97 mtrace_log] R: 0x80002916 (len=1) data=0x00000025[0m
0x80001e84: 00 15 c7 83 lbu	a5, 1(a1)
[1;34m[src/memory/paddr.c:97 mtrace_log] R: 0x80001e88 (len=4) data=0x00148493[0m
0x80001e88: 00 14 84 93 addi	s1, s1, 1
[1;34m[src/memory/paddr.c:97 mtrace_log] R: 0x80001e8c (len=4) data=0x00158593[0m
0x80001e8c: 00 15 85 93 addi	a1, a1, 1
[1;34m[src/memory/paddr.c:97 mtrace_log] R: 0x80001e90 (len=4) data=0xfe0796e3[0m
0x80001e90: fe 07 96 e3 bnez	a5, -0x14
[1;34m[src/memory/paddr.c:97 mtrace_log] R: 0x80001e7c (len=4) data=0x05578c63[0m
0x80001e7c: 05 57 8c 63 beq	a5, s5, 0x58
[1;34m[src/memory/paddr.c:97 mtrace_log] R: 0x80001ed4 (len=4) data=0x00000793[0m
0x80001ed4: 00 00 07 93 mv	a5, zero
[1;34m[src/memory/paddr.c:97 mtrace_log] R: 0x80001ed8 (len=4) data=0x0015c803[0m
[1;34m[src/memory/paddr.c:97 mtrace_log] R: 0x80002917 (len=1) data=0x00000063[0m
0x80001ed8: 00 15 c8 03 lbu	a6, 1(a1)
[1;34m[src/memory/paddr.c:97 mtrace_log] R: 0x80001edc (len=4) data=0x00158413[0m
0x80001edc: 00 15 84 13 addi	s0, a1, 1
[1;34m[src/memory/paddr.c:97 mtrace_log] R: 0x80001ee0 (len=4) data=0xfe080713[0m
0x80001ee0: fe 08 07 13 addi	a4, a6, -0x20
[1;34m[src/memory/paddr.c:97 mtrace_log] R: 0x80001ee4 (len=4) data=0x0ff77713[0m
0x80001ee4: 0f f7 77 13 andi	a4, a4, 0xff
[1;34m[src/memory/paddr.c:97 mtrace_log] R: 0x80001ee8 (len=4) data=0x00e9ec63[0m
0x80001ee8: 00 e9 ec 63 bltu	s3, a4, 0x18
[1;34m[src/memory/paddr.c:97 mtrace_log] R: 0x80001f00 (len=4) data=0xfd080713[0m
0x80001f00: fd 08 07 13 addi	a4, a6, -0x30
[1;34m[src/memory/paddr.c:97 mtrace_log] R: 0x80001f04 (len=4) data=0x0ff77713[0m
0x80001f04: 0f f7 77 13 andi	a4, a4, 0xff
[1;34m[src/memory/paddr.c:97 mtrace_log] R: 0x80001f08 (len=4) data=0x0ced7263[0m
0x80001f08: 0c ed 72 63 bgeu	s10, a4, 0xc4
[1;34m[src/memory/paddr.c:97 mtrace_log] R: 0x80001f0c (len=4) data=0x02a00713[0m
0x80001f0c: 02 a0 07 13 addi	a4, zero, 0x2a
[1;34m[src/memory/paddr.c:97 mtrace_log] R: 0x80001f10 (len=4) data=0xfff00693[0m
0x80001f10: ff f0 06 93 addi	a3, zero, -1
[1;34m[src/memory/paddr.c:97 mtrace_log] R: 0x80001f14 (len=4) data=0x00e81a63[0m
0x80001f14: 00 e8 1a 63 bne	a6, a4, 0x14
[1;34m[src/memory/paddr.c:97 mtrace_log] R: 0x80001f28 (len=4) data=0xfff00713[0m
0x80001f28: ff f0 07 13 addi	a4, zero, -1
[1;34m[src/memory/paddr.c:97 mtrace_log] R: 0x80001f2c (len=4) data=0x07980a63[0m
0x80001f2c: 07 98 0a 63 beq	a6, s9, 0x74
[1;34m[src/memory/paddr.c:97 mtrace_log] R: 0x80001f30 (len=4) data=0x0fb87613[0m
0x80001f30: 0f b8 76 13 andi	a2, a6, 0xfb
[1;34m[src/memory/paddr.c:97 mtrace_log] R: 0x80001f34 (len=4) data=0x01861663[0m
0x80001f34: 01 86 16 63 bne	a2, s8, 0xc
[1;34m[src/memory/paddr.c:97 mtrace_log] R: 0x80001f40 (len=4) data=0xfdb80813[0m
0x80001f40: fd b8 08 13 addi	a6, a6, -0x25
[1;34m[src/memory/paddr.c:97 mtrace_log] R: 0x80001f44 (len=4) data=0x0ff87813[0m
0x80001f44: 0f f8 78 13 andi	a6, a6, 0xff
[1;34m[src/memory/paddr.c:97 mtrace_log] R: 0x80001f48 (len=4) data=0x05300613[0m
0x80001f48: 05 30 06 13 addi	a2, zero, 0x53
[1;34m[src/memory/paddr.c:97 mtrace_log] R: 0x80001f4c (len=4) data=0x0b066c63[0m
0x80001f4c: 0b 06 6c 63 bltu	a2, a6, 0xb8
[1;34m[src/memory/paddr.c:97 mtrace_log] R: 0x80001f50 (len=4) data=0x00281813[0m
0x80001f50: 00 28 18 13 slli	a6, a6, 2
[1;34m[src/memory/paddr.c:97 mtrace_log] R: 0x80001f54 (len=4) data=0x01780833[0m
0x80001f54: 01 78 08 33 add	a6, a6, s7
[1;34m[src/memory/paddr.c:97 mtrace_log] R: 0x80001f58 (len=4) data=0x00082603[0m
[1;34m[src/memory/paddr.c:97 mtrace_log] R: 0x80003274 (len=4) data=0xffffef08[0m
0x80001f58: 00 08 26 03 lw	a2, 0(a6)
[1;34m[src/memory/paddr.c:97 mtrace_log] R: 0x80001f5c (len=4) data=0x01760633[0m
0x80001f5c: 01 76 06 33 add	a2, a2, s7
[1;34m[src/memory/paddr.c:97 mtrace_log] R: 0x80001f60 (len=4) data=0x00060067[0m
0x80001f60: 00 06 00 67 jr	a2
[1;34m[src/memory/paddr.c:97 mtrace_log] R: 0x80002084 (len=4) data=0x0017f793[0m
0x80002084: 00 17 f7 93 andi	a5, a5, 1
[1;34m[src/memory/paddr.c:97 mtrace_log] R: 0x80002088 (len=4) data=0x004a0613[0m
0x80002088: 00 4a 06 13 addi	a2, s4, 4
[1;34m[src/memory/paddr.c:97 mtrace_log] R: 0x8000208c (len=4) data=0x00140593[0m
0x8000208c: 00 14 05 93 addi	a1, s0, 1
[1;34m[src/memory/paddr.c:97 mtrace_log] R: 0x80002090 (len=4) data=0x18078c63[0m
0x80002090: 18 07 8c 63 beqz	a5, 0x198
[1;34m[src/memory/paddr.c:97 mtrace_log] R: 0x80002228 (len=4) data=0x00100793[0m
0x80002228: 00 10 07 93 addi	a5, zero, 1
[1;34m[src/memory/paddr.c:97 mtrace_log] R: 0x8000222c (len=4) data=0x0ad7dc63[0m
0x8000222c: 0a d7 dc 63 bge	a5, a3, 0xb8
[1;34m[src/memory/paddr.c:97 mtrace_log] R: 0x800022e4 (len=4) data=0x000a2783[0m
[1;34m[src/memory/paddr.c:97 mtrace_log] R: 0x8009dfb4 (len=4) data=0x00000076[0m
0x800022e4: 00 0a 27 83 lw	a5, 0(s4)
[1;34m[src/memory/paddr.c:97 mtrace_log] R: 0x800022e8 (len=4) data=0x00148493[0m
0x800022e8: 00 14 84 93 addi	s1, s1, 1
[1;34m[src/memory/paddr.c:97 mtrace_log] R: 0x800022ec (len=4) data=0x00060a13[0m
0x800022ec: 00 06 0a 13 mv	s4, a2
[1;34m[src/memory/paddr.c:97 mtrace_log] R: 0x800022f0 (len=4) data=0xfef48fa3[0m
[1;34m[src/memory/paddr.c:97 mtrace_log] W: 0x8009551e (len=1) data=0x00000076[0m
0x800022f0: fe f4 8f a3 sb	a5, -1(s1)
[1;34m[src/memory/paddr.c:97 mtrace_log] R: 0x800022f4 (len=4) data=0x00144783[0m
[1;34m[src/memory/paddr.c:97 mtrace_log] R: 0x80002918 (len=1) data=0x0000003a[0m
0x800022f4: 00 14 47 83 lbu	a5, 1(s0)
[1;34m[src/memory/paddr.c:97 mtrace_log] R: 0x800022f8 (len=4) data=0xb80792e3[0m
0x800022f8: b8 07 92 e3 bnez	a5, -0x47c
[1;34m[src/memory/paddr.c:97 mtrace_log] R: 0x80001e7c (len=4) data=0x05578c63[0m
0x80001e7c: 05 57 8c 63 beq	a5, s5, 0x58
[1;34m[src/memory/paddr.c:97 mtrace_log] R: 0x80001e80 (len=4) data=0x00f48023[0m
[1;34m[src/memory/paddr.c:97 mtrace_log] W: 0x8009551f (len=1) data=0x0000003a[0m
0x80001e80: 00 f4 80 23 sb	a5, 0(s1)
[1;34m[src/memory/paddr.c:97 mtrace_log] R: 0x80001e84 (len=4) data=0x0015c783[0m
[1;34m[src/memory/paddr.c:97 mtrace_log] R: 0x80002919 (len=1) data=0x00000020[0m
0x80001e84: 00 15 c7 83 lbu	a5, 1(a1)
[1;34m[src/memory/paddr.c:97 mtrace_log] R: 0x80001e88 (len=4) data=0x00148493[0m
0x80001e88: 00 14 84 93 addi	s1, s1, 1
[1;34m[src/memory/paddr.c:97 mtrace_log] R: 0x80001e8c (len=4) data=0x00158593[0m
0x80001e8c: 00 15 85 93 addi	a1, a1, 1
[1;34m[src/memory/paddr.c:97 mtrace_log] R: 0x80001e90 (len=4) data=0xfe0796e3[0m
0x80001e90: fe 07 96 e3 bnez	a5, -0x14
[1;34m[src/memory/paddr.c:97 mtrace_log] R: 0x80001e7c (len=4) data=0x05578c63[0m
0x80001e7c: 05 57 8c 63 beq	a5, s5, 0x58
[1;34m[src/memory/paddr.c:97 mtrace_log] R: 0x80001e80 (len=4) data=0x00f48023[0m
[1;34m[src/memory/paddr.c:97 mtrace_log] W: 0x80095520 (len=1) data=0x00000020[0m
0x80001e80: 00 f4 80 23 sb	a5, 0(s1)
[1;34m[src/memory/paddr.c:97 mtrace_log] R: 0x80001e84 (len=4) data=0x0015c783[0m
[1;34m[src/memory/paddr.c:97 mtrace_log] R: 0x8000291a (len=1) data=0x00000025[0m
0x80001e84: 00 15 c7 83 lbu	a5, 1(a1)
[1;34m[src/memory/paddr.c:97 mtrace_log] R: 0x80001e88 (len=4) data=0x00148493[0m
0x80001e88: 00 14 84 93 addi	s1, s1, 1
[1;34m[src/memory/paddr.c:97 mtrace_log] R: 0x80001e8c (len=4) data=0x00158593[0m
0x80001e8c: 00 15 85 93 addi	a1, a1, 1
[1;34m[src/memory/paddr.c:97 mtrace_log] R: 0x80001e90 (len=4) data=0xfe0796e3[0m
0x80001e90: fe 07 96 e3 bnez	a5, -0x14
[1;34m[src/memory/paddr.c:97 mtrace_log] R: 0x80001e7c (len=4) data=0x05578c63[0m
0x80001e7c: 05 57 8c 63 beq	a5, s5, 0x58
[1;34m[src/memory/paddr.c:97 mtrace_log] R: 0x80001ed4 (len=4) data=0x00000793[0m
0x80001ed4: 00 00 07 93 mv	a5, zero
[1;34m[src/memory/paddr.c:97 mtrace_log] R: 0x80001ed8 (len=4) data=0x0015c803[0m
[1;34m[src/memory/paddr.c:97 mtrace_log] R: 0x8000291b (len=1) data=0x00000073[0m
0x80001ed8: 00 15 c8 03 lbu	a6, 1(a1)
[1;34m[src/memory/paddr.c:97 mtrace_log] R: 0x80001edc (len=4) data=0x00158413[0m
0x80001edc: 00 15 84 13 addi	s0, a1, 1
[1;34m[src/memory/paddr.c:97 mtrace_log] R: 0x80001ee0 (len=4) data=0xfe080713[0m
0x80001ee0: fe 08 07 13 addi	a4, a6, -0x20
[1;34m[src/memory/paddr.c:97 mtrace_log] R: 0x80001ee4 (len=4) data=0x0ff77713[0m
0x80001ee4: 0f f7 77 13 andi	a4, a4, 0xff
[1;34m[src/memory/paddr.c:97 mtrace_log] R: 0x80001ee8 (len=4) data=0x00e9ec63[0m
0x80001ee8: 00 e9 ec 63 bltu	s3, a4, 0x18
[1;34m[src/memory/paddr.c:97 mtrace_log] R: 0x80001f00 (len=4) data=0xfd080713[0m
0x80001f00: fd 08 07 13 addi	a4, a6, -0x30
[1;34m[src/memory/paddr.c:97 mtrace_log] R: 0x80001f04 (len=4) data=0x0ff77713[0m
0x80001f04: 0f f7 77 13 andi	a4, a4, 0xff
[1;34m[src/memory/paddr.c:97 mtrace_log] R: 0x80001f08 (len=4) data=0x0ced7263[0m
0x80001f08: 0c ed 72 63 bgeu	s10, a4, 0xc4
[1;34m[src/memory/paddr.c:97 mtrace_log] R: 0x80001f0c (len=4) data=0x02a00713[0m
0x80001f0c: 02 a0 07 13 addi	a4, zero, 0x2a
[1;34m[src/memory/paddr.c:97 mtrace_log] R: 0x80001f10 (len=4) data=0xfff00693[0m
0x80001f10: ff f0 06 93 addi	a3, zero, -1
[1;34m[src/memory/paddr.c:97 mtrace_log] R: 0x80001f14 (len=4) data=0x00e81a63[0m
0x80001f14: 00 e8 1a 63 bne	a6, a4, 0x14
[1;34m[src/memory/paddr.c:97 mtrace_log] R: 0x80001f28 (len=4) data=0xfff00713[0m
0x80001f28: ff f0 07 13 addi	a4, zero, -1
[1;34m[src/memory/paddr.c:97 mtrace_log] R: 0x80001f2c (len=4) data=0x07980a63[0m
0x80001f2c: 07 98 0a 63 beq	a6, s9, 0x74
[1;34m[src/memory/paddr.c:97 mtrace_log] R: 0x80001f30 (len=4) data=0x0fb87613[0m
0x80001f30: 0f b8 76 13 andi	a2, a6, 0xfb
[1;34m[src/memory/paddr.c:97 mtrace_log] R: 0x80001f34 (len=4) data=0x01861663[0m
0x80001f34: 01 86 16 63 bne	a2, s8, 0xc
[1;34m[src/memory/paddr.c:97 mtrace_log] R: 0x80001f40 (len=4) data=0xfdb80813[0m
0x80001f40: fd b8 08 13 addi	a6, a6, -0x25
[1;34m[src/memory/paddr.c:97 mtrace_log] R: 0x80001f44 (len=4) data=0x0ff87813[0m
0x80001f44: 0f f8 78 13 andi	a6, a6, 0xff
[1;34m[src/memory/paddr.c:97 mtrace_log] R: 0x80001f48 (len=4) data=0x05300613[0m
0x80001f48: 05 30 06 13 addi	a2, zero, 0x53
[1;34m[src/memory/paddr.c:97 mtrace_log] R: 0x80001f4c (len=4) data=0x0b066c63[0m
0x80001f4c: 0b 06 6c 63 bltu	a2, a6, 0xb8
[1;34m[src/memory/paddr.c:97 mtrace_log] R: 0x80001f50 (len=4) data=0x00281813[0m
0x80001f50: 00 28 18 13 slli	a6, a6, 2
[1;34m[src/memory/paddr.c:97 mtrace_log] R: 0x80001f54 (len=4) data=0x01780833[0m
0x80001f54: 01 78 08 33 add	a6, a6, s7
[1;34m[src/memory/paddr.c:97 mtrace_log] R: 0x80001f58 (len=4) data=0x00082603[0m
[1;34m[src/memory/paddr.c:97 mtrace_log] R: 0x800032b4 (len=4) data=0xffffef50[0m
0x80001f58: 00 08 26 03 lw	a2, 0(a6)
[1;34m[src/memory/paddr.c:97 mtrace_log] R: 0x80001f5c (len=4) data=0x01760633[0m
0x80001f5c: 01 76 06 33 add	a2, a2, s7
[1;34m[src/memory/paddr.c:97 mtrace_log] R: 0x80001f60 (len=4) data=0x00060067[0m
0x80001f60: 00 06 00 67 jr	a2
[1;34m[src/memory/paddr.c:97 mtrace_log] R: 0x800020cc (len=4) data=0x01b12e23[0m
[1;34m[src/memory/paddr.c:97 mtrace_log] W: 0x8009df5c (len=4) data=0x00000000[0m
0x800020cc: 01 b1 2e 23 sw	s11, 0x1c(sp)
[1;34m[src/memory/paddr.c:97 mtrace_log] R: 0x800020d0 (len=4) data=0x000a2d83[0m
[1;34m[src/memory/paddr.c:97 mtrace_log] R: 0x8009dfb8 (len=4) data=0x800029cc[0m
0x800020d0: 00 0a 2d 83 lw	s11, 0(s4)
[1;34m[src/memory/paddr.c:97 mtrace_log] R: 0x800020d4 (len=4) data=0x004a0a13[0m
0x800020d4: 00 4a 0a 13 addi	s4, s4, 4
[1;34m[src/memory/paddr.c:97 mtrace_log] R: 0x800020d8 (len=4) data=0x140d8263[0m
0x800020d8: 14 0d 82 63 beqz	s11, 0x144
[1;34m[src/memory/paddr.c:97 mtrace_log] R: 0x800020dc (len=4) data=0x000d8513[0m
0x800020dc: 00 0d 85 13 mv	a0, s11
[1;34m[src/memory/paddr.c:97 mtrace_log] R: 0x800020e0 (len=4) data=0x00d12623[0m
[1;34m[src/memory/paddr.c:97 mtrace_log] W: 0x8009df4c (len=4) data=0xffffffff[0m
0x800020e0: 00 d1 26 23 sw	a3, 0xc(sp)
[1;34m[src/memory/paddr.c:97 mtrace_log] R: 0x800020e4 (len=4) data=0x00f12423[0m
[1;34m[src/memory/paddr.c:97 mtrace_log] W: 0x8009df48 (len=4) data=0x00000000[0m
0x800020e4: 00 f1 24 23 sw	a5, 8(sp)
[1;34m[src/memory/paddr.c:97 mtrace_log] R: 0x800020e8 (len=4) data=0x00e12223[0m
[1;34m[src/memory/paddr.c:97 mtrace_log] W: 0x8009df44 (len=4) data=0xffffffff[0m
0x800020e8: 00 e1 22 23 sw	a4, 4(sp)
[1;34m[src/memory/paddr.c:97 mtrace_log] R: 0x800020ec (len=4) data=0x9c9ff0ef[0m
0x800020ec: 9c 9f f0 ef jal	-0x638
[1;34m[src/memory/paddr.c:97 mtrace_log] R: 0x80001ab4 (len=4) data=0x00054783[0m
[1;34m[src/memory/paddr.c:97 mtrace_log] R: 0x800029cc (len=1) data=0x00000064[0m
0x80001ab4: 00 05 47 83 lbu	a5, 0(a0)
[1;34m[src/memory/paddr.c:97 mtrace_log] R: 0x80001ab8 (len=4) data=0x00050713[0m
0x80001ab8: 00 05 07 13 mv	a4, a0
[1;34m[src/memory/paddr.c:97 mtrace_log] R: 0x80001abc (len=4) data=0x00000513[0m
0x80001abc: 00 00 05 13 mv	a0, zero
[1;34m[src/memory/paddr.c:97 mtrace_log] R: 0x80001ac0 (len=4) data=0x00078c63[0m
0x80001ac0: 00 07 8c 63 beqz	a5, 0x18
[1;34m[src/memory/paddr.c:97 mtrace_log] R: 0x80001ac4 (len=4) data=0x00150513[0m
0x80001ac4: 00 15 05 13 addi	a0, a0, 1
[1;34m[src/memory/paddr.c:97 mtrace_log] R: 0x80001ac8 (len=4) data=0x00a707b3[0m
0x80001ac8: 00 a7 07 b3 add	a5, a4, a0
[1;34m[src/memory/paddr.c:97 mtrace_log] R: 0x80001acc (len=4) data=0x0007c783[0m
[1;34m[src/memory/paddr.c:97 mtrace_log] R: 0x800029cd (len=1) data=0x00000069[0m
0x80001acc: 00 07 c7 83 lbu	a5, 0(a5)
[1;34m[src/memory/paddr.c:97 mtrace_log] R: 0x80001ad0 (len=4) data=0xfe079ae3[0m
0x80001ad0: fe 07 9a e3 bnez	a5, -0xc
[1;34m[src/memory/paddr.c:97 mtrace_log] R: 0x80001ac4 (len=4) data=0x00150513[0m
0x80001ac4: 00 15 05 13 addi	a0, a0, 1
[1;34m[src/memory/paddr.c:97 mtrace_log] R: 0x80001ac8 (len=4) data=0x00a707b3[0m
0x80001ac8: 00 a7 07 b3 add	a5, a4, a0
[1;34m[src/memory/paddr.c:97 mtrace_log] R: 0x80001acc (len=4) data=0x0007c783[0m
[1;34m[src/memory/paddr.c:97 mtrace_log] R: 0x800029ce (len=1) data=0x00000073[0m
0x80001acc: 00 07 c7 83 lbu	a5, 0(a5)
[1;34m[src/memory/paddr.c:97 mtrace_log] R: 0x80001ad0 (len=4) data=0xfe079ae3[0m
0x80001ad0: fe 07 9a e3 bnez	a5, -0xc
[1;34m[src/memory/paddr.c:97 mtrace_log] R: 0x80001ac4 (len=4) data=0x00150513[0m
0x80001ac4: 00 15 05 13 addi	a0, a0, 1
[1;34m[src/memory/paddr.c:97 mtrace_log] R: 0x80001ac8 (len=4) data=0x00a707b3[0m
0x80001ac8: 00 a7 07 b3 add	a5, a4, a0
[1;34m[src/memory/paddr.c:97 mtrace_log] R: 0x80001acc (len=4) data=0x0007c783[0m
[1;34m[src/memory/paddr.c:97 mtrace_log] R: 0x800029cf (len=1) data=0x00000070[0m
0x80001acc: 00 07 c7 83 lbu	a5, 0(a5)
[1;34m[src/memory/paddr.c:97 mtrace_log] R: 0x80001ad0 (len=4) data=0xfe079ae3[0m
0x80001ad0: fe 07 9a e3 bnez	a5, -0xc
[1;34m[src/memory/paddr.c:97 mtrace_log] R: 0x80001ac4 (len=4) data=0x00150513[0m
0x80001ac4: 00 15 05 13 addi	a0, a0, 1
[1;34m[src/memory/paddr.c:97 mtrace_log] R: 0x80001ac8 (len=4) data=0x00a707b3[0m
0x80001ac8: 00 a7 07 b3 add	a5, a4, a0
[1;34m[src/memory/paddr.c:97 mtrace_log] R: 0x80001acc (len=4) data=0x0007c783[0m
[1;34m[src/memory/paddr.c:97 mtrace_log] R: 0x800029d0 (len=1) data=0x0000006c[0m
0x80001acc: 00 07 c7 83 lbu	a5, 0(a5)
[1;34m[src/memory/paddr.c:97 mtrace_log] R: 0x80001ad0 (len=4) data=0xfe079ae3[0m
0x80001ad0: fe 07 9a e3 bnez	a5, -0xc
[1;34m[src/memory/paddr.c:97 mtrace_log] R: 0x80001ac4 (len=4) data=0x00150513[0m
0x80001ac4: 00 15 05 13 addi	a0, a0, 1
[1;34m[src/memory/paddr.c:97 mtrace_log] R: 0x80001ac8 (len=4) data=0x00a707b3[0m
0x80001ac8: 00 a7 07 b3 add	a5, a4, a0
[1;34m[src/memory/paddr.c:97 mtrace_log] R: 0x80001acc (len=4) data=0x0007c783[0m
[1;34m[src/memory/paddr.c:97 mtrace_log] R: 0x800029d1 (len=1) data=0x00000061[0m
0x80001acc: 00 07 c7 83 lbu	a5, 0(a5)
[1;34m[src/memory/paddr.c:97 mtrace_log] R: 0x80001ad0 (len=4) data=0xfe079ae3[0m
0x80001ad0: fe 07 9a e3 bnez	a5, -0xc
[1;34m[src/memory/paddr.c:97 mtrace_log] R: 0x80001ac4 (len=4) data=0x00150513[0m
0x80001ac4: 00 15 05 13 addi	a0, a0, 1
[1;34m[src/memory/paddr.c:97 mtrace_log] R: 0x80001ac8 (len=4) data=0x00a707b3[0m
0x80001ac8: 00 a7 07 b3 add	a5, a4, a0
[1;34m[src/memory/paddr.c:97 mtrace_log] R: 0x80001acc (len=4) data=0x0007c783[0m
[1;34m[src/memory/paddr.c:97 mtrace_log] R: 0x800029d2 (len=1) data=0x00000079[0m
0x80001acc: 00 07 c7 83 lbu	a5, 0(a5)
[1;34m[src/memory/paddr.c:97 mtrace_log] R: 0x80001ad0 (len=4) data=0xfe079ae3[0m
0x80001ad0: fe 07 9a e3 bnez	a5, -0xc
[1;34m[src/memory/paddr.c:97 mtrace_log] R: 0x80001ac4 (len=4) data=0x00150513[0m
0x80001ac4: 00 15 05 13 addi	a0, a0, 1
[1;34m[src/memory/paddr.c:97 mtrace_log] R: 0x80001ac8 (len=4) data=0x00a707b3[0m
0x80001ac8: 00 a7 07 b3 add	a5, a4, a0
[1;34m[src/memory/paddr.c:97 mtrace_log] R: 0x80001acc (len=4) data=0x0007c783[0m
[1;34m[src/memory/paddr.c:97 mtrace_log] R: 0x800029d3 (len=1) data=0x00000020[0m
0x80001acc: 00 07 c7 83 lbu	a5, 0(a5)
[1;34m[src/memory/paddr.c:97 mtrace_log] R: 0x80001ad0 (len=4) data=0xfe079ae3[0m
0x80001ad0: fe 07 9a e3 bnez	a5, -0xc
[1;34m[src/memory/paddr.c:97 mtrace_log] R: 0x80001ac4 (len=4) data=0x00150513[0m
0x80001ac4: 00 15 05 13 addi	a0, a0, 1
[1;34m[src/memory/paddr.c:97 mtrace_log] R: 0x80001ac8 (len=4) data=0x00a707b3[0m
0x80001ac8: 00 a7 07 b3 add	a5, a4, a0
[1;34m[src/memory/paddr.c:97 mtrace_log] R: 0x80001acc (len=4) data=0x0007c783[0m
[1;34m[src/memory/paddr.c:97 mtrace_log] R: 0x800029d4 (len=1) data=0x00000074[0m
0x80001acc: 00 07 c7 83 lbu	a5, 0(a5)
[1;34m[src/memory/paddr.c:97 mtrace_log] R: 0x80001ad0 (len=4) data=0xfe079ae3[0m
0x80001ad0: fe 07 9a e3 bnez	a5, -0xc
[1;34m[src/memory/paddr.c:97 mtrace_log] R: 0x80001ac4 (len=4) data=0x00150513[0m
0x80001ac4: 00 15 05 13 addi	a0, a0, 1
[1;34m[src/memory/paddr.c:97 mtrace_log] R: 0x80001ac8 (len=4) data=0x00a707b3[0m
0x80001ac8: 00 a7 07 b3 add	a5, a4, a0
[1;34m[src/memory/paddr.c:97 mtrace_log] R: 0x80001acc (len=4) data=0x0007c783[0m
[1;34m[src/memory/paddr.c:97 mtrace_log] R: 0x800029d5 (len=1) data=0x00000065[0m
0x80001acc: 00 07 c7 83 lbu	a5, 0(a5)
[1;34m[src/memory/paddr.c:97 mtrace_log] R: 0x80001ad0 (len=4) data=0xfe079ae3[0m
0x80001ad0: fe 07 9a e3 bnez	a5, -0xc
[1;34m[src/memory/paddr.c:97 mtrace_log] R: 0x80001ac4 (len=4) data=0x00150513[0m
0x80001ac4: 00 15 05 13 addi	a0, a0, 1
[1;34m[src/memory/paddr.c:97 mtrace_log] R: 0x80001ac8 (len=4) data=0x00a707b3[0m
0x80001ac8: 00 a7 07 b3 add	a5, a4, a0
[1;34m[src/memory/paddr.c:97 mtrace_log] R: 0x80001acc (len=4) data=0x0007c783[0m
[1;34m[src/memory/paddr.c:97 mtrace_log] R: 0x800029d6 (len=1) data=0x00000073[0m
0x80001acc: 00 07 c7 83 lbu	a5, 0(a5)
[1;34m[src/memory/paddr.c:97 mtrace_log] R: 0x80001ad0 (len=4) data=0xfe079ae3[0m
0x80001ad0: fe 07 9a e3 bnez	a5, -0xc
[1;34m[src/memory/paddr.c:97 mtrace_log] R: 0x80001ac4 (len=4) data=0x00150513[0m
0x80001ac4: 00 15 05 13 addi	a0, a0, 1
[1;34m[src/memory/paddr.c:97 mtrace_log] R: 0x80001ac8 (len=4) data=0x00a707b3[0m
0x80001ac8: 00 a7 07 b3 add	a5, a4, a0
[1;34m[src/memory/paddr.c:97 mtrace_log] R: 0x80001acc (len=4) data=0x0007c783[0m
[1;34m[src/memory/paddr.c:97 mtrace_log] R: 0x800029d7 (len=1) data=0x00000074[0m
0x80001acc: 00 07 c7 83 lbu	a5, 0(a5)
[1;34m[src/memory/paddr.c:97 mtrace_log] R: 0x80001ad0 (len=4) data=0xfe079ae3[0m
0x80001ad0: fe 07 9a e3 bnez	a5, -0xc
[1;34m[src/memory/paddr.c:97 mtrace_log] R: 0x80001ac4 (len=4) data=0x00150513[0m
0x80001ac4: 00 15 05 13 addi	a0, a0, 1
[1;34m[src/memory/paddr.c:97 mtrace_log] R: 0x80001ac8 (len=4) data=0x00a707b3[0m
0x80001ac8: 00 a7 07 b3 add	a5, a4, a0
[1;34m[src/memory/paddr.c:97 mtrace_log] R: 0x80001acc (len=4) data=0x0007c783[0m
[1;34m[src/memory/paddr.c:97 mtrace_log] R: 0x800029d8 (len=1) data=0x00000000[0m
0x80001acc: 00 07 c7 83 lbu	a5, 0(a5)
[1;34m[src/memory/paddr.c:97 mtrace_log] R: 0x80001ad0 (len=4) data=0xfe079ae3[0m
0x80001ad0: fe 07 9a e3 bnez	a5, -0xc
[1;34m[src/memory/paddr.c:97 mtrace_log] R: 0x80001ad4 (len=4) data=0x00008067[0m
0x80001ad4: 00 00 80 67 ret
[1;34m[src/memory/paddr.c:97 mtrace_log] R: 0x800020f0 (len=4) data=0x00412703[0m
[1;34m[src/memory/paddr.c:97 mtrace_log] R: 0x8009df44 (len=4) data=0xffffffff[0m
0x800020f0: 00 41 27 03 lw	a4, 4(sp)
[1;34m[src/memory/paddr.c:97 mtrace_log] R: 0x800020f4 (len=4) data=0xfff00613[0m
0x800020f4: ff f0 06 13 addi	a2, zero, -1
[1;34m[src/memory/paddr.c:97 mtrace_log] R: 0x800020f8 (len=4) data=0x00812783[0m
[1;34m[src/memory/paddr.c:97 mtrace_log] R: 0x8009df48 (len=4) data=0x00000000[0m
0x800020f8: 00 81 27 83 lw	a5, 8(sp)
[1;34m[src/memory/paddr.c:97 mtrace_log] R: 0x800020fc (len=4) data=0x00c12683[0m
[1;34m[src/memory/paddr.c:97 mtrace_log] R: 0x8009df4c (len=4) data=0xffffffff[0m
0x800020fc: 00 c1 26 83 lw	a3, 0xc(sp)
[1;34m[src/memory/paddr.c:97 mtrace_log] R: 0x80002100 (len=4) data=0x00c70663[0m
0x80002100: 00 c7 06 63 beq	a4, a2, 0xc
[1;34m[src/memory/paddr.c:97 mtrace_log] R: 0x8000210c (len=4) data=0x0017f793[0m
0x8000210c: 00 17 f7 93 andi	a5, a5, 1
[1;34m[src/memory/paddr.c:97 mtrace_log] R: 0x80002110 (len=4) data=0x14078063[0m
0x80002110: 14 07 80 63 beqz	a5, 0x140
[1;34m[src/memory/paddr.c:97 mtrace_log] R: 0x80002250 (len=4) data=0xfff68613[0m
0x80002250: ff f6 86 13 addi	a2, a3, -1
[1;34m[src/memory/paddr.c:97 mtrace_log] R: 0x80002254 (len=4) data=0x08d55463[0m
0x80002254: 08 d5 54 63 bge	a0, a3, 0x88
[1;34m[src/memory/paddr.c:97 mtrace_log] R: 0x800022dc (len=4) data=0x00060693[0m
0x800022dc: 00 06 06 93 mv	a3, a2
[1;34m[src/memory/paddr.c:97 mtrace_log] R: 0x800022e0 (len=4) data=0xe35ff06f[0m
0x800022e0: e3 5f f0 6f j	-0x1cc
[1;34m[src/memory/paddr.c:97 mtrace_log] R: 0x80002114 (len=4) data=0x1aa05663[0m
0x80002114: 1a a0 56 63 blez	a0, 0x1ac
[1;34m[src/memory/paddr.c:97 mtrace_log] R: 0x80002118 (len=4) data=0x00a48733[0m
0x80002118: 00 a4 87 33 add	a4, s1, a0
[1;34m[src/memory/paddr.c:97 mtrace_log] R: 0x8000211c (len=4) data=0x000dc783[0m
[1;34m[src/memory/paddr.c:97 mtrace_log] R: 0x800029cc (len=1) data=0x00000064[0m
0x8000211c: 00 0d c7 83 lbu	a5, 0(s11)
[1;34m[src/memory/paddr.c:97 mtrace_log] R: 0x80002120 (len=4) data=0x00148493[0m
0x80002120: 00 14 84 93 addi	s1, s1, 1
[1;34m[src/memory/paddr.c:97 mtrace_log] R: 0x80002124 (len=4) data=0x001d8d93[0m
0x80002124: 00 1d 8d 93 addi	s11, s11, 1
[1;34m[src/memory/paddr.c:97 mtrace_log] R: 0x80002128 (len=4) data=0xfef48fa3[0m
[1;34m[src/memory/paddr.c:97 mtrace_log] W: 0x80095521 (len=1) data=0x00000064[0m
0x80002128: fe f4 8f a3 sb	a5, -1(s1)
[1;34m[src/memory/paddr.c:97 mtrace_log] R: 0x8000212c (len=4) data=0xfe9718e3[0m
0x8000212c: fe 97 18 e3 bne	a4, s1, -0x10
[1;34m[src/memory/paddr.c:97 mtrace_log] R: 0x8000211c (len=4) data=0x000dc783[0m
[1;34m[src/memory/paddr.c:97 mtrace_log] R: 0x800029cd (len=1) data=0x00000069[0m
0x8000211c: 00 0d c7 83 lbu	a5, 0(s11)
[1;34m[src/memory/paddr.c:97 mtrace_log] R: 0x80002120 (len=4) data=0x00148493[0m
0x80002120: 00 14 84 93 addi	s1, s1, 1
[1;34m[src/memory/paddr.c:97 mtrace_log] R: 0x80002124 (len=4) data=0x001d8d93[0m
0x80002124: 00 1d 8d 93 addi	s11, s11, 1
[1;34m[src/memory/paddr.c:97 mtrace_log] R: 0x80002128 (len=4) data=0xfef48fa3[0m
[1;34m[src/memory/paddr.c:97 mtrace_log] W: 0x80095522 (len=1) data=0x00000069[0m
0x80002128: fe f4 8f a3 sb	a5, -1(s1)
[1;34m[src/memory/paddr.c:97 mtrace_log] R: 0x8000212c (len=4) data=0xfe9718e3[0m
0x8000212c: fe 97 18 e3 bne	a4, s1, -0x10
[1;34m[src/memory/paddr.c:97 mtrace_log] R: 0x8000211c (len=4) data=0x000dc783[0m
[1;34m[src/memory/paddr.c:97 mtrace_log] R: 0x800029ce (len=1) data=0x00000073[0m
0x8000211c: 00 0d c7 83 lbu	a5, 0(s11)
[1;34m[src/memory/paddr.c:97 mtrace_log] R: 0x80002120 (len=4) data=0x00148493[0m
0x80002120: 00 14 84 93 addi	s1, s1, 1
[1;34m[src/memory/paddr.c:97 mtrace_log] R: 0x80002124 (len=4) data=0x001d8d93[0m
0x80002124: 00 1d 8d 93 addi	s11, s11, 1
[1;34m[src/memory/paddr.c:97 mtrace_log] R: 0x80002128 (len=4) data=0xfef48fa3[0m
[1;34m[src/memory/paddr.c:97 mtrace_log] W: 0x80095523 (len=1) data=0x00000073[0m
0x80002128: fe f4 8f a3 sb	a5, -1(s1)
[1;34m[src/memory/paddr.c:97 mtrace_log] R: 0x8000212c (len=4) data=0xfe9718e3[0m
0x8000212c: fe 97 18 e3 bne	a4, s1, -0x10
[1;34m[src/memory/paddr.c:97 mtrace_log] R: 0x8000211c (len=4) data=0x000dc783[0m
[1;34m[src/memory/paddr.c:97 mtrace_log] R: 0x800029cf (len=1) data=0x00000070[0m
0x8000211c: 00 0d c7 83 lbu	a5, 0(s11)
[1;34m[src/memory/paddr.c:97 mtrace_log] R: 0x80002120 (len=4) data=0x00148493[0m
0x80002120: 00 14 84 93 addi	s1, s1, 1
[1;34m[src/memory/paddr.c:97 mtrace_log] R: 0x80002124 (len=4) data=0x001d8d93[0m
0x80002124: 00 1d 8d 93 addi	s11, s11, 1
[1;34m[src/memory/paddr.c:97 mtrace_log] R: 0x80002128 (len=4) data=0xfef48fa3[0m
[1;34m[src/memory/paddr.c:97 mtrace_log] W: 0x80095524 (len=1) data=0x00000070[0m
0x80002128: fe f4 8f a3 sb	a5, -1(s1)
[1;34m[src/memory/paddr.c:97 mtrace_log] R: 0x8000212c (len=4) data=0xfe9718e3[0m
0x8000212c: fe 97 18 e3 bne	a4, s1, -0x10
[1;34m[src/memory/paddr.c:97 mtrace_log] R: 0x8000211c (len=4) data=0x000dc783[0m
[1;34m[src/memory/paddr.c:97 mtrace_log] R: 0x800029d0 (len=1) data=0x0000006c[0m
0x8000211c: 00 0d c7 83 lbu	a5, 0(s11)
[1;34m[src/memory/paddr.c:97 mtrace_log] R: 0x80002120 (len=4) data=0x00148493[0m
0x80002120: 00 14 84 93 addi	s1, s1, 1
[1;34m[src/memory/paddr.c:97 mtrace_log] R: 0x80002124 (len=4) data=0x001d8d93[0m
0x80002124: 00 1d 8d 93 addi	s11, s11, 1
[1;34m[src/memory/paddr.c:97 mtrace_log] R: 0x80002128 (len=4) data=0xfef48fa3[0m
[1;34m[src/memory/paddr.c:97 mtrace_log] W: 0x80095525 (len=1) data=0x0000006c[0m
0x80002128: fe f4 8f a3 sb	a5, -1(s1)
[1;34m[src/memory/paddr.c:97 mtrace_log] R: 0x8000212c (len=4) data=0xfe9718e3[0m
0x8000212c: fe 97 18 e3 bne	a4, s1, -0x10
[1;34m[src/memory/paddr.c:97 mtrace_log] R: 0x8000211c (len=4) data=0x000dc783[0m
[1;34m[src/memory/paddr.c:97 mtrace_log] R: 0x800029d1 (len=1) data=0x00000061[0m
0x8000211c: 00 0d c7 83 lbu	a5, 0(s11)
[1;34m[src/memory/paddr.c:97 mtrace_log] R: 0x80002120 (len=4) data=0x00148493[0m
0x80002120: 00 14 84 93 addi	s1, s1, 1
[1;34m[src/memory/paddr.c:97 mtrace_log] R: 0x80002124 (len=4) data=0x001d8d93[0m
0x80002124: 00 1d 8d 93 addi	s11, s11, 1
[1;34m[src/memory/paddr.c:97 mtrace_log] R: 0x80002128 (len=4) data=0xfef48fa3[0m
[1;34m[src/memory/paddr.c:97 mtrace_log] W: 0x80095526 (len=1) data=0x00000061[0m
0x80002128: fe f4 8f a3 sb	a5, -1(s1)
[1;34m[src/memory/paddr.c:97 mtrace_log] R: 0x8000212c (len=4) data=0xfe9718e3[0m
0x8000212c: fe 97 18 e3 bne	a4, s1, -0x10
[1;34m[src/memory/paddr.c:97 mtrace_log] R: 0x8000211c (len=4) data=0x000dc783[0m
[1;34m[src/memory/paddr.c:97 mtrace_log] R: 0x800029d2 (len=1) data=0x00000079[0m
0x8000211c: 00 0d c7 83 lbu	a5, 0(s11)
[1;34m[src/memory/paddr.c:97 mtrace_log] R: 0x80002120 (len=4) data=0x00148493[0m
0x80002120: 00 14 84 93 addi	s1, s1, 1
[1;34m[src/memory/paddr.c:97 mtrace_log] R: 0x80002124 (len=4) data=0x001d8d93[0m
0x80002124: 00 1d 8d 93 addi	s11, s11, 1
[1;34m[src/memory/paddr.c:97 mtrace_log] R: 0x80002128 (len=4) data=0xfef48fa3[0m
[1;34m[src/memory/paddr.c:97 mtrace_log] W: 0x80095527 (len=1) data=0x00000079[0m
0x80002128: fe f4 8f a3 sb	a5, -1(s1)
[1;34m[src/memory/paddr.c:97 mtrace_log] R: 0x8000212c (len=4) data=0xfe9718e3[0m
0x8000212c: fe 97 18 e3 bne	a4, s1, -0x10
[1;34m[src/memory/paddr.c:97 mtrace_log] R: 0x8000211c (len=4) data=0x000dc783[0m
[1;34m[src/memory/paddr.c:97 mtrace_log] R: 0x800029d3 (len=1) data=0x00000020[0m
0x8000211c: 00 0d c7 83 lbu	a5, 0(s11)
[1;34m[src/memory/paddr.c:97 mtrace_log] R: 0x80002120 (len=4) data=0x00148493[0m
0x80002120: 00 14 84 93 addi	s1, s1, 1
[1;34m[src/memory/paddr.c:97 mtrace_log] R: 0x80002124 (len=4) data=0x001d8d93[0m
0x80002124: 00 1d 8d 93 addi	s11, s11, 1
[1;34m[src/memory/paddr.c:97 mtrace_log] R: 0x80002128 (len=4) data=0xfef48fa3[0m
[1;34m[src/memory/paddr.c:97 mtrace_log] W: 0x80095528 (len=1) data=0x00000020[0m
0x80002128: fe f4 8f a3 sb	a5, -1(s1)
[1;34m[src/memory/paddr.c:97 mtrace_log] R: 0x8000212c (len=4) data=0xfe9718e3[0m
0x8000212c: fe 97 18 e3 bne	a4, s1, -0x10
[1;34m[src/memory/paddr.c:97 mtrace_log] R: 0x8000211c (len=4) data=0x000dc783[0m
[1;34m[src/memory/paddr.c:97 mtrace_log] R: 0x800029d4 (len=1) data=0x00000074[0m
0x8000211c: 00 0d c7 83 lbu	a5, 0(s11)
[1;34m[src/memory/paddr.c:97 mtrace_log] R: 0x80002120 (len=4) data=0x00148493[0m
0x80002120: 00 14 84 93 addi	s1, s1, 1
[1;34m[src/memory/paddr.c:97 mtrace_log] R: 0x80002124 (len=4) data=0x001d8d93[0m
0x80002124: 00 1d 8d 93 addi	s11, s11, 1
[1;34m[src/memory/paddr.c:97 mtrace_log] R: 0x80002128 (len=4) data=0xfef48fa3[0m
[1;34m[src/memory/paddr.c:97 mtrace_log] W: 0x80095529 (len=1) data=0x00000074[0m
0x80002128: fe f4 8f a3 sb	a5, -1(s1)
[1;34m[src/memory/paddr.c:97 mtrace_log] R: 0x8000212c (len=4) data=0xfe9718e3[0m
0x8000212c: fe 97 18 e3 bne	a4, s1, -0x10
[1;34m[src/memory/paddr.c:97 mtrace_log] R: 0x8000211c (len=4) data=0x000dc783[0m
[1;34m[src/memory/paddr.c:97 mtrace_log] R: 0x800029d5 (len=1) data=0x00000065[0m
0x8000211c: 00 0d c7 83 lbu	a5, 0(s11)
[1;34m[src/memory/paddr.c:97 mtrace_log] R: 0x80002120 (len=4) data=0x00148493[0m
0x80002120: 00 14 84 93 addi	s1, s1, 1
[1;34m[src/memory/paddr.c:97 mtrace_log] R: 0x80002124 (len=4) data=0x001d8d93[0m
0x80002124: 00 1d 8d 93 addi	s11, s11, 1
[1;34m[src/memory/paddr.c:97 mtrace_log] R: 0x80002128 (len=4) data=0xfef48fa3[0m
[1;34m[src/memory/paddr.c:97 mtrace_log] W: 0x8009552a (len=1) data=0x00000065[0m
0x80002128: fe f4 8f a3 sb	a5, -1(s1)
[1;34m[src/memory/paddr.c:97 mtrace_log] R: 0x8000212c (len=4) data=0xfe9718e3[0m
0x8000212c: fe 97 18 e3 bne	a4, s1, -0x10
[1;34m[src/memory/paddr.c:97 mtrace_log] R: 0x8000211c (len=4) data=0x000dc783[0m
[1;34m[src/memory/paddr.c:97 mtrace_log] R: 0x800029d6 (len=1) data=0x00000073[0m
0x8000211c: 00 0d c7 83 lbu	a5, 0(s11)
[1;34m[src/memory/paddr.c:97 mtrace_log] R: 0x80002120 (len=4) data=0x00148493[0m
0x80002120: 00 14 84 93 addi	s1, s1, 1
[1;34m[src/memory/paddr.c:97 mtrace_log] R: 0x80002124 (len=4) data=0x001d8d93[0m
0x80002124: 00 1d 8d 93 addi	s11, s11, 1
[1;34m[src/memory/paddr.c:97 mtrace_log] R: 0x80002128 (len=4) data=0xfef48fa3[0m
[1;34m[src/memory/paddr.c:97 mtrace_log] W: 0x8009552b (len=1) data=0x00000073[0m
0x80002128: fe f4 8f a3 sb	a5, -1(s1)
[1;34m[src/memory/paddr.c:97 mtrace_log] R: 0x8000212c (len=4) data=0xfe9718e3[0m
0x8000212c: fe 97 18 e3 bne	a4, s1, -0x10
[1;34m[src/memory/paddr.c:97 mtrace_log] R: 0x8000211c (len=4) data=0x000dc783[0m
[1;34m[src/memory/paddr.c:97 mtrace_log] R: 0x800029d7 (len=1) data=0x00000074[0m
0x8000211c: 00 0d c7 83 lbu	a5, 0(s11)
[1;34m[src/memory/paddr.c:97 mtrace_log] R: 0x80002120 (len=4) data=0x00148493[0m
0x80002120: 00 14 84 93 addi	s1, s1, 1
[1;34m[src/memory/paddr.c:97 mtrace_log] R: 0x80002124 (len=4) data=0x001d8d93[0m
0x80002124: 00 1d 8d 93 addi	s11, s11, 1
[1;34m[src/memory/paddr.c:97 mtrace_log] R: 0x80002128 (len=4) data=0xfef48fa3[0m
[1;34m[src/memory/paddr.c:97 mtrace_log] W: 0x8009552c (len=1) data=0x00000074[0m
0x80002128: fe f4 8f a3 sb	a5, -1(s1)
[1;34m[src/memory/paddr.c:97 mtrace_log] R: 0x8000212c (len=4) data=0xfe9718e3[0m
0x8000212c: fe 97 18 e3 bne	a4, s1, -0x10
[1;34m[src/memory/paddr.c:97 mtrace_log] R: 0x80002130 (len=4) data=0x40a684b3[0m
0x80002130: 40 a6 84 b3 sub	s1, a3, a0
[1;34m[src/memory/paddr.c:97 mtrace_log] R: 0x80002134 (len=4) data=0x00140593[0m
0x80002134: 00 14 05 93 addi	a1, s0, 1
[1;34m[src/memory/paddr.c:97 mtrace_log] R: 0x80002138 (len=4) data=0x009704b3[0m
0x80002138: 00 97 04 b3 add	s1, a4, s1
[1;34m[src/memory/paddr.c:97 mtrace_log] R: 0x8000213c (len=4) data=0x02000793[0m
0x8000213c: 02 00 07 93 addi	a5, zero, 0x20
[1;34m[src/memory/paddr.c:97 mtrace_log] R: 0x80002140 (len=4) data=0x16d55663[0m
0x80002140: 16 d5 56 63 bge	a0, a3, 0x16c
[1;34m[src/memory/paddr.c:97 mtrace_log] R: 0x800022ac (len=4) data=0x00144783[0m
[1;34m[src/memory/paddr.c:97 mtrace_log] R: 0x8000291c (len=1) data=0x0000000a[0m
0x800022ac: 00 14 47 83 lbu	a5, 1(s0)
[1;34m[src/memory/paddr.c:97 mtrace_log] R: 0x800022b0 (len=4) data=0x01c12d83[0m
[1;34m[src/memory/paddr.c:97 mtrace_log] R: 0x8009df5c (len=4) data=0x00000000[0m
0x800022b0: 01 c1 2d 83 lw	s11, 0x1c(sp)
[1;34m[src/memory/paddr.c:97 mtrace_log] R: 0x800022b4 (len=4) data=0x00070493[0m
0x800022b4: 00 07 04 93 mv	s1, a4
[1;34m[src/memory/paddr.c:97 mtrace_log] R: 0x800022b8 (len=4) data=0xbc0792e3[0m
0x800022b8: bc 07 92 e3 bnez	a5, -0x43c
[1;34m[src/memory/paddr.c:97 mtrace_log] R: 0x80001e7c (len=4) data=0x05578c63[0m
0x80001e7c: 05 57 8c 63 beq	a5, s5, 0x58
[1;34m[src/memory/paddr.c:97 mtrace_log] R: 0x80001e80 (len=4) data=0x00f48023[0m
[1;34m[src/memory/paddr.c:97 mtrace_log] W: 0x8009552d (len=1) data=0x0000000a[0m
0x80001e80: 00 f4 80 23 sb	a5, 0(s1)
[1;34m[src/memory/paddr.c:97 mtrace_log] R: 0x80001e84 (len=4) data=0x0015c783[0m
[1;34m[src/memory/paddr.c:97 mtrace_log] R: 0x8000291d (len=1) data=0x00000000[0m
0x80001e84: 00 15 c7 83 lbu	a5, 1(a1)
[1;34m[src/memory/paddr.c:97 mtrace_log] R: 0x80001e88 (len=4) data=0x00148493[0m
0x80001e88: 00 14 84 93 addi	s1, s1, 1
[1;34m[src/memory/paddr.c:97 mtrace_log] R: 0x80001e8c (len=4) data=0x00158593[0m
0x80001e8c: 00 15 85 93 addi	a1, a1, 1
[1;34m[src/memory/paddr.c:97 mtrace_log] R: 0x80001e90 (len=4) data=0xfe0796e3[0m
0x80001e90: fe 07 96 e3 bnez	a5, -0x14
[1;34m[src/memory/paddr.c:97 mtrace_log] R: 0x80001e94 (len=4) data=0x04812403[0m
[1;34m[src/memory/paddr.c:97 mtrace_log] R: 0x8009df88 (len=4) data=0x00000076[0m
0x80001e94: 04 81 24 03 lw	s0, 0x48(sp)
[1;34m[src/memory/paddr.c:97 mtrace_log] R: 0x80001e98 (len=4) data=0x04012903[0m
[1;34m[src/memory/paddr.c:97 mtrace_log] R: 0x8009df80 (len=4) data=0x00000100[0m
0x80001e98: 04 01 29 03 lw	s2, 0x40(sp)
[1;34m[src/memory/paddr.c:97 mtrace_log] R: 0x80001e9c (len=4) data=0x03c12983[0m
[1;34m[src/memory/paddr.c:97 mtrace_log] R: 0x8009df7c (len=4) data=0x80002914[0m
0x80001e9c: 03 c1 29 83 lw	s3, 0x3c(sp)
[1;34m[src/memory/paddr.c:97 mtrace_log] R: 0x80001ea0 (len=4) data=0x03812a03[0m
[1;34m[src/memory/paddr.c:97 mtrace_log] R: 0x8009df78 (len=4) data=0x00000000[0m
0x80001ea0: 03 81 2a 03 lw	s4, 0x38(sp)
[1;34m[src/memory/paddr.c:97 mtrace_log] R: 0x80001ea4 (len=4) data=0x03412a83[0m
[1;34m[src/memory/paddr.c:97 mtrace_log] R: 0x8009df74 (len=4) data=0x00000000[0m
0x80001ea4: 03 41 2a 83 lw	s5, 0x34(sp)
[1;34m[src/memory/paddr.c:97 mtrace_log] R: 0x80001ea8 (len=4) data=0x02c12b83[0m
[1;34m[src/memory/paddr.c:97 mtrace_log] R: 0x8009df6c (len=4) data=0x00000000[0m
0x80001ea8: 02 c1 2b 83 lw	s7, 0x2c(sp)
[1;34m[src/memory/paddr.c:97 mtrace_log] R: 0x80001eac (len=4) data=0x02812c03[0m
[1;34m[src/memory/paddr.c:97 mtrace_log] R: 0x8009df68 (len=4) data=0x00000000[0m
0x80001eac: 02 81 2c 03 lw	s8, 0x28(sp)
[1;34m[src/memory/paddr.c:97 mtrace_log] R: 0x80001eb0 (len=4) data=0x02412c83[0m
[1;34m[src/memory/paddr.c:97 mtrace_log] R: 0x8009df64 (len=4) data=0x00000000[0m
0x80001eb0: 02 41 2c 83 lw	s9, 0x24(sp)
[1;34m[src/memory/paddr.c:97 mtrace_log] R: 0x80001eb4 (len=4) data=0x02012d03[0m
[1;34m[src/memory/paddr.c:97 mtrace_log] R: 0x8009df60 (len=4) data=0x00000000[0m
0x80001eb4: 02 01 2d 03 lw	s10, 0x20(sp)
[1;34m[src/memory/paddr.c:97 mtrace_log] R: 0x80001eb8 (len=4) data=0x00048023[0m
[1;34m[src/memory/paddr.c:97 mtrace_log] W: 0x8009552e (len=1) data=0x00000000[0m
0x80001eb8: 00 04 80 23 sb	zero, 0(s1)
[1;34m[src/memory/paddr.c:97 mtrace_log] R: 0x80001ebc (len=4) data=0x04c12083[0m
[1;34m[src/memory/paddr.c:97 mtrace_log] R: 0x8009df8c (len=4) data=0x80002340[0m
0x80001ebc: 04 c1 20 83 lw	ra, 0x4c(sp)
[1;34m[src/memory/paddr.c:97 mtrace_log] R: 0x80001ec0 (len=4) data=0x41648533[0m
0x80001ec0: 41 64 85 33 sub	a0, s1, s6
[1;34m[src/memory/paddr.c:97 mtrace_log] R: 0x80001ec4 (len=4) data=0x04412483[0m
[1;34m[src/memory/paddr.c:97 mtrace_log] R: 0x8009df84 (len=4) data=0x80002ed0[0m
0x80001ec4: 04 41 24 83 lw	s1, 0x44(sp)
[1;34m[src/memory/paddr.c:97 mtrace_log] R: 0x80001ec8 (len=4) data=0x03012b03[0m
[1;34m[src/memory/paddr.c:97 mtrace_log] R: 0x8009df70 (len=4) data=0x00000000[0m
0x80001ec8: 03 01 2b 03 lw	s6, 0x30(sp)
[1;34m[src/memory/paddr.c:97 mtrace_log] R: 0x80001ecc (len=4) data=0x05010113[0m
0x80001ecc: 05 01 01 13 addi	sp, sp, 0x50
[1;34m[src/memory/paddr.c:97 mtrace_log] R: 0x80001ed0 (len=4) data=0x00008067[0m
0x80001ed0: 00 00 80 67 ret
[1;34m[src/memory/paddr.c:97 mtrace_log] R: 0x80002340 (len=4) data=0x00093797[0m
0x80002340: 00 09 37 97 auipc	a5, 0x93
[1;34m[src/memory/paddr.c:97 mtrace_log] R: 0x80002344 (len=4) data=0x1dc78793[0m
0x80002344: 1d c7 87 93 addi	a5, a5, 0x1dc
[1;34m[src/memory/paddr.c:97 mtrace_log] R: 0x80002348 (len=4) data=0x0007c703[0m
[1;34m[src/memory/paddr.c:97 mtrace_log] R: 0x8009551c (len=1) data=0x00000020[0m
0x80002348: 00 07 c7 03 lbu	a4, 0(a5)
[1;34m[src/memory/paddr.c:97 mtrace_log] R: 0x8000234c (len=4) data=0x00070e63[0m
0x8000234c: 00 07 0e 63 beqz	a4, 0x1c
[1;34m[src/memory/paddr.c:97 mtrace_log] R: 0x80002350 (len=4) data=0xa00006b7[0m
0x80002350: a0 00 06 b7 lui	a3, 0xa0000
[1;34m[src/memory/paddr.c:97 mtrace_log] R: 0x80002354 (len=4) data=0x3f868693[0m
0x80002354: 3f 86 86 93 addi	a3, a3, 0x3f8
[1;34m[src/memory/paddr.c:97 mtrace_log] R: 0x80002358 (len=4) data=0x00178793[0m
0x80002358: 00 17 87 93 addi	a5, a5, 1
[1;34m[src/memory/paddr.c:97 mtrace_log] R: 0x8000235c (len=4) data=0x00e68023[0m
[1;34m[src/memory/paddr.c:97 mtrace_log] W: 0xa00003f8 (len=1) data=0x00000020[0m
0x8000235c: 00 e6 80 23 sb	a4, 0(a3)
[1;34m[src/memory/paddr.c:97 mtrace_log] R: 0x80002360 (len=4) data=0x0007c703[0m
[1;34m[src/memory/paddr.c:97 mtrace_log] R: 0x8009551d (len=1) data=0x00000020[0m
0x80002360: 00 07 c7 03 lbu	a4, 0(a5)
[1;34m[src/memory/paddr.c:97 mtrace_log] R: 0x80002364 (len=4) data=0xfe071ae3[0m
0x80002364: fe 07 1a e3 bnez	a4, -0xc
[1;34m[src/memory/paddr.c:97 mtrace_log] R: 0x80002358 (len=4) data=0x00178793[0m
0x80002358: 00 17 87 93 addi	a5, a5, 1
[1;34m[src/memory/paddr.c:97 mtrace_log] R: 0x8000235c (len=4) data=0x00e68023[0m
[1;34m[src/memory/paddr.c:97 mtrace_log] W: 0xa00003f8 (len=1) data=0x00000020[0m
0x8000235c: 00 e6 80 23 sb	a4, 0(a3)
[1;34m[src/memory/paddr.c:97 mtrace_log] R: 0x80002360 (len=4) data=0x0007c703[0m
[1;34m[src/memory/paddr.c:97 mtrace_log] R: 0x8009551e (len=1) data=0x00000076[0m
0x80002360: 00 07 c7 03 lbu	a4, 0(a5)
[1;34m[src/memory/paddr.c:97 mtrace_log] R: 0x80002364 (len=4) data=0xfe071ae3[0m
0x80002364: fe 07 1a e3 bnez	a4, -0xc
[1;34m[src/memory/paddr.c:97 mtrace_log] R: 0x80002358 (len=4) data=0x00178793[0m
0x80002358: 00 17 87 93 addi	a5, a5, 1
[1;34m[src/memory/paddr.c:97 mtrace_log] R: 0x8000235c (len=4) data=0x00e68023[0m
[1;34m[src/memory/paddr.c:97 mtrace_log] W: 0xa00003f8 (len=1) data=0x00000076[0m
0x8000235c: 00 e6 80 23 sb	a4, 0(a3)
[1;34m[src/memory/paddr.c:97 mtrace_log] R: 0x80002360 (len=4) data=0x0007c703[0m
[1;34m[src/memory/paddr.c:97 mtrace_log] R: 0x8009551f (len=1) data=0x0000003a[0m
0x80002360: 00 07 c7 03 lbu	a4, 0(a5)
[1;34m[src/memory/paddr.c:97 mtrace_log] R: 0x80002364 (len=4) data=0xfe071ae3[0m
0x80002364: fe 07 1a e3 bnez	a4, -0xc
[1;34m[src/memory/paddr.c:97 mtrace_log] R: 0x80002358 (len=4) data=0x00178793[0m
0x80002358: 00 17 87 93 addi	a5, a5, 1
[1;34m[src/memory/paddr.c:97 mtrace_log] R: 0x8000235c (len=4) data=0x00e68023[0m
[1;34m[src/memory/paddr.c:97 mtrace_log] W: 0xa00003f8 (len=1) data=0x0000003a[0m
0x8000235c: 00 e6 80 23 sb	a4, 0(a3)
[1;34m[src/memory/paddr.c:97 mtrace_log] R: 0x80002360 (len=4) data=0x0007c703[0m
[1;34m[src/memory/paddr.c:97 mtrace_log] R: 0x80095520 (len=1) data=0x00000020[0m
0x80002360: 00 07 c7 03 lbu	a4, 0(a5)
[1;34m[src/memory/paddr.c:97 mtrace_log] R: 0x80002364 (len=4) data=0xfe071ae3[0m
0x80002364: fe 07 1a e3 bnez	a4, -0xc
[1;34m[src/memory/paddr.c:97 mtrace_log] R: 0x80002358 (len=4) data=0x00178793[0m
0x80002358: 00 17 87 93 addi	a5, a5, 1
[1;34m[src/memory/paddr.c:97 mtrace_log] R: 0x8000235c (len=4) data=0x00e68023[0m
[1;34m[src/memory/paddr.c:97 mtrace_log] W: 0xa00003f8 (len=1) data=0x00000020[0m
0x8000235c: 00 e6 80 23 sb	a4, 0(a3)
[1;34m[src/memory/paddr.c:97 mtrace_log] R: 0x80002360 (len=4) data=0x0007c703[0m
[1;34m[src/memory/paddr.c:97 mtrace_log] R: 0x80095521 (len=1) data=0x00000064[0m
0x80002360: 00 07 c7 03 lbu	a4, 0(a5)
[1;34m[src/memory/paddr.c:97 mtrace_log] R: 0x80002364 (len=4) data=0xfe071ae3[0m
0x80002364: fe 07 1a e3 bnez	a4, -0xc
[1;34m[src/memory/paddr.c:97 mtrace_log] R: 0x80002358 (len=4) data=0x00178793[0m
0x80002358: 00 17 87 93 addi	a5, a5, 1
[1;34m[src/memory/paddr.c:97 mtrace_log] R: 0x8000235c (len=4) data=0x00e68023[0m
[1;34m[src/memory/paddr.c:97 mtrace_log] W: 0xa00003f8 (len=1) data=0x00000064[0m
0x8000235c: 00 e6 80 23 sb	a4, 0(a3)
[1;34m[src/memory/paddr.c:97 mtrace_log] R: 0x80002360 (len=4) data=0x0007c703[0m
[1;34m[src/memory/paddr.c:97 mtrace_log] R: 0x80095522 (len=1) data=0x00000069[0m
0x80002360: 00 07 c7 03 lbu	a4, 0(a5)
[1;34m[src/memory/paddr.c:97 mtrace_log] R: 0x80002364 (len=4) data=0xfe071ae3[0m
0x80002364: fe 07 1a e3 bnez	a4, -0xc
[1;34m[src/memory/paddr.c:97 mtrace_log] R: 0x80002358 (len=4) data=0x00178793[0m
0x80002358: 00 17 87 93 addi	a5, a5, 1
[1;34m[src/memory/paddr.c:97 mtrace_log] R: 0x8000235c (len=4) data=0x00e68023[0m
[1;34m[src/memory/paddr.c:97 mtrace_log] W: 0xa00003f8 (len=1) data=0x00000069[0m
0x8000235c: 00 e6 80 23 sb	a4, 0(a3)
[1;34m[src/memory/paddr.c:97 mtrace_log] R: 0x80002360 (len=4) data=0x0007c703[0m
[1;34m[src/memory/paddr.c:97 mtrace_log] R: 0x80095523 (len=1) data=0x00000073[0m
0x80002360: 00 07 c7 03 lbu	a4, 0(a5)
[1;34m[src/memory/paddr.c:97 mtrace_log] R: 0x80002364 (len=4) data=0xfe071ae3[0m
0x80002364: fe 07 1a e3 bnez	a4, -0xc
[1;34m[src/memory/paddr.c:97 mtrace_log] R: 0x80002358 (len=4) data=0x00178793[0m
0x80002358: 00 17 87 93 addi	a5, a5, 1
[1;34m[src/memory/paddr.c:97 mtrace_log] R: 0x8000235c (len=4) data=0x00e68023[0m
[1;34m[src/memory/paddr.c:97 mtrace_log] W: 0xa00003f8 (len=1) data=0x00000073[0m
0x8000235c: 00 e6 80 23 sb	a4, 0(a3)
[1;34m[src/memory/paddr.c:97 mtrace_log] R: 0x80002360 (len=4) data=0x0007c703[0m
[1;34m[src/memory/paddr.c:97 mtrace_log] R: 0x80095524 (len=1) data=0x00000070[0m
0x80002360: 00 07 c7 03 lbu	a4, 0(a5)
[1;34m[src/memory/paddr.c:97 mtrace_log] R: 0x80002364 (len=4) data=0xfe071ae3[0m
0x80002364: fe 07 1a e3 bnez	a4, -0xc
[1;34m[src/memory/paddr.c:97 mtrace_log] R: 0x80002358 (len=4) data=0x00178793[0m
0x80002358: 00 17 87 93 addi	a5, a5, 1
[1;34m[src/memory/paddr.c:97 mtrace_log] R: 0x8000235c (len=4) data=0x00e68023[0m
[1;34m[src/memory/paddr.c:97 mtrace_log] W: 0xa00003f8 (len=1) data=0x00000070[0m
0x8000235c: 00 e6 80 23 sb	a4, 0(a3)
[1;34m[src/memory/paddr.c:97 mtrace_log] R: 0x80002360 (len=4) data=0x0007c703[0m
[1;34m[src/memory/paddr.c:97 mtrace_log] R: 0x80095525 (len=1) data=0x0000006c[0m
0x80002360: 00 07 c7 03 lbu	a4, 0(a5)
[1;34m[src/memory/paddr.c:97 mtrace_log] R: 0x80002364 (len=4) data=0xfe071ae3[0m
0x80002364: fe 07 1a e3 bnez	a4, -0xc
[1;34m[src/memory/paddr.c:97 mtrace_log] R: 0x80002358 (len=4) data=0x00178793[0m
0x80002358: 00 17 87 93 addi	a5, a5, 1
[1;34m[src/memory/paddr.c:97 mtrace_log] R: 0x8000235c (len=4) data=0x00e68023[0m
[1;34m[src/memory/paddr.c:97 mtrace_log] W: 0xa00003f8 (len=1) data=0x0000006c[0m
0x8000235c: 00 e6 80 23 sb	a4, 0(a3)
[1;34m[src/memory/paddr.c:97 mtrace_log] R: 0x80002360 (len=4) data=0x0007c703[0m
[1;34m[src/memory/paddr.c:97 mtrace_log] R: 0x80095526 (len=1) data=0x00000061[0m
0x80002360: 00 07 c7 03 lbu	a4, 0(a5)
[1;34m[src/memory/paddr.c:97 mtrace_log] R: 0x80002364 (len=4) data=0xfe071ae3[0m
0x80002364: fe 07 1a e3 bnez	a4, -0xc
[1;34m[src/memory/paddr.c:97 mtrace_log] R: 0x80002358 (len=4) data=0x00178793[0m
0x80002358: 00 17 87 93 addi	a5, a5, 1
[1;34m[src/memory/paddr.c:97 mtrace_log] R: 0x8000235c (len=4) data=0x00e68023[0m
[1;34m[src/memory/paddr.c:97 mtrace_log] W: 0xa00003f8 (len=1) data=0x00000061[0m
0x8000235c: 00 e6 80 23 sb	a4, 0(a3)
[1;34m[src/memory/paddr.c:97 mtrace_log] R: 0x80002360 (len=4) data=0x0007c703[0m
[1;34m[src/memory/paddr.c:97 mtrace_log] R: 0x80095527 (len=1) data=0x00000079[0m
0x80002360: 00 07 c7 03 lbu	a4, 0(a5)
[1;34m[src/memory/paddr.c:97 mtrace_log] R: 0x80002364 (len=4) data=0xfe071ae3[0m
0x80002364: fe 07 1a e3 bnez	a4, -0xc
[1;34m[src/memory/paddr.c:97 mtrace_log] R: 0x80002358 (len=4) data=0x00178793[0m
0x80002358: 00 17 87 93 addi	a5, a5, 1
[1;34m[src/memory/paddr.c:97 mtrace_log] R: 0x8000235c (len=4) data=0x00e68023[0m
[1;34m[src/memory/paddr.c:97 mtrace_log] W: 0xa00003f8 (len=1) data=0x00000079[0m
0x8000235c: 00 e6 80 23 sb	a4, 0(a3)
[1;34m[src/memory/paddr.c:97 mtrace_log] R: 0x80002360 (len=4) data=0x0007c703[0m
[1;34m[src/memory/paddr.c:97 mtrace_log] R: 0x80095528 (len=1) data=0x00000020[0m
0x80002360: 00 07 c7 03 lbu	a4, 0(a5)
[1;34m[src/memory/paddr.c:97 mtrace_log] R: 0x80002364 (len=4) data=0xfe071ae3[0m
0x80002364: fe 07 1a e3 bnez	a4, -0xc
[1;34m[src/memory/paddr.c:97 mtrace_log] R: 0x80002358 (len=4) data=0x00178793[0m
0x80002358: 00 17 87 93 addi	a5, a5, 1
[1;34m[src/memory/paddr.c:97 mtrace_log] R: 0x8000235c (len=4) data=0x00e68023[0m
[1;34m[src/memory/paddr.c:97 mtrace_log] W: 0xa00003f8 (len=1) data=0x00000020[0m
0x8000235c: 00 e6 80 23 sb	a4, 0(a3)
[1;34m[src/memory/paddr.c:97 mtrace_log] R: 0x80002360 (len=4) data=0x0007c703[0m
[1;34m[src/memory/paddr.c:97 mtrace_log] R: 0x80095529 (len=1) data=0x00000074[0m
0x80002360: 00 07 c7 03 lbu	a4, 0(a5)
[1;34m[src/memory/paddr.c:97 mtrace_log] R: 0x80002364 (len=4) data=0xfe071ae3[0m
0x80002364: fe 07 1a e3 bnez	a4, -0xc
[1;34m[src/memory/paddr.c:97 mtrace_log] R: 0x80002358 (len=4) data=0x00178793[0m
0x80002358: 00 17 87 93 addi	a5, a5, 1
[1;34m[src/memory/paddr.c:97 mtrace_log] R: 0x8000235c (len=4) data=0x00e68023[0m
[1;34m[src/memory/paddr.c:97 mtrace_log] W: 0xa00003f8 (len=1) data=0x00000074[0m
0x8000235c: 00 e6 80 23 sb	a4, 0(a3)
[1;34m[src/memory/paddr.c:97 mtrace_log] R: 0x80002360 (len=4) data=0x0007c703[0m
[1;34m[src/memory/paddr.c:97 mtrace_log] R: 0x8009552a (len=1) data=0x00000065[0m
0x80002360: 00 07 c7 03 lbu	a4, 0(a5)
[1;34m[src/memory/paddr.c:97 mtrace_log] R: 0x80002364 (len=4) data=0xfe071ae3[0m
0x80002364: fe 07 1a e3 bnez	a4, -0xc
[1;34m[src/memory/paddr.c:97 mtrace_log] R: 0x80002358 (len=4) data=0x00178793[0m
0x80002358: 00 17 87 93 addi	a5, a5, 1
[1;34m[src/memory/paddr.c:97 mtrace_log] R: 0x8000235c (len=4) data=0x00e68023[0m
[1;34m[src/memory/paddr.c:97 mtrace_log] W: 0xa00003f8 (len=1) data=0x00000065[0m
0x8000235c: 00 e6 80 23 sb	a4, 0(a3)
[1;34m[src/memory/paddr.c:97 mtrace_log] R: 0x80002360 (len=4) data=0x0007c703[0m
[1;34m[src/memory/paddr.c:97 mtrace_log] R: 0x8009552b (len=1) data=0x00000073[0m
0x80002360: 00 07 c7 03 lbu	a4, 0(a5)
[1;34m[src/memory/paddr.c:97 mtrace_log] R: 0x80002364 (len=4) data=0xfe071ae3[0m
0x80002364: fe 07 1a e3 bnez	a4, -0xc
[1;34m[src/memory/paddr.c:97 mtrace_log] R: 0x80002358 (len=4) data=0x00178793[0m
0x80002358: 00 17 87 93 addi	a5, a5, 1
[1;34m[src/memory/paddr.c:97 mtrace_log] R: 0x8000235c (len=4) data=0x00e68023[0m
[1;34m[src/memory/paddr.c:97 mtrace_log] W: 0xa00003f8 (len=1) data=0x00000073[0m
0x8000235c: 00 e6 80 23 sb	a4, 0(a3)
[1;34m[src/memory/paddr.c:97 mtrace_log] R: 0x80002360 (len=4) data=0x0007c703[0m
[1;34m[src/memory/paddr.c:97 mtrace_log] R: 0x8009552c (len=1) data=0x00000074[0m
0x80002360: 00 07 c7 03 lbu	a4, 0(a5)
[1;34m[src/memory/paddr.c:97 mtrace_log] R: 0x80002364 (len=4) data=0xfe071ae3[0m
0x80002364: fe 07 1a e3 bnez	a4, -0xc
[1;34m[src/memory/paddr.c:97 mtrace_log] R: 0x80002358 (len=4) data=0x00178793[0m
0x80002358: 00 17 87 93 addi	a5, a5, 1
[1;34m[src/memory/paddr.c:97 mtrace_log] R: 0x8000235c (len=4) data=0x00e68023[0m
[1;34m[src/memory/paddr.c:97 mtrace_log] W: 0xa00003f8 (len=1) data=0x00000074[0m
0x8000235c: 00 e6 80 23 sb	a4, 0(a3)
[1;34m[src/memory/paddr.c:97 mtrace_log] R: 0x80002360 (len=4) data=0x0007c703[0m
[1;34m[src/memory/paddr.c:97 mtrace_log] R: 0x8009552d (len=1) data=0x0000000a[0m
0x80002360: 00 07 c7 03 lbu	a4, 0(a5)
[1;34m[src/memory/paddr.c:97 mtrace_log] R: 0x80002364 (len=4) data=0xfe071ae3[0m
0x80002364: fe 07 1a e3 bnez	a4, -0xc
[1;34m[src/memory/paddr.c:97 mtrace_log] R: 0x80002358 (len=4) data=0x00178793[0m
0x80002358: 00 17 87 93 addi	a5, a5, 1
[1;34m[src/memory/paddr.c:97 mtrace_log] R: 0x8000235c (len=4) data=0x00e68023[0m
[1;34m[src/memory/paddr.c:97 mtrace_log] W: 0xa00003f8 (len=1) data=0x0000000a[0m
0x8000235c: 00 e6 80 23 sb	a4, 0(a3)
[1;34m[src/memory/paddr.c:97 mtrace_log] R: 0x80002360 (len=4) data=0x0007c703[0m
[1;34m[src/memory/paddr.c:97 mtrace_log] R: 0x8009552e (len=1) data=0x00000000[0m
0x80002360: 00 07 c7 03 lbu	a4, 0(a5)
[1;34m[src/memory/paddr.c:97 mtrace_log] R: 0x80002364 (len=4) data=0xfe071ae3[0m
0x80002364: fe 07 1a e3 bnez	a4, -0xc
[1;34m[src/memory/paddr.c:97 mtrace_log] R: 0x80002368 (len=4) data=0x01c12083[0m
[1;34m[src/memory/paddr.c:97 mtrace_log] R: 0x8009dfac (len=4) data=0x80000e90[0m
0x80002368: 01 c1 20 83 lw	ra, 0x1c(sp)
[1;34m[src/memory/paddr.c:97 mtrace_log] R: 0x8000236c (len=4) data=0x04010113[0m
0x8000236c: 04 01 01 13 addi	sp, sp, 0x40
[1;34m[src/memory/paddr.c:97 mtrace_log] R: 0x80002370 (len=4) data=0x00008067[0m
0x80002370: 00 00 80 67 ret
[1;34m[src/memory/paddr.c:97 mtrace_log] R: 0x80000e90 (len=4) data=0x00140413[0m
0x80000e90: 00 14 04 13 addi	s0, s0, 1
[1;34m[src/memory/paddr.c:97 mtrace_log] R: 0x80000e94 (len=4) data=0x00448493[0m
0x80000e94: 00 44 84 93 addi	s1, s1, 4
[1;34m[src/memory/paddr.c:97 mtrace_log] R: 0x80000e98 (len=4) data=0xff2412e3[0m
0x80000e98: ff 24 12 e3 bne	s0, s2, -0x1c
[1;34m[src/memory/paddr.c:97 mtrace_log] R: 0x80000e7c (len=4) data=0x0004a603[0m
[1;34m[src/memory/paddr.c:97 mtrace_log] R: 0x80002ed4 (len=4) data=0x00000000[0m
0x80000e7c: 00 04 a6 03 lw	a2, 0(s1)
[1;34m[src/memory/paddr.c:97 mtrace_log] R: 0x80000e80 (len=4) data=0x00060863[0m
0x80000e80: 00 06 08 63 beqz	a2, 0x10
[1;34m[src/memory/paddr.c:97 mtrace_log] R: 0x80000e90 (len=4) data=0x00140413[0m
0x80000e90: 00 14 04 13 addi	s0, s0, 1
[1;34m[src/memory/paddr.c:97 mtrace_log] R: 0x80000e94 (len=4) data=0x00448493[0m
0x80000e94: 00 44 84 93 addi	s1, s1, 4
[1;34m[src/memory/paddr.c:97 mtrace_log] R: 0x80000e98 (len=4) data=0xff2412e3[0m
0x80000e98: ff 24 12 e3 bne	s0, s2, -0x1c
[1;34m[src/memory/paddr.c:97 mtrace_log] R: 0x80000e7c (len=4) data=0x0004a603[0m
[1;34m[src/memory/paddr.c:97 mtrace_log] R: 0x80002ed8 (len=4) data=0x00000000[0m
0x80000e7c: 00 04 a6 03 lw	a2, 0(s1)
[1;34m[src/memory/paddr.c:97 mtrace_log] R: 0x80000e80 (len=4) data=0x00060863[0m
0x80000e80: 00 06 08 63 beqz	a2, 0x10
[1;34m[src/memory/paddr.c:97 mtrace_log] R: 0x80000e90 (len=4) data=0x00140413[0m
0x80000e90: 00 14 04 13 addi	s0, s0, 1
[1;34m[src/memory/paddr.c:97 mtrace_log] R: 0x80000e94 (len=4) data=0x00448493[0m
0x80000e94: 00 44 84 93 addi	s1, s1, 4
[1;34m[src/memory/paddr.c:97 mtrace_log] R: 0x80000e98 (len=4) data=0xff2412e3[0m
0x80000e98: ff 24 12 e3 bne	s0, s2, -0x1c
[1;34m[src/memory/paddr.c:97 mtrace_log] R: 0x80000e7c (len=4) data=0x0004a603[0m
[1;34m[src/memory/paddr.c:97 mtrace_log] R: 0x80002edc (len=4) data=0x00000000[0m
0x80000e7c: 00 04 a6 03 lw	a2, 0(s1)
[1;34m[src/memory/paddr.c:97 mtrace_log] R: 0x80000e80 (len=4) data=0x00060863[0m
0x80000e80: 00 06 08 63 beqz	a2, 0x10
[1;34m[src/memory/paddr.c:97 mtrace_log] R: 0x80000e90 (len=4) data=0x00140413[0m
0x80000e90: 00 14 04 13 addi	s0, s0, 1
[1;34m[src/memory/paddr.c:97 mtrace_log] R: 0x80000e94 (len=4) data=0x00448493[0m
0x80000e94: 00 44 84 93 addi	s1, s1, 4
[1;34m[src/memory/paddr.c:97 mtrace_log] R: 0x80000e98 (len=4) data=0xff2412e3[0m
0x80000e98: ff 24 12 e3 bne	s0, s2, -0x1c
[1;34m[src/memory/paddr.c:97 mtrace_log] R: 0x80000e7c (len=4) data=0x0004a603[0m
[1;34m[src/memory/paddr.c:97 mtrace_log] R: 0x80002ee0 (len=4) data=0x00000000[0m
0x80000e7c: 00 04 a6 03 lw	a2, 0(s1)
[1;34m[src/memory/paddr.c:97 mtrace_log] R: 0x80000e80 (len=4) data=0x00060863[0m
0x80000e80: 00 06 08 63 beqz	a2, 0x10
[1;34m[src/memory/paddr.c:97 mtrace_log] R: 0x80000e90 (len=4) data=0x00140413[0m
0x80000e90: 00 14 04 13 addi	s0, s0, 1
[1;34m[src/memory/paddr.c:97 mtrace_log] R: 0x80000e94 (len=4) data=0x00448493[0m
0x80000e94: 00 44 84 93 addi	s1, s1, 4
[1;34m[src/memory/paddr.c:97 mtrace_log] R: 0x80000e98 (len=4) data=0xff2412e3[0m
0x80000e98: ff 24 12 e3 bne	s0, s2, -0x1c
[1;34m[src/memory/paddr.c:97 mtrace_log] R: 0x80000e7c (len=4) data=0x0004a603[0m
[1;34m[src/memory/paddr.c:97 mtrace_log] R: 0x80002ee4 (len=4) data=0x00000000[0m
0x80000e7c: 00 04 a6 03 lw	a2, 0(s1)
[1;34m[src/memory/paddr.c:97 mtrace_log] R: 0x80000e80 (len=4) data=0x00060863[0m
0x80000e80: 00 06 08 63 beqz	a2, 0x10
[1;34m[src/memory/paddr.c:97 mtrace_log] R: 0x80000e90 (len=4) data=0x00140413[0m
0x80000e90: 00 14 04 13 addi	s0, s0, 1
[1;34m[src/memory/paddr.c:97 mtrace_log] R: 0x80000e94 (len=4) data=0x00448493[0m
0x80000e94: 00 44 84 93 addi	s1, s1, 4
[1;34m[src/memory/paddr.c:97 mtrace_log] R: 0x80000e98 (len=4) data=0xff2412e3[0m
0x80000e98: ff 24 12 e3 bne	s0, s2, -0x1c
[1;34m[src/memory/paddr.c:97 mtrace_log] R: 0x80000e7c (len=4) data=0x0004a603[0m
[1;34m[src/memory/paddr.c:97 mtrace_log] R: 0x80002ee8 (len=4) data=0x00000000[0m
0x80000e7c: 00 04 a6 03 lw	a2, 0(s1)
[1;34m[src/memory/paddr.c:97 mtrace_log] R: 0x80000e80 (len=4) data=0x00060863[0m
0x80000e80: 00 06 08 63 beqz	a2, 0x10
[1;34m[src/memory/paddr.c:97 mtrace_log] R: 0x80000e90 (len=4) data=0x00140413[0m
0x80000e90: 00 14 04 13 addi	s0, s0, 1
[1;34m[src/memory/paddr.c:97 mtrace_log] R: 0x80000e94 (len=4) data=0x00448493[0m
0x80000e94: 00 44 84 93 addi	s1, s1, 4
[1;34m[src/memory/paddr.c:97 mtrace_log] R: 0x80000e98 (len=4) data=0xff2412e3[0m
0x80000e98: ff 24 12 e3 bne	s0, s2, -0x1c
[1;34m[src/memory/paddr.c:97 mtrace_log] R: 0x80000e7c (len=4) data=0x0004a603[0m
[1;34m[src/memory/paddr.c:97 mtrace_log] R: 0x80002eec (len=4) data=0x00000000[0m
0x80000e7c: 00 04 a6 03 lw	a2, 0(s1)
[1;34m[src/memory/paddr.c:97 mtrace_log] R: 0x80000e80 (len=4) data=0x00060863[0m
0x80000e80: 00 06 08 63 beqz	a2, 0x10
[1;34m[src/memory/paddr.c:97 mtrace_log] R: 0x80000e90 (len=4) data=0x00140413[0m
0x80000e90: 00 14 04 13 addi	s0, s0, 1
[1;34m[src/memory/paddr.c:97 mtrace_log] R: 0x80000e94 (len=4) data=0x00448493[0m
0x80000e94: 00 44 84 93 addi	s1, s1, 4
[1;34m[src/memory/paddr.c:97 mtrace_log] R: 0x80000e98 (len=4) data=0xff2412e3[0m
0x80000e98: ff 24 12 e3 bne	s0, s2, -0x1c
[1;34m[src/memory/paddr.c:97 mtrace_log] R: 0x80000e7c (len=4) data=0x0004a603[0m
[1;34m[src/memory/paddr.c:97 mtrace_log] R: 0x80002ef0 (len=4) data=0x00000000[0m
0x80000e7c: 00 04 a6 03 lw	a2, 0(s1)
[1;34m[src/memory/paddr.c:97 mtrace_log] R: 0x80000e80 (len=4) data=0x00060863[0m
0x80000e80: 00 06 08 63 beqz	a2, 0x10
[1;34m[src/memory/paddr.c:97 mtrace_log] R: 0x80000e90 (len=4) data=0x00140413[0m
0x80000e90: 00 14 04 13 addi	s0, s0, 1
[1;34m[src/memory/paddr.c:97 mtrace_log] R: 0x80000e94 (len=4) data=0x00448493[0m
0x80000e94: 00 44 84 93 addi	s1, s1, 4
[1;34m[src/memory/paddr.c:97 mtrace_log] R: 0x80000e98 (len=4) data=0xff2412e3[0m
0x80000e98: ff 24 12 e3 bne	s0, s2, -0x1c
[1;34m[src/memory/paddr.c:97 mtrace_log] R: 0x80000e7c (len=4) data=0x0004a603[0m
[1;34m[src/memory/paddr.c:97 mtrace_log] R: 0x80002ef4 (len=4) data=0x00000000[0m
0x80000e7c: 00 04 a6 03 lw	a2, 0(s1)
[1;34m[src/memory/paddr.c:97 mtrace_log] R: 0x80000e80 (len=4) data=0x00060863[0m
0x80000e80: 00 06 08 63 beqz	a2, 0x10
[1;34m[src/memory/paddr.c:97 mtrace_log] R: 0x80000e90 (len=4) data=0x00140413[0m
0x80000e90: 00 14 04 13 addi	s0, s0, 1
[1;34m[src/memory/paddr.c:97 mtrace_log] R: 0x80000e94 (len=4) data=0x00448493[0m
0x80000e94: 00 44 84 93 addi	s1, s1, 4
[1;34m[src/memory/paddr.c:97 mtrace_log] R: 0x80000e98 (len=4) data=0xff2412e3[0m
0x80000e98: ff 24 12 e3 bne	s0, s2, -0x1c
[1;34m[src/memory/paddr.c:97 mtrace_log] R: 0x80000e7c (len=4) data=0x0004a603[0m
[1;34m[src/memory/paddr.c:97 mtrace_log] R: 0x80002ef8 (len=4) data=0x00000000[0m
0x80000e7c: 00 04 a6 03 lw	a2, 0(s1)
[1;34m[src/memory/paddr.c:97 mtrace_log] R: 0x80000e80 (len=4) data=0x00060863[0m
0x80000e80: 00 06 08 63 beqz	a2, 0x10
[1;34m[src/memory/paddr.c:97 mtrace_log] R: 0x80000e90 (len=4) data=0x00140413[0m
0x80000e90: 00 14 04 13 addi	s0, s0, 1
[1;34m[src/memory/paddr.c:97 mtrace_log] R: 0x80000e94 (len=4) data=0x00448493[0m
0x80000e94: 00 44 84 93 addi	s1, s1, 4
[1;34m[src/memory/paddr.c:97 mtrace_log] R: 0x80000e98 (len=4) data=0xff2412e3[0m
0x80000e98: ff 24 12 e3 bne	s0, s2, -0x1c
[1;34m[src/memory/paddr.c:97 mtrace_log] R: 0x80000e7c (len=4) data=0x0004a603[0m
[1;34m[src/memory/paddr.c:97 mtrace_log] R: 0x80002efc (len=4) data=0x00000000[0m
0x80000e7c: 00 04 a6 03 lw	a2, 0(s1)
[1;34m[src/memory/paddr.c:97 mtrace_log] R: 0x80000e80 (len=4) data=0x00060863[0m
0x80000e80: 00 06 08 63 beqz	a2, 0x10
[1;34m[src/memory/paddr.c:97 mtrace_log] R: 0x80000e90 (len=4) data=0x00140413[0m
0x80000e90: 00 14 04 13 addi	s0, s0, 1
[1;34m[src/memory/paddr.c:97 mtrace_log] R: 0x80000e94 (len=4) data=0x00448493[0m
0x80000e94: 00 44 84 93 addi	s1, s1, 4
[1;34m[src/memory/paddr.c:97 mtrace_log] R: 0x80000e98 (len=4) data=0xff2412e3[0m
0x80000e98: ff 24 12 e3 bne	s0, s2, -0x1c
[1;34m[src/memory/paddr.c:97 mtrace_log] R: 0x80000e7c (len=4) data=0x0004a603[0m
[1;34m[src/memory/paddr.c:97 mtrace_log] R: 0x80002f00 (len=4) data=0x00000000[0m
0x80000e7c: 00 04 a6 03 lw	a2, 0(s1)
[1;34m[src/memory/paddr.c:97 mtrace_log] R: 0x80000e80 (len=4) data=0x00060863[0m
0x80000e80: 00 06 08 63 beqz	a2, 0x10
[1;34m[src/memory/paddr.c:97 mtrace_log] R: 0x80000e90 (len=4) data=0x00140413[0m
0x80000e90: 00 14 04 13 addi	s0, s0, 1
[1;34m[src/memory/paddr.c:97 mtrace_log] R: 0x80000e94 (len=4) data=0x00448493[0m
0x80000e94: 00 44 84 93 addi	s1, s1, 4
[1;34m[src/memory/paddr.c:97 mtrace_log] R: 0x80000e98 (len=4) data=0xff2412e3[0m
0x80000e98: ff 24 12 e3 bne	s0, s2, -0x1c
[1;34m[src/memory/paddr.c:97 mtrace_log] R: 0x80000e7c (len=4) data=0x0004a603[0m
[1;34m[src/memory/paddr.c:97 mtrace_log] R: 0x80002f04 (len=4) data=0x00000000[0m
0x80000e7c: 00 04 a6 03 lw	a2, 0(s1)
[1;34m[src/memory/paddr.c:97 mtrace_log] R: 0x80000e80 (len=4) data=0x00060863[0m
0x80000e80: 00 06 08 63 beqz	a2, 0x10
[1;34m[src/memory/paddr.c:97 mtrace_log] R: 0x80000e90 (len=4) data=0x00140413[0m
0x80000e90: 00 14 04 13 addi	s0, s0, 1
[1;34m[src/memory/paddr.c:97 mtrace_log] R: 0x80000e94 (len=4) data=0x00448493[0m
0x80000e94: 00 44 84 93 addi	s1, s1, 4
[1;34m[src/memory/paddr.c:97 mtrace_log] R: 0x80000e98 (len=4) data=0xff2412e3[0m
0x80000e98: ff 24 12 e3 bne	s0, s2, -0x1c
[1;34m[src/memory/paddr.c:97 mtrace_log] R: 0x80000e7c (len=4) data=0x0004a603[0m
[1;34m[src/memory/paddr.c:97 mtrace_log] R: 0x80002f08 (len=4) data=0x00000000[0m
0x80000e7c: 00 04 a6 03 lw	a2, 0(s1)
[1;34m[src/memory/paddr.c:97 mtrace_log] R: 0x80000e80 (len=4) data=0x00060863[0m
0x80000e80: 00 06 08 63 beqz	a2, 0x10
[1;34m[src/memory/paddr.c:97 mtrace_log] R: 0x80000e90 (len=4) data=0x00140413[0m
0x80000e90: 00 14 04 13 addi	s0, s0, 1
[1;34m[src/memory/paddr.c:97 mtrace_log] R: 0x80000e94 (len=4) data=0x00448493[0m
0x80000e94: 00 44 84 93 addi	s1, s1, 4
[1;34m[src/memory/paddr.c:97 mtrace_log] R: 0x80000e98 (len=4) data=0xff2412e3[0m
0x80000e98: ff 24 12 e3 bne	s0, s2, -0x1c
[1;34m[src/memory/paddr.c:97 mtrace_log] R: 0x80000e7c (len=4) data=0x0004a603[0m
[1;34m[src/memory/paddr.c:97 mtrace_log] R: 0x80002f0c (len=4) data=0x00000000[0m
0x80000e7c: 00 04 a6 03 lw	a2, 0(s1)
[1;34m[src/memory/paddr.c:97 mtrace_log] R: 0x80000e80 (len=4) data=0x00060863[0m
0x80000e80: 00 06 08 63 beqz	a2, 0x10
[1;34m[src/memory/paddr.c:97 mtrace_log] R: 0x80000e90 (len=4) data=0x00140413[0m
0x80000e90: 00 14 04 13 addi	s0, s0, 1
[1;34m[src/memory/paddr.c:97 mtrace_log] R: 0x80000e94 (len=4) data=0x00448493[0m
0x80000e94: 00 44 84 93 addi	s1, s1, 4
[1;34m[src/memory/paddr.c:97 mtrace_log] R: 0x80000e98 (len=4) data=0xff2412e3[0m
0x80000e98: ff 24 12 e3 bne	s0, s2, -0x1c
[1;34m[src/memory/paddr.c:97 mtrace_log] R: 0x80000e7c (len=4) data=0x0004a603[0m
[1;34m[src/memory/paddr.c:97 mtrace_log] R: 0x80002f10 (len=4) data=0x00000000[0m
0x80000e7c: 00 04 a6 03 lw	a2, 0(s1)
[1;34m[src/memory/paddr.c:97 mtrace_log] R: 0x80000e80 (len=4) data=0x00060863[0m
0x80000e80: 00 06 08 63 beqz	a2, 0x10
[1;34m[src/memory/paddr.c:97 mtrace_log] R: 0x80000e90 (len=4) data=0x00140413[0m
0x80000e90: 00 14 04 13 addi	s0, s0, 1
[1;34m[src/memory/paddr.c:97 mtrace_log] R: 0x80000e94 (len=4) data=0x00448493[0m
0x80000e94: 00 44 84 93 addi	s1, s1, 4
[1;34m[src/memory/paddr.c:97 mtrace_log] R: 0x80000e98 (len=4) data=0xff2412e3[0m
0x80000e98: ff 24 12 e3 bne	s0, s2, -0x1c
[1;34m[src/memory/paddr.c:97 mtrace_log] R: 0x80000e7c (len=4) data=0x0004a603[0m
[1;34m[src/memory/paddr.c:97 mtrace_log] R: 0x80002f14 (len=4) data=0x00000000[0m
0x80000e7c: 00 04 a6 03 lw	a2, 0(s1)
[1;34m[src/memory/paddr.c:97 mtrace_log] R: 0x80000e80 (len=4) data=0x00060863[0m
0x80000e80: 00 06 08 63 beqz	a2, 0x10
[1;34m[src/memory/paddr.c:97 mtrace_log] R: 0x80000e90 (len=4) data=0x00140413[0m
0x80000e90: 00 14 04 13 addi	s0, s0, 1
[1;34m[src/memory/paddr.c:97 mtrace_log] R: 0x80000e94 (len=4) data=0x00448493[0m
0x80000e94: 00 44 84 93 addi	s1, s1, 4
[1;34m[src/memory/paddr.c:97 mtrace_log] R: 0x80000e98 (len=4) data=0xff2412e3[0m
0x80000e98: ff 24 12 e3 bne	s0, s2, -0x1c
[1;34m[src/memory/paddr.c:97 mtrace_log] R: 0x80000e7c (len=4) data=0x0004a603[0m
[1;34m[src/memory/paddr.c:97 mtrace_log] R: 0x80002f18 (len=4) data=0x00000000[0m
0x80000e7c: 00 04 a6 03 lw	a2, 0(s1)
[1;34m[src/memory/paddr.c:97 mtrace_log] R: 0x80000e80 (len=4) data=0x00060863[0m
0x80000e80: 00 06 08 63 beqz	a2, 0x10
[1;34m[src/memory/paddr.c:97 mtrace_log] R: 0x80000e90 (len=4) data=0x00140413[0m
0x80000e90: 00 14 04 13 addi	s0, s0, 1
[1;34m[src/memory/paddr.c:97 mtrace_log] R: 0x80000e94 (len=4) data=0x00448493[0m
0x80000e94: 00 44 84 93 addi	s1, s1, 4
[1;34m[src/memory/paddr.c:97 mtrace_log] R: 0x80000e98 (len=4) data=0xff2412e3[0m
0x80000e98: ff 24 12 e3 bne	s0, s2, -0x1c
[1;34m[src/memory/paddr.c:97 mtrace_log] R: 0x80000e7c (len=4) data=0x0004a603[0m
[1;34m[src/memory/paddr.c:97 mtrace_log] R: 0x80002f1c (len=4) data=0x00000000[0m
0x80000e7c: 00 04 a6 03 lw	a2, 0(s1)
[1;34m[src/memory/paddr.c:97 mtrace_log] R: 0x80000e80 (len=4) data=0x00060863[0m
0x80000e80: 00 06 08 63 beqz	a2, 0x10
[1;34m[src/memory/paddr.c:97 mtrace_log] R: 0x80000e90 (len=4) data=0x00140413[0m
0x80000e90: 00 14 04 13 addi	s0, s0, 1
[1;34m[src/memory/paddr.c:97 mtrace_log] R: 0x80000e94 (len=4) data=0x00448493[0m
0x80000e94: 00 44 84 93 addi	s1, s1, 4
[1;34m[src/memory/paddr.c:97 mtrace_log] R: 0x80000e98 (len=4) data=0xff2412e3[0m
0x80000e98: ff 24 12 e3 bne	s0, s2, -0x1c
[1;34m[src/memory/paddr.c:97 mtrace_log] R: 0x80000e7c (len=4) data=0x0004a603[0m
[1;34m[src/memory/paddr.c:97 mtrace_log] R: 0x80002f20 (len=4) data=0x00000000[0m
0x80000e7c: 00 04 a6 03 lw	a2, 0(s1)
[1;34m[src/memory/paddr.c:97 mtrace_log] R: 0x80000e80 (len=4) data=0x00060863[0m
0x80000e80: 00 06 08 63 beqz	a2, 0x10
[1;34m[src/memory/paddr.c:97 mtrace_log] R: 0x80000e90 (len=4) data=0x00140413[0m
0x80000e90: 00 14 04 13 addi	s0, s0, 1
[1;34m[src/memory/paddr.c:97 mtrace_log] R: 0x80000e94 (len=4) data=0x00448493[0m
0x80000e94: 00 44 84 93 addi	s1, s1, 4
[1;34m[src/memory/paddr.c:97 mtrace_log] R: 0x80000e98 (len=4) data=0xff2412e3[0m
0x80000e98: ff 24 12 e3 bne	s0, s2, -0x1c
[1;34m[src/memory/paddr.c:97 mtrace_log] R: 0x80000e7c (len=4) data=0x0004a603[0m
[1;34m[src/memory/paddr.c:97 mtrace_log] R: 0x80002f24 (len=4) data=0x00000000[0m
0x80000e7c: 00 04 a6 03 lw	a2, 0(s1)
[1;34m[src/memory/paddr.c:97 mtrace_log] R: 0x80000e80 (len=4) data=0x00060863[0m
0x80000e80: 00 06 08 63 beqz	a2, 0x10
[1;34m[src/memory/paddr.c:97 mtrace_log] R: 0x80000e90 (len=4) data=0x00140413[0m
0x80000e90: 00 14 04 13 addi	s0, s0, 1
[1;34m[src/memory/paddr.c:97 mtrace_log] R: 0x80000e94 (len=4) data=0x00448493[0m
0x80000e94: 00 44 84 93 addi	s1, s1, 4
[1;34m[src/memory/paddr.c:97 mtrace_log] R: 0x80000e98 (len=4) data=0xff2412e3[0m
0x80000e98: ff 24 12 e3 bne	s0, s2, -0x1c
[1;34m[src/memory/paddr.c:97 mtrace_log] R: 0x80000e7c (len=4) data=0x0004a603[0m
[1;34m[src/memory/paddr.c:97 mtrace_log] R: 0x80002f28 (len=4) data=0x00000000[0m
0x80000e7c: 00 04 a6 03 lw	a2, 0(s1)
[1;34m[src/memory/paddr.c:97 mtrace_log] R: 0x80000e80 (len=4) data=0x00060863[0m
0x80000e80: 00 06 08 63 beqz	a2, 0x10
[1;34m[src/memory/paddr.c:97 mtrace_log] R: 0x80000e90 (len=4) data=0x00140413[0m
0x80000e90: 00 14 04 13 addi	s0, s0, 1
[1;34m[src/memory/paddr.c:97 mtrace_log] R: 0x80000e94 (len=4) data=0x00448493[0m
0x80000e94: 00 44 84 93 addi	s1, s1, 4
[1;34m[src/memory/paddr.c:97 mtrace_log] R: 0x80000e98 (len=4) data=0xff2412e3[0m
0x80000e98: ff 24 12 e3 bne	s0, s2, -0x1c
[1;34m[src/memory/paddr.c:97 mtrace_log] R: 0x80000e7c (len=4) data=0x0004a603[0m
[1;34m[src/memory/paddr.c:97 mtrace_log] R: 0x80002f2c (len=4) data=0x00000000[0m
0x80000e7c: 00 04 a6 03 lw	a2, 0(s1)
[1;34m[src/memory/paddr.c:97 mtrace_log] R: 0x80000e80 (len=4) data=0x00060863[0m
0x80000e80: 00 06 08 63 beqz	a2, 0x10
[1;34m[src/memory/paddr.c:97 mtrace_log] R: 0x80000e90 (len=4) data=0x00140413[0m
0x80000e90: 00 14 04 13 addi	s0, s0, 1
[1;34m[src/memory/paddr.c:97 mtrace_log] R: 0x80000e94 (len=4) data=0x00448493[0m
0x80000e94: 00 44 84 93 addi	s1, s1, 4
[1;34m[src/memory/paddr.c:97 mtrace_log] R: 0x80000e98 (len=4) data=0xff2412e3[0m
0x80000e98: ff 24 12 e3 bne	s0, s2, -0x1c
[1;34m[src/memory/paddr.c:97 mtrace_log] R: 0x80000e7c (len=4) data=0x0004a603[0m
[1;34m[src/memory/paddr.c:97 mtrace_log] R: 0x80002f30 (len=4) data=0x00000000[0m
0x80000e7c: 00 04 a6 03 lw	a2, 0(s1)
[1;34m[src/memory/paddr.c:97 mtrace_log] R: 0x80000e80 (len=4) data=0x00060863[0m
0x80000e80: 00 06 08 63 beqz	a2, 0x10
[1;34m[src/memory/paddr.c:97 mtrace_log] R: 0x80000e90 (len=4) data=0x00140413[0m
0x80000e90: 00 14 04 13 addi	s0, s0, 1
[1;34m[src/memory/paddr.c:97 mtrace_log] R: 0x80000e94 (len=4) data=0x00448493[0m
0x80000e94: 00 44 84 93 addi	s1, s1, 4
[1;34m[src/memory/paddr.c:97 mtrace_log] R: 0x80000e98 (len=4) data=0xff2412e3[0m
0x80000e98: ff 24 12 e3 bne	s0, s2, -0x1c
[1;34m[src/memory/paddr.c:97 mtrace_log] R: 0x80000e7c (len=4) data=0x0004a603[0m
[1;34m[src/memory/paddr.c:97 mtrace_log] R: 0x80002f34 (len=4) data=0x00000000[0m
0x80000e7c: 00 04 a6 03 lw	a2, 0(s1)
[1;34m[src/memory/paddr.c:97 mtrace_log] R: 0x80000e80 (len=4) data=0x00060863[0m
0x80000e80: 00 06 08 63 beqz	a2, 0x10
[1;34m[src/memory/paddr.c:97 mtrace_log] R: 0x80000e90 (len=4) data=0x00140413[0m
0x80000e90: 00 14 04 13 addi	s0, s0, 1
[1;34m[src/memory/paddr.c:97 mtrace_log] R: 0x80000e94 (len=4) data=0x00448493[0m
0x80000e94: 00 44 84 93 addi	s1, s1, 4
[1;34m[src/memory/paddr.c:97 mtrace_log] R: 0x80000e98 (len=4) data=0xff2412e3[0m
0x80000e98: ff 24 12 e3 bne	s0, s2, -0x1c
[1;34m[src/memory/paddr.c:97 mtrace_log] R: 0x80000e7c (len=4) data=0x0004a603[0m
[1;34m[src/memory/paddr.c:97 mtrace_log] R: 0x80002f38 (len=4) data=0x00000000[0m
0x80000e7c: 00 04 a6 03 lw	a2, 0(s1)
[1;34m[src/memory/paddr.c:97 mtrace_log] R: 0x80000e80 (len=4) data=0x00060863[0m
0x80000e80: 00 06 08 63 beqz	a2, 0x10
[1;34m[src/memory/paddr.c:97 mtrace_log] R: 0x80000e90 (len=4) data=0x00140413[0m
0x80000e90: 00 14 04 13 addi	s0, s0, 1
[1;34m[src/memory/paddr.c:97 mtrace_log] R: 0x80000e94 (len=4) data=0x00448493[0m
0x80000e94: 00 44 84 93 addi	s1, s1, 4
[1;34m[src/memory/paddr.c:97 mtrace_log] R: 0x80000e98 (len=4) data=0xff2412e3[0m
0x80000e98: ff 24 12 e3 bne	s0, s2, -0x1c
[1;34m[src/memory/paddr.c:97 mtrace_log] R: 0x80000e7c (len=4) data=0x0004a603[0m
[1;34m[src/memory/paddr.c:97 mtrace_log] R: 0x80002f3c (len=4) data=0x00000000[0m
0x80000e7c: 00 04 a6 03 lw	a2, 0(s1)
[1;34m[src/memory/paddr.c:97 mtrace_log] R: 0x80000e80 (len=4) data=0x00060863[0m
0x80000e80: 00 06 08 63 beqz	a2, 0x10
[1;34m[src/memory/paddr.c:97 mtrace_log] R: 0x80000e90 (len=4) data=0x00140413[0m
0x80000e90: 00 14 04 13 addi	s0, s0, 1
[1;34m[src/memory/paddr.c:97 mtrace_log] R: 0x80000e94 (len=4) data=0x00448493[0m
0x80000e94: 00 44 84 93 addi	s1, s1, 4
[1;34m[src/memory/paddr.c:97 mtrace_log] R: 0x80000e98 (len=4) data=0xff2412e3[0m
0x80000e98: ff 24 12 e3 bne	s0, s2, -0x1c
[1;34m[src/memory/paddr.c:97 mtrace_log] R: 0x80000e7c (len=4) data=0x0004a603[0m
[1;34m[src/memory/paddr.c:97 mtrace_log] R: 0x80002f40 (len=4) data=0x00000000[0m
0x80000e7c: 00 04 a6 03 lw	a2, 0(s1)
[1;34m[src/memory/paddr.c:97 mtrace_log] R: 0x80000e80 (len=4) data=0x00060863[0m
0x80000e80: 00 06 08 63 beqz	a2, 0x10
[1;34m[src/memory/paddr.c:97 mtrace_log] R: 0x80000e90 (len=4) data=0x00140413[0m
0x80000e90: 00 14 04 13 addi	s0, s0, 1
[1;34m[src/memory/paddr.c:97 mtrace_log] R: 0x80000e94 (len=4) data=0x00448493[0m
0x80000e94: 00 44 84 93 addi	s1, s1, 4
[1;34m[src/memory/paddr.c:97 mtrace_log] R: 0x80000e98 (len=4) data=0xff2412e3[0m
0x80000e98: ff 24 12 e3 bne	s0, s2, -0x1c
[1;34m[src/memory/paddr.c:97 mtrace_log] R: 0x80000e7c (len=4) data=0x0004a603[0m
[1;34m[src/memory/paddr.c:97 mtrace_log] R: 0x80002f44 (len=4) data=0x00000000[0m
0x80000e7c: 00 04 a6 03 lw	a2, 0(s1)
[1;34m[src/memory/paddr.c:97 mtrace_log] R: 0x80000e80 (len=4) data=0x00060863[0m
0x80000e80: 00 06 08 63 beqz	a2, 0x10
[1;34m[src/memory/paddr.c:97 mtrace_log] R: 0x80000e90 (len=4) data=0x00140413[0m
0x80000e90: 00 14 04 13 addi	s0, s0, 1
[1;34m[src/memory/paddr.c:97 mtrace_log] R: 0x80000e94 (len=4) data=0x00448493[0m
0x80000e94: 00 44 84 93 addi	s1, s1, 4
[1;34m[src/memory/paddr.c:97 mtrace_log] R: 0x80000e98 (len=4) data=0xff2412e3[0m
0x80000e98: ff 24 12 e3 bne	s0, s2, -0x1c
[1;34m[src/memory/paddr.c:97 mtrace_log] R: 0x80000e7c (len=4) data=0x0004a603[0m
[1;34m[src/memory/paddr.c:97 mtrace_log] R: 0x80002f48 (len=4) data=0x00000000[0m
0x80000e7c: 00 04 a6 03 lw	a2, 0(s1)
[1;34m[src/memory/paddr.c:97 mtrace_log] R: 0x80000e80 (len=4) data=0x00060863[0m
0x80000e80: 00 06 08 63 beqz	a2, 0x10
[1;34m[src/memory/paddr.c:97 mtrace_log] R: 0x80000e90 (len=4) data=0x00140413[0m
0x80000e90: 00 14 04 13 addi	s0, s0, 1
[1;34m[src/memory/paddr.c:97 mtrace_log] R: 0x80000e94 (len=4) data=0x00448493[0m
0x80000e94: 00 44 84 93 addi	s1, s1, 4
[1;34m[src/memory/paddr.c:97 mtrace_log] R: 0x80000e98 (len=4) data=0xff2412e3[0m
0x80000e98: ff 24 12 e3 bne	s0, s2, -0x1c
[1;34m[src/memory/paddr.c:97 mtrace_log] R: 0x80000e7c (len=4) data=0x0004a603[0m
[1;34m[src/memory/paddr.c:97 mtrace_log] R: 0x80002f4c (len=4) data=0x00000000[0m
0x80000e7c: 00 04 a6 03 lw	a2, 0(s1)
[1;34m[src/memory/paddr.c:97 mtrace_log] R: 0x80000e80 (len=4) data=0x00060863[0m
0x80000e80: 00 06 08 63 beqz	a2, 0x10
[1;34m[src/memory/paddr.c:97 mtrace_log] R: 0x80000e90 (len=4) data=0x00140413[0m
0x80000e90: 00 14 04 13 addi	s0, s0, 1
[1;34m[src/memory/paddr.c:97 mtrace_log] R: 0x80000e94 (len=4) data=0x00448493[0m
0x80000e94: 00 44 84 93 addi	s1, s1, 4
[1;34m[src/memory/paddr.c:97 mtrace_log] R: 0x80000e98 (len=4) data=0xff2412e3[0m
0x80000e98: ff 24 12 e3 bne	s0, s2, -0x1c
[1;34m[src/memory/paddr.c:97 mtrace_log] R: 0x80000e7c (len=4) data=0x0004a603[0m
[1;34m[src/memory/paddr.c:97 mtrace_log] R: 0x80002f50 (len=4) data=0x00000000[0m
0x80000e7c: 00 04 a6 03 lw	a2, 0(s1)
[1;34m[src/memory/paddr.c:97 mtrace_log] R: 0x80000e80 (len=4) data=0x00060863[0m
0x80000e80: 00 06 08 63 beqz	a2, 0x10
[1;34m[src/memory/paddr.c:97 mtrace_log] R: 0x80000e90 (len=4) data=0x00140413[0m
0x80000e90: 00 14 04 13 addi	s0, s0, 1
[1;34m[src/memory/paddr.c:97 mtrace_log] R: 0x80000e94 (len=4) data=0x00448493[0m
0x80000e94: 00 44 84 93 addi	s1, s1, 4
[1;34m[src/memory/paddr.c:97 mtrace_log] R: 0x80000e98 (len=4) data=0xff2412e3[0m
0x80000e98: ff 24 12 e3 bne	s0, s2, -0x1c
[1;34m[src/memory/paddr.c:97 mtrace_log] R: 0x80000e7c (len=4) data=0x0004a603[0m
[1;34m[src/memory/paddr.c:97 mtrace_log] R: 0x80002f54 (len=4) data=0x00000000[0m
0x80000e7c: 00 04 a6 03 lw	a2, 0(s1)
[1;34m[src/memory/paddr.c:97 mtrace_log] R: 0x80000e80 (len=4) data=0x00060863[0m
0x80000e80: 00 06 08 63 beqz	a2, 0x10
[1;34m[src/memory/paddr.c:97 mtrace_log] R: 0x80000e90 (len=4) data=0x00140413[0m
0x80000e90: 00 14 04 13 addi	s0, s0, 1
[1;34m[src/memory/paddr.c:97 mtrace_log] R: 0x80000e94 (len=4) data=0x00448493[0m
0x80000e94: 00 44 84 93 addi	s1, s1, 4
[1;34m[src/memory/paddr.c:97 mtrace_log] R: 0x80000e98 (len=4) data=0xff2412e3[0m
0x80000e98: ff 24 12 e3 bne	s0, s2, -0x1c
[1;34m[src/memory/paddr.c:97 mtrace_log] R: 0x80000e7c (len=4) data=0x0004a603[0m
[1;34m[src/memory/paddr.c:97 mtrace_log] R: 0x80002f58 (len=4) data=0x00000000[0m
0x80000e7c: 00 04 a6 03 lw	a2, 0(s1)
[1;34m[src/memory/paddr.c:97 mtrace_log] R: 0x80000e80 (len=4) data=0x00060863[0m
0x80000e80: 00 06 08 63 beqz	a2, 0x10
[1;34m[src/memory/paddr.c:97 mtrace_log] R: 0x80000e90 (len=4) data=0x00140413[0m
0x80000e90: 00 14 04 13 addi	s0, s0, 1
[1;34m[src/memory/paddr.c:97 mtrace_log] R: 0x80000e94 (len=4) data=0x00448493[0m
0x80000e94: 00 44 84 93 addi	s1, s1, 4
[1;34m[src/memory/paddr.c:97 mtrace_log] R: 0x80000e98 (len=4) data=0xff2412e3[0m
0x80000e98: ff 24 12 e3 bne	s0, s2, -0x1c
[1;34m[src/memory/paddr.c:97 mtrace_log] R: 0x80000e7c (len=4) data=0x0004a603[0m
[1;34m[src/memory/paddr.c:97 mtrace_log] R: 0x80002f5c (len=4) data=0x00000000[0m
0x80000e7c: 00 04 a6 03 lw	a2, 0(s1)
[1;34m[src/memory/paddr.c:97 mtrace_log] R: 0x80000e80 (len=4) data=0x00060863[0m
0x80000e80: 00 06 08 63 beqz	a2, 0x10
[1;34m[src/memory/paddr.c:97 mtrace_log] R: 0x80000e90 (len=4) data=0x00140413[0m
0x80000e90: 00 14 04 13 addi	s0, s0, 1
[1;34m[src/memory/paddr.c:97 mtrace_log] R: 0x80000e94 (len=4) data=0x00448493[0m
0x80000e94: 00 44 84 93 addi	s1, s1, 4
[1;34m[src/memory/paddr.c:97 mtrace_log] R: 0x80000e98 (len=4) data=0xff2412e3[0m
0x80000e98: ff 24 12 e3 bne	s0, s2, -0x1c
[1;34m[src/memory/paddr.c:97 mtrace_log] R: 0x80000e7c (len=4) data=0x0004a603[0m
[1;34m[src/memory/paddr.c:97 mtrace_log] R: 0x80002f60 (len=4) data=0x00000000[0m
0x80000e7c: 00 04 a6 03 lw	a2, 0(s1)
[1;34m[src/memory/paddr.c:97 mtrace_log] R: 0x80000e80 (len=4) data=0x00060863[0m
0x80000e80: 00 06 08 63 beqz	a2, 0x10
[1;34m[src/memory/paddr.c:97 mtrace_log] R: 0x80000e90 (len=4) data=0x00140413[0m
0x80000e90: 00 14 04 13 addi	s0, s0, 1
[1;34m[src/memory/paddr.c:97 mtrace_log] R: 0x80000e94 (len=4) data=0x00448493[0m
0x80000e94: 00 44 84 93 addi	s1, s1, 4
[1;34m[src/memory/paddr.c:97 mtrace_log] R: 0x80000e98 (len=4) data=0xff2412e3[0m
0x80000e98: ff 24 12 e3 bne	s0, s2, -0x1c
[1;34m[src/memory/paddr.c:97 mtrace_log] R: 0x80000e7c (len=4) data=0x0004a603[0m
[1;34m[src/memory/paddr.c:97 mtrace_log] R: 0x80002f64 (len=4) data=0x00000000[0m
0x80000e7c: 00 04 a6 03 lw	a2, 0(s1)
[1;34m[src/memory/paddr.c:97 mtrace_log] R: 0x80000e80 (len=4) data=0x00060863[0m
0x80000e80: 00 06 08 63 beqz	a2, 0x10
[1;34m[src/memory/paddr.c:97 mtrace_log] R: 0x80000e90 (len=4) data=0x00140413[0m
0x80000e90: 00 14 04 13 addi	s0, s0, 1
[1;34m[src/memory/paddr.c:97 mtrace_log] R: 0x80000e94 (len=4) data=0x00448493[0m
0x80000e94: 00 44 84 93 addi	s1, s1, 4
[1;34m[src/memory/paddr.c:97 mtrace_log] R: 0x80000e98 (len=4) data=0xff2412e3[0m
0x80000e98: ff 24 12 e3 bne	s0, s2, -0x1c
[1;34m[src/memory/paddr.c:97 mtrace_log] R: 0x80000e7c (len=4) data=0x0004a603[0m
[1;34m[src/memory/paddr.c:97 mtrace_log] R: 0x80002f68 (len=4) data=0x00000000[0m
0x80000e7c: 00 04 a6 03 lw	a2, 0(s1)
[1;34m[src/memory/paddr.c:97 mtrace_log] R: 0x80000e80 (len=4) data=0x00060863[0m
0x80000e80: 00 06 08 63 beqz	a2, 0x10
[1;34m[src/memory/paddr.c:97 mtrace_log] R: 0x80000e90 (len=4) data=0x00140413[0m
0x80000e90: 00 14 04 13 addi	s0, s0, 1
[1;34m[src/memory/paddr.c:97 mtrace_log] R: 0x80000e94 (len=4) data=0x00448493[0m
0x80000e94: 00 44 84 93 addi	s1, s1, 4
[1;34m[src/memory/paddr.c:97 mtrace_log] R: 0x80000e98 (len=4) data=0xff2412e3[0m
0x80000e98: ff 24 12 e3 bne	s0, s2, -0x1c
[1;34m[src/memory/paddr.c:97 mtrace_log] R: 0x80000e7c (len=4) data=0x0004a603[0m
[1;34m[src/memory/paddr.c:97 mtrace_log] R: 0x80002f6c (len=4) data=0x00000000[0m
0x80000e7c: 00 04 a6 03 lw	a2, 0(s1)
[1;34m[src/memory/paddr.c:97 mtrace_log] R: 0x80000e80 (len=4) data=0x00060863[0m
0x80000e80: 00 06 08 63 beqz	a2, 0x10
[1;34m[src/memory/paddr.c:97 mtrace_log] R: 0x80000e90 (len=4) data=0x00140413[0m
0x80000e90: 00 14 04 13 addi	s0, s0, 1
[1;34m[src/memory/paddr.c:97 mtrace_log] R: 0x80000e94 (len=4) data=0x00448493[0m
0x80000e94: 00 44 84 93 addi	s1, s1, 4
[1;34m[src/memory/paddr.c:97 mtrace_log] R: 0x80000e98 (len=4) data=0xff2412e3[0m
0x80000e98: ff 24 12 e3 bne	s0, s2, -0x1c
[1;34m[src/memory/paddr.c:97 mtrace_log] R: 0x80000e7c (len=4) data=0x0004a603[0m
[1;34m[src/memory/paddr.c:97 mtrace_log] R: 0x80002f70 (len=4) data=0x00000000[0m
0x80000e7c: 00 04 a6 03 lw	a2, 0(s1)
[1;34m[src/memory/paddr.c:97 mtrace_log] R: 0x80000e80 (len=4) data=0x00060863[0m
0x80000e80: 00 06 08 63 beqz	a2, 0x10
[1;34m[src/memory/paddr.c:97 mtrace_log] R: 0x80000e90 (len=4) data=0x00140413[0m
0x80000e90: 00 14 04 13 addi	s0, s0, 1
[1;34m[src/memory/paddr.c:97 mtrace_log] R: 0x80000e94 (len=4) data=0x00448493[0m
0x80000e94: 00 44 84 93 addi	s1, s1, 4
[1;34m[src/memory/paddr.c:97 mtrace_log] R: 0x80000e98 (len=4) data=0xff2412e3[0m
0x80000e98: ff 24 12 e3 bne	s0, s2, -0x1c
[1;34m[src/memory/paddr.c:97 mtrace_log] R: 0x80000e7c (len=4) data=0x0004a603[0m
[1;34m[src/memory/paddr.c:97 mtrace_log] R: 0x80002f74 (len=4) data=0x00000000[0m
0x80000e7c: 00 04 a6 03 lw	a2, 0(s1)
[1;34m[src/memory/paddr.c:97 mtrace_log] R: 0x80000e80 (len=4) data=0x00060863[0m
0x80000e80: 00 06 08 63 beqz	a2, 0x10
[1;34m[src/memory/paddr.c:97 mtrace_log] R: 0x80000e90 (len=4) data=0x00140413[0m
0x80000e90: 00 14 04 13 addi	s0, s0, 1
[1;34m[src/memory/paddr.c:97 mtrace_log] R: 0x80000e94 (len=4) data=0x00448493[0m
0x80000e94: 00 44 84 93 addi	s1, s1, 4
[1;34m[src/memory/paddr.c:97 mtrace_log] R: 0x80000e98 (len=4) data=0xff2412e3[0m
0x80000e98: ff 24 12 e3 bne	s0, s2, -0x1c
[1;34m[src/memory/paddr.c:97 mtrace_log] R: 0x80000e7c (len=4) data=0x0004a603[0m
[1;34m[src/memory/paddr.c:97 mtrace_log] R: 0x80002f78 (len=4) data=0x00000000[0m
0x80000e7c: 00 04 a6 03 lw	a2, 0(s1)
[1;34m[src/memory/paddr.c:97 mtrace_log] R: 0x80000e80 (len=4) data=0x00060863[0m
0x80000e80: 00 06 08 63 beqz	a2, 0x10
[1;34m[src/memory/paddr.c:97 mtrace_log] R: 0x80000e90 (len=4) data=0x00140413[0m
0x80000e90: 00 14 04 13 addi	s0, s0, 1
[1;34m[src/memory/paddr.c:97 mtrace_log] R: 0x80000e94 (len=4) data=0x00448493[0m
0x80000e94: 00 44 84 93 addi	s1, s1, 4
[1;34m[src/memory/paddr.c:97 mtrace_log] R: 0x80000e98 (len=4) data=0xff2412e3[0m
0x80000e98: ff 24 12 e3 bne	s0, s2, -0x1c
[1;34m[src/memory/paddr.c:97 mtrace_log] R: 0x80000e7c (len=4) data=0x0004a603[0m
[1;34m[src/memory/paddr.c:97 mtrace_log] R: 0x80002f7c (len=4) data=0x00000000[0m
0x80000e7c: 00 04 a6 03 lw	a2, 0(s1)
[1;34m[src/memory/paddr.c:97 mtrace_log] R: 0x80000e80 (len=4) data=0x00060863[0m
0x80000e80: 00 06 08 63 beqz	a2, 0x10
[1;34m[src/memory/paddr.c:97 mtrace_log] R: 0x80000e90 (len=4) data=0x00140413[0m
0x80000e90: 00 14 04 13 addi	s0, s0, 1
[1;34m[src/memory/paddr.c:97 mtrace_log] R: 0x80000e94 (len=4) data=0x00448493[0m
0x80000e94: 00 44 84 93 addi	s1, s1, 4
[1;34m[src/memory/paddr.c:97 mtrace_log] R: 0x80000e98 (len=4) data=0xff2412e3[0m
0x80000e98: ff 24 12 e3 bne	s0, s2, -0x1c
[1;34m[src/memory/paddr.c:97 mtrace_log] R: 0x80000e7c (len=4) data=0x0004a603[0m
[1;34m[src/memory/paddr.c:97 mtrace_log] R: 0x80002f80 (len=4) data=0x00000000[0m
0x80000e7c: 00 04 a6 03 lw	a2, 0(s1)
[1;34m[src/memory/paddr.c:97 mtrace_log] R: 0x80000e80 (len=4) data=0x00060863[0m
0x80000e80: 00 06 08 63 beqz	a2, 0x10
[1;34m[src/memory/paddr.c:97 mtrace_log] R: 0x80000e90 (len=4) data=0x00140413[0m
0x80000e90: 00 14 04 13 addi	s0, s0, 1
[1;34m[src/memory/paddr.c:97 mtrace_log] R: 0x80000e94 (len=4) data=0x00448493[0m
0x80000e94: 00 44 84 93 addi	s1, s1, 4
[1;34m[src/memory/paddr.c:97 mtrace_log] R: 0x80000e98 (len=4) data=0xff2412e3[0m
0x80000e98: ff 24 12 e3 bne	s0, s2, -0x1c
[1;34m[src/memory/paddr.c:97 mtrace_log] R: 0x80000e7c (len=4) data=0x0004a603[0m
[1;34m[src/memory/paddr.c:97 mtrace_log] R: 0x80002f84 (len=4) data=0x00000000[0m
0x80000e7c: 00 04 a6 03 lw	a2, 0(s1)
[1;34m[src/memory/paddr.c:97 mtrace_log] R: 0x80000e80 (len=4) data=0x00060863[0m
0x80000e80: 00 06 08 63 beqz	a2, 0x10
[1;34m[src/memory/paddr.c:97 mtrace_log] R: 0x80000e90 (len=4) data=0x00140413[0m
0x80000e90: 00 14 04 13 addi	s0, s0, 1
[1;34m[src/memory/paddr.c:97 mtrace_log] R: 0x80000e94 (len=4) data=0x00448493[0m
0x80000e94: 00 44 84 93 addi	s1, s1, 4
[1;34m[src/memory/paddr.c:97 mtrace_log] R: 0x80000e98 (len=4) data=0xff2412e3[0m
0x80000e98: ff 24 12 e3 bne	s0, s2, -0x1c
[1;34m[src/memory/paddr.c:97 mtrace_log] R: 0x80000e7c (len=4) data=0x0004a603[0m
[1;34m[src/memory/paddr.c:97 mtrace_log] R: 0x80002f88 (len=4) data=0x00000000[0m
0x80000e7c: 00 04 a6 03 lw	a2, 0(s1)
[1;34m[src/memory/paddr.c:97 mtrace_log] R: 0x80000e80 (len=4) data=0x00060863[0m
0x80000e80: 00 06 08 63 beqz	a2, 0x10
[1;34m[src/memory/paddr.c:97 mtrace_log] R: 0x80000e90 (len=4) data=0x00140413[0m
0x80000e90: 00 14 04 13 addi	s0, s0, 1
[1;34m[src/memory/paddr.c:97 mtrace_log] R: 0x80000e94 (len=4) data=0x00448493[0m
0x80000e94: 00 44 84 93 addi	s1, s1, 4
[1;34m[src/memory/paddr.c:97 mtrace_log] R: 0x80000e98 (len=4) data=0xff2412e3[0m
0x80000e98: ff 24 12 e3 bne	s0, s2, -0x1c
[1;34m[src/memory/paddr.c:97 mtrace_log] R: 0x80000e7c (len=4) data=0x0004a603[0m
[1;34m[src/memory/paddr.c:97 mtrace_log] R: 0x80002f8c (len=4) data=0x00000000[0m
0x80000e7c: 00 04 a6 03 lw	a2, 0(s1)
[1;34m[src/memory/paddr.c:97 mtrace_log] R: 0x80000e80 (len=4) data=0x00060863[0m
0x80000e80: 00 06 08 63 beqz	a2, 0x10
[1;34m[src/memory/paddr.c:97 mtrace_log] R: 0x80000e90 (len=4) data=0x00140413[0m
0x80000e90: 00 14 04 13 addi	s0, s0, 1
[1;34m[src/memory/paddr.c:97 mtrace_log] R: 0x80000e94 (len=4) data=0x00448493[0m
0x80000e94: 00 44 84 93 addi	s1, s1, 4
[1;34m[src/memory/paddr.c:97 mtrace_log] R: 0x80000e98 (len=4) data=0xff2412e3[0m
0x80000e98: ff 24 12 e3 bne	s0, s2, -0x1c
[1;34m[src/memory/paddr.c:97 mtrace_log] R: 0x80000e7c (len=4) data=0x0004a603[0m
[1;34m[src/memory/paddr.c:97 mtrace_log] R: 0x80002f90 (len=4) data=0x00000000[0m
0x80000e7c: 00 04 a6 03 lw	a2, 0(s1)
[1;34m[src/memory/paddr.c:97 mtrace_log] R: 0x80000e80 (len=4) data=0x00060863[0m
0x80000e80: 00 06 08 63 beqz	a2, 0x10
[1;34m[src/memory/paddr.c:97 mtrace_log] R: 0x80000e90 (len=4) data=0x00140413[0m
0x80000e90: 00 14 04 13 addi	s0, s0, 1
[1;34m[src/memory/paddr.c:97 mtrace_log] R: 0x80000e94 (len=4) data=0x00448493[0m
0x80000e94: 00 44 84 93 addi	s1, s1, 4
[1;34m[src/memory/paddr.c:97 mtrace_log] R: 0x80000e98 (len=4) data=0xff2412e3[0m
0x80000e98: ff 24 12 e3 bne	s0, s2, -0x1c
[1;34m[src/memory/paddr.c:97 mtrace_log] R: 0x80000e7c (len=4) data=0x0004a603[0m
[1;34m[src/memory/paddr.c:97 mtrace_log] R: 0x80002f94 (len=4) data=0x00000000[0m
0x80000e7c: 00 04 a6 03 lw	a2, 0(s1)
[1;34m[src/memory/paddr.c:97 mtrace_log] R: 0x80000e80 (len=4) data=0x00060863[0m
0x80000e80: 00 06 08 63 beqz	a2, 0x10
[1;34m[src/memory/paddr.c:97 mtrace_log] R: 0x80000e90 (len=4) data=0x00140413[0m
0x80000e90: 00 14 04 13 addi	s0, s0, 1
[1;34m[src/memory/paddr.c:97 mtrace_log] R: 0x80000e94 (len=4) data=0x00448493[0m
0x80000e94: 00 44 84 93 addi	s1, s1, 4
[1;34m[src/memory/paddr.c:97 mtrace_log] R: 0x80000e98 (len=4) data=0xff2412e3[0m
0x80000e98: ff 24 12 e3 bne	s0, s2, -0x1c
[1;34m[src/memory/paddr.c:97 mtrace_log] R: 0x80000e7c (len=4) data=0x0004a603[0m
[1;34m[src/memory/paddr.c:97 mtrace_log] R: 0x80002f98 (len=4) data=0x00000000[0m
0x80000e7c: 00 04 a6 03 lw	a2, 0(s1)
[1;34m[src/memory/paddr.c:97 mtrace_log] R: 0x80000e80 (len=4) data=0x00060863[0m
0x80000e80: 00 06 08 63 beqz	a2, 0x10
[1;34m[src/memory/paddr.c:97 mtrace_log] R: 0x80000e90 (len=4) data=0x00140413[0m
0x80000e90: 00 14 04 13 addi	s0, s0, 1
[1;34m[src/memory/paddr.c:97 mtrace_log] R: 0x80000e94 (len=4) data=0x00448493[0m
0x80000e94: 00 44 84 93 addi	s1, s1, 4
[1;34m[src/memory/paddr.c:97 mtrace_log] R: 0x80000e98 (len=4) data=0xff2412e3[0m
0x80000e98: ff 24 12 e3 bne	s0, s2, -0x1c
[1;34m[src/memory/paddr.c:97 mtrace_log] R: 0x80000e7c (len=4) data=0x0004a603[0m
[1;34m[src/memory/paddr.c:97 mtrace_log] R: 0x80002f9c (len=4) data=0x00000000[0m
0x80000e7c: 00 04 a6 03 lw	a2, 0(s1)
[1;34m[src/memory/paddr.c:97 mtrace_log] R: 0x80000e80 (len=4) data=0x00060863[0m
0x80000e80: 00 06 08 63 beqz	a2, 0x10
[1;34m[src/memory/paddr.c:97 mtrace_log] R: 0x80000e90 (len=4) data=0x00140413[0m
0x80000e90: 00 14 04 13 addi	s0, s0, 1
[1;34m[src/memory/paddr.c:97 mtrace_log] R: 0x80000e94 (len=4) data=0x00448493[0m
0x80000e94: 00 44 84 93 addi	s1, s1, 4
[1;34m[src/memory/paddr.c:97 mtrace_log] R: 0x80000e98 (len=4) data=0xff2412e3[0m
0x80000e98: ff 24 12 e3 bne	s0, s2, -0x1c
[1;34m[src/memory/paddr.c:97 mtrace_log] R: 0x80000e7c (len=4) data=0x0004a603[0m
[1;34m[src/memory/paddr.c:97 mtrace_log] R: 0x80002fa0 (len=4) data=0x00000000[0m
0x80000e7c: 00 04 a6 03 lw	a2, 0(s1)
[1;34m[src/memory/paddr.c:97 mtrace_log] R: 0x80000e80 (len=4) data=0x00060863[0m
0x80000e80: 00 06 08 63 beqz	a2, 0x10
[1;34m[src/memory/paddr.c:97 mtrace_log] R: 0x80000e90 (len=4) data=0x00140413[0m
0x80000e90: 00 14 04 13 addi	s0, s0, 1
[1;34m[src/memory/paddr.c:97 mtrace_log] R: 0x80000e94 (len=4) data=0x00448493[0m
0x80000e94: 00 44 84 93 addi	s1, s1, 4
[1;34m[src/memory/paddr.c:97 mtrace_log] R: 0x80000e98 (len=4) data=0xff2412e3[0m
0x80000e98: ff 24 12 e3 bne	s0, s2, -0x1c
[1;34m[src/memory/paddr.c:97 mtrace_log] R: 0x80000e7c (len=4) data=0x0004a603[0m
[1;34m[src/memory/paddr.c:97 mtrace_log] R: 0x80002fa4 (len=4) data=0x00000000[0m
0x80000e7c: 00 04 a6 03 lw	a2, 0(s1)
[1;34m[src/memory/paddr.c:97 mtrace_log] R: 0x80000e80 (len=4) data=0x00060863[0m
0x80000e80: 00 06 08 63 beqz	a2, 0x10
[1;34m[src/memory/paddr.c:97 mtrace_log] R: 0x80000e90 (len=4) data=0x00140413[0m
0x80000e90: 00 14 04 13 addi	s0, s0, 1
[1;34m[src/memory/paddr.c:97 mtrace_log] R: 0x80000e94 (len=4) data=0x00448493[0m
0x80000e94: 00 44 84 93 addi	s1, s1, 4
[1;34m[src/memory/paddr.c:97 mtrace_log] R: 0x80000e98 (len=4) data=0xff2412e3[0m
0x80000e98: ff 24 12 e3 bne	s0, s2, -0x1c
[1;34m[src/memory/paddr.c:97 mtrace_log] R: 0x80000e7c (len=4) data=0x0004a603[0m
[1;34m[src/memory/paddr.c:97 mtrace_log] R: 0x80002fa8 (len=4) data=0x00000000[0m
0x80000e7c: 00 04 a6 03 lw	a2, 0(s1)
[1;34m[src/memory/paddr.c:97 mtrace_log] R: 0x80000e80 (len=4) data=0x00060863[0m
0x80000e80: 00 06 08 63 beqz	a2, 0x10
[1;34m[src/memory/paddr.c:97 mtrace_log] R: 0x80000e90 (len=4) data=0x00140413[0m
0x80000e90: 00 14 04 13 addi	s0, s0, 1
[1;34m[src/memory/paddr.c:97 mtrace_log] R: 0x80000e94 (len=4) data=0x00448493[0m
0x80000e94: 00 44 84 93 addi	s1, s1, 4
[1;34m[src/memory/paddr.c:97 mtrace_log] R: 0x80000e98 (len=4) data=0xff2412e3[0m
0x80000e98: ff 24 12 e3 bne	s0, s2, -0x1c
[1;34m[src/memory/paddr.c:97 mtrace_log] R: 0x80000e7c (len=4) data=0x0004a603[0m
[1;34m[src/memory/paddr.c:97 mtrace_log] R: 0x80002fac (len=4) data=0x00000000[0m
0x80000e7c: 00 04 a6 03 lw	a2, 0(s1)
[1;34m[src/memory/paddr.c:97 mtrace_log] R: 0x80000e80 (len=4) data=0x00060863[0m
0x80000e80: 00 06 08 63 beqz	a2, 0x10
[1;34m[src/memory/paddr.c:97 mtrace_log] R: 0x80000e90 (len=4) data=0x00140413[0m
0x80000e90: 00 14 04 13 addi	s0, s0, 1
[1;34m[src/memory/paddr.c:97 mtrace_log] R: 0x80000e94 (len=4) data=0x00448493[0m
0x80000e94: 00 44 84 93 addi	s1, s1, 4
[1;34m[src/memory/paddr.c:97 mtrace_log] R: 0x80000e98 (len=4) data=0xff2412e3[0m
0x80000e98: ff 24 12 e3 bne	s0, s2, -0x1c
[1;34m[src/memory/paddr.c:97 mtrace_log] R: 0x80000e7c (len=4) data=0x0004a603[0m
[1;34m[src/memory/paddr.c:97 mtrace_log] R: 0x80002fb0 (len=4) data=0x00000000[0m
0x80000e7c: 00 04 a6 03 lw	a2, 0(s1)
[1;34m[src/memory/paddr.c:97 mtrace_log] R: 0x80000e80 (len=4) data=0x00060863[0m
0x80000e80: 00 06 08 63 beqz	a2, 0x10
[1;34m[src/memory/paddr.c:97 mtrace_log] R: 0x80000e90 (len=4) data=0x00140413[0m
0x80000e90: 00 14 04 13 addi	s0, s0, 1
[1;34m[src/memory/paddr.c:97 mtrace_log] R: 0x80000e94 (len=4) data=0x00448493[0m
0x80000e94: 00 44 84 93 addi	s1, s1, 4
[1;34m[src/memory/paddr.c:97 mtrace_log] R: 0x80000e98 (len=4) data=0xff2412e3[0m
0x80000e98: ff 24 12 e3 bne	s0, s2, -0x1c
[1;34m[src/memory/paddr.c:97 mtrace_log] R: 0x80000e7c (len=4) data=0x0004a603[0m
[1;34m[src/memory/paddr.c:97 mtrace_log] R: 0x80002fb4 (len=4) data=0x00000000[0m
0x80000e7c: 00 04 a6 03 lw	a2, 0(s1)
[1;34m[src/memory/paddr.c:97 mtrace_log] R: 0x80000e80 (len=4) data=0x00060863[0m
0x80000e80: 00 06 08 63 beqz	a2, 0x10
[1;34m[src/memory/paddr.c:97 mtrace_log] R: 0x80000e90 (len=4) data=0x00140413[0m
0x80000e90: 00 14 04 13 addi	s0, s0, 1
[1;34m[src/memory/paddr.c:97 mtrace_log] R: 0x80000e94 (len=4) data=0x00448493[0m
0x80000e94: 00 44 84 93 addi	s1, s1, 4
[1;34m[src/memory/paddr.c:97 mtrace_log] R: 0x80000e98 (len=4) data=0xff2412e3[0m
0x80000e98: ff 24 12 e3 bne	s0, s2, -0x1c
[1;34m[src/memory/paddr.c:97 mtrace_log] R: 0x80000e7c (len=4) data=0x0004a603[0m
[1;34m[src/memory/paddr.c:97 mtrace_log] R: 0x80002fb8 (len=4) data=0x00000000[0m
0x80000e7c: 00 04 a6 03 lw	a2, 0(s1)
[1;34m[src/memory/paddr.c:97 mtrace_log] R: 0x80000e80 (len=4) data=0x00060863[0m
0x80000e80: 00 06 08 63 beqz	a2, 0x10
[1;34m[src/memory/paddr.c:97 mtrace_log] R: 0x80000e90 (len=4) data=0x00140413[0m
0x80000e90: 00 14 04 13 addi	s0, s0, 1
[1;34m[src/memory/paddr.c:97 mtrace_log] R: 0x80000e94 (len=4) data=0x00448493[0m
0x80000e94: 00 44 84 93 addi	s1, s1, 4
[1;34m[src/memory/paddr.c:97 mtrace_log] R: 0x80000e98 (len=4) data=0xff2412e3[0m
0x80000e98: ff 24 12 e3 bne	s0, s2, -0x1c
[1;34m[src/memory/paddr.c:97 mtrace_log] R: 0x80000e7c (len=4) data=0x0004a603[0m
[1;34m[src/memory/paddr.c:97 mtrace_log] R: 0x80002fbc (len=4) data=0x00000000[0m
0x80000e7c: 00 04 a6 03 lw	a2, 0(s1)
[1;34m[src/memory/paddr.c:97 mtrace_log] R: 0x80000e80 (len=4) data=0x00060863[0m
0x80000e80: 00 06 08 63 beqz	a2, 0x10
[1;34m[src/memory/paddr.c:97 mtrace_log] R: 0x80000e90 (len=4) data=0x00140413[0m
0x80000e90: 00 14 04 13 addi	s0, s0, 1
[1;34m[src/memory/paddr.c:97 mtrace_log] R: 0x80000e94 (len=4) data=0x00448493[0m
0x80000e94: 00 44 84 93 addi	s1, s1, 4
[1;34m[src/memory/paddr.c:97 mtrace_log] R: 0x80000e98 (len=4) data=0xff2412e3[0m
0x80000e98: ff 24 12 e3 bne	s0, s2, -0x1c
[1;34m[src/memory/paddr.c:97 mtrace_log] R: 0x80000e7c (len=4) data=0x0004a603[0m
[1;34m[src/memory/paddr.c:97 mtrace_log] R: 0x80002fc0 (len=4) data=0x00000000[0m
0x80000e7c: 00 04 a6 03 lw	a2, 0(s1)
[1;34m[src/memory/paddr.c:97 mtrace_log] R: 0x80000e80 (len=4) data=0x00060863[0m
0x80000e80: 00 06 08 63 beqz	a2, 0x10
[1;34m[src/memory/paddr.c:97 mtrace_log] R: 0x80000e90 (len=4) data=0x00140413[0m
0x80000e90: 00 14 04 13 addi	s0, s0, 1
[1;34m[src/memory/paddr.c:97 mtrace_log] R: 0x80000e94 (len=4) data=0x00448493[0m
0x80000e94: 00 44 84 93 addi	s1, s1, 4
[1;34m[src/memory/paddr.c:97 mtrace_log] R: 0x80000e98 (len=4) data=0xff2412e3[0m
0x80000e98: ff 24 12 e3 bne	s0, s2, -0x1c
[1;34m[src/memory/paddr.c:97 mtrace_log] R: 0x80000e7c (len=4) data=0x0004a603[0m
[1;34m[src/memory/paddr.c:97 mtrace_log] R: 0x80002fc4 (len=4) data=0x00000000[0m
0x80000e7c: 00 04 a6 03 lw	a2, 0(s1)
[1;34m[src/memory/paddr.c:97 mtrace_log] R: 0x80000e80 (len=4) data=0x00060863[0m
0x80000e80: 00 06 08 63 beqz	a2, 0x10
[1;34m[src/memory/paddr.c:97 mtrace_log] R: 0x80000e90 (len=4) data=0x00140413[0m
0x80000e90: 00 14 04 13 addi	s0, s0, 1
[1;34m[src/memory/paddr.c:97 mtrace_log] R: 0x80000e94 (len=4) data=0x00448493[0m
0x80000e94: 00 44 84 93 addi	s1, s1, 4
[1;34m[src/memory/paddr.c:97 mtrace_log] R: 0x80000e98 (len=4) data=0xff2412e3[0m
0x80000e98: ff 24 12 e3 bne	s0, s2, -0x1c
[1;34m[src/memory/paddr.c:97 mtrace_log] R: 0x80000e7c (len=4) data=0x0004a603[0m
[1;34m[src/memory/paddr.c:97 mtrace_log] R: 0x80002fc8 (len=4) data=0x00000000[0m
0x80000e7c: 00 04 a6 03 lw	a2, 0(s1)
[1;34m[src/memory/paddr.c:97 mtrace_log] R: 0x80000e80 (len=4) data=0x00060863[0m
0x80000e80: 00 06 08 63 beqz	a2, 0x10
[1;34m[src/memory/paddr.c:97 mtrace_log] R: 0x80000e90 (len=4) data=0x00140413[0m
0x80000e90: 00 14 04 13 addi	s0, s0, 1
[1;34m[src/memory/paddr.c:97 mtrace_log] R: 0x80000e94 (len=4) data=0x00448493[0m
0x80000e94: 00 44 84 93 addi	s1, s1, 4
[1;34m[src/memory/paddr.c:97 mtrace_log] R: 0x80000e98 (len=4) data=0xff2412e3[0m
0x80000e98: ff 24 12 e3 bne	s0, s2, -0x1c
[1;34m[src/memory/paddr.c:97 mtrace_log] R: 0x80000e7c (len=4) data=0x0004a603[0m
[1;34m[src/memory/paddr.c:97 mtrace_log] R: 0x80002fcc (len=4) data=0x00000000[0m
0x80000e7c: 00 04 a6 03 lw	a2, 0(s1)
[1;34m[src/memory/paddr.c:97 mtrace_log] R: 0x80000e80 (len=4) data=0x00060863[0m
0x80000e80: 00 06 08 63 beqz	a2, 0x10
[1;34m[src/memory/paddr.c:97 mtrace_log] R: 0x80000e90 (len=4) data=0x00140413[0m
0x80000e90: 00 14 04 13 addi	s0, s0, 1
[1;34m[src/memory/paddr.c:97 mtrace_log] R: 0x80000e94 (len=4) data=0x00448493[0m
0x80000e94: 00 44 84 93 addi	s1, s1, 4
[1;34m[src/memory/paddr.c:97 mtrace_log] R: 0x80000e98 (len=4) data=0xff2412e3[0m
0x80000e98: ff 24 12 e3 bne	s0, s2, -0x1c
[1;34m[src/memory/paddr.c:97 mtrace_log] R: 0x80000e7c (len=4) data=0x0004a603[0m
[1;34m[src/memory/paddr.c:97 mtrace_log] R: 0x80002fd0 (len=4) data=0x00000000[0m
0x80000e7c: 00 04 a6 03 lw	a2, 0(s1)
[1;34m[src/memory/paddr.c:97 mtrace_log] R: 0x80000e80 (len=4) data=0x00060863[0m
0x80000e80: 00 06 08 63 beqz	a2, 0x10
[1;34m[src/memory/paddr.c:97 mtrace_log] R: 0x80000e90 (len=4) data=0x00140413[0m
0x80000e90: 00 14 04 13 addi	s0, s0, 1
[1;34m[src/memory/paddr.c:97 mtrace_log] R: 0x80000e94 (len=4) data=0x00448493[0m
0x80000e94: 00 44 84 93 addi	s1, s1, 4
[1;34m[src/memory/paddr.c:97 mtrace_log] R: 0x80000e98 (len=4) data=0xff2412e3[0m
0x80000e98: ff 24 12 e3 bne	s0, s2, -0x1c
[1;34m[src/memory/paddr.c:97 mtrace_log] R: 0x80000e7c (len=4) data=0x0004a603[0m
[1;34m[src/memory/paddr.c:97 mtrace_log] R: 0x80002fd4 (len=4) data=0x00000000[0m
0x80000e7c: 00 04 a6 03 lw	a2, 0(s1)
[1;34m[src/memory/paddr.c:97 mtrace_log] R: 0x80000e80 (len=4) data=0x00060863[0m
0x80000e80: 00 06 08 63 beqz	a2, 0x10
[1;34m[src/memory/paddr.c:97 mtrace_log] R: 0x80000e90 (len=4) data=0x00140413[0m
0x80000e90: 00 14 04 13 addi	s0, s0, 1
[1;34m[src/memory/paddr.c:97 mtrace_log] R: 0x80000e94 (len=4) data=0x00448493[0m
0x80000e94: 00 44 84 93 addi	s1, s1, 4
[1;34m[src/memory/paddr.c:97 mtrace_log] R: 0x80000e98 (len=4) data=0xff2412e3[0m
0x80000e98: ff 24 12 e3 bne	s0, s2, -0x1c
[1;34m[src/memory/paddr.c:97 mtrace_log] R: 0x80000e7c (len=4) data=0x0004a603[0m
[1;34m[src/memory/paddr.c:97 mtrace_log] R: 0x80002fd8 (len=4) data=0x00000000[0m
0x80000e7c: 00 04 a6 03 lw	a2, 0(s1)
[1;34m[src/memory/paddr.c:97 mtrace_log] R: 0x80000e80 (len=4) data=0x00060863[0m
0x80000e80: 00 06 08 63 beqz	a2, 0x10
[1;34m[src/memory/paddr.c:97 mtrace_log] R: 0x80000e90 (len=4) data=0x00140413[0m
0x80000e90: 00 14 04 13 addi	s0, s0, 1
[1;34m[src/memory/paddr.c:97 mtrace_log] R: 0x80000e94 (len=4) data=0x00448493[0m
0x80000e94: 00 44 84 93 addi	s1, s1, 4
[1;34m[src/memory/paddr.c:97 mtrace_log] R: 0x80000e98 (len=4) data=0xff2412e3[0m
0x80000e98: ff 24 12 e3 bne	s0, s2, -0x1c
[1;34m[src/memory/paddr.c:97 mtrace_log] R: 0x80000e7c (len=4) data=0x0004a603[0m
[1;34m[src/memory/paddr.c:97 mtrace_log] R: 0x80002fdc (len=4) data=0x00000000[0m
0x80000e7c: 00 04 a6 03 lw	a2, 0(s1)
[1;34m[src/memory/paddr.c:97 mtrace_log] R: 0x80000e80 (len=4) data=0x00060863[0m
0x80000e80: 00 06 08 63 beqz	a2, 0x10
[1;34m[src/memory/paddr.c:97 mtrace_log] R: 0x80000e90 (len=4) data=0x00140413[0m
0x80000e90: 00 14 04 13 addi	s0, s0, 1
[1;34m[src/memory/paddr.c:97 mtrace_log] R: 0x80000e94 (len=4) data=0x00448493[0m
0x80000e94: 00 44 84 93 addi	s1, s1, 4
[1;34m[src/memory/paddr.c:97 mtrace_log] R: 0x80000e98 (len=4) data=0xff2412e3[0m
0x80000e98: ff 24 12 e3 bne	s0, s2, -0x1c
[1;34m[src/memory/paddr.c:97 mtrace_log] R: 0x80000e7c (len=4) data=0x0004a603[0m
[1;34m[src/memory/paddr.c:97 mtrace_log] R: 0x80002fe0 (len=4) data=0x00000000[0m
0x80000e7c: 00 04 a6 03 lw	a2, 0(s1)
[1;34m[src/memory/paddr.c:97 mtrace_log] R: 0x80000e80 (len=4) data=0x00060863[0m
0x80000e80: 00 06 08 63 beqz	a2, 0x10
[1;34m[src/memory/paddr.c:97 mtrace_log] R: 0x80000e90 (len=4) data=0x00140413[0m
0x80000e90: 00 14 04 13 addi	s0, s0, 1
[1;34m[src/memory/paddr.c:97 mtrace_log] R: 0x80000e94 (len=4) data=0x00448493[0m
0x80000e94: 00 44 84 93 addi	s1, s1, 4
[1;34m[src/memory/paddr.c:97 mtrace_log] R: 0x80000e98 (len=4) data=0xff2412e3[0m
0x80000e98: ff 24 12 e3 bne	s0, s2, -0x1c
[1;34m[src/memory/paddr.c:97 mtrace_log] R: 0x80000e7c (len=4) data=0x0004a603[0m
[1;34m[src/memory/paddr.c:97 mtrace_log] R: 0x80002fe4 (len=4) data=0x00000000[0m
0x80000e7c: 00 04 a6 03 lw	a2, 0(s1)
[1;34m[src/memory/paddr.c:97 mtrace_log] R: 0x80000e80 (len=4) data=0x00060863[0m
0x80000e80: 00 06 08 63 beqz	a2, 0x10
[1;34m[src/memory/paddr.c:97 mtrace_log] R: 0x80000e90 (len=4) data=0x00140413[0m
0x80000e90: 00 14 04 13 addi	s0, s0, 1
[1;34m[src/memory/paddr.c:97 mtrace_log] R: 0x80000e94 (len=4) data=0x00448493[0m
0x80000e94: 00 44 84 93 addi	s1, s1, 4
[1;34m[src/memory/paddr.c:97 mtrace_log] R: 0x80000e98 (len=4) data=0xff2412e3[0m
0x80000e98: ff 24 12 e3 bne	s0, s2, -0x1c
[1;34m[src/memory/paddr.c:97 mtrace_log] R: 0x80000e7c (len=4) data=0x0004a603[0m
[1;34m[src/memory/paddr.c:97 mtrace_log] R: 0x80002fe8 (len=4) data=0x00000000[0m
0x80000e7c: 00 04 a6 03 lw	a2, 0(s1)
[1;34m[src/memory/paddr.c:97 mtrace_log] R: 0x80000e80 (len=4) data=0x00060863[0m
0x80000e80: 00 06 08 63 beqz	a2, 0x10
[1;34m[src/memory/paddr.c:97 mtrace_log] R: 0x80000e90 (len=4) data=0x00140413[0m
0x80000e90: 00 14 04 13 addi	s0, s0, 1
[1;34m[src/memory/paddr.c:97 mtrace_log] R: 0x80000e94 (len=4) data=0x00448493[0m
0x80000e94: 00 44 84 93 addi	s1, s1, 4
[1;34m[src/memory/paddr.c:97 mtrace_log] R: 0x80000e98 (len=4) data=0xff2412e3[0m
0x80000e98: ff 24 12 e3 bne	s0, s2, -0x1c
[1;34m[src/memory/paddr.c:97 mtrace_log] R: 0x80000e7c (len=4) data=0x0004a603[0m
[1;34m[src/memory/paddr.c:97 mtrace_log] R: 0x80002fec (len=4) data=0x00000000[0m
0x80000e7c: 00 04 a6 03 lw	a2, 0(s1)
[1;34m[src/memory/paddr.c:97 mtrace_log] R: 0x80000e80 (len=4) data=0x00060863[0m
0x80000e80: 00 06 08 63 beqz	a2, 0x10
[1;34m[src/memory/paddr.c:97 mtrace_log] R: 0x80000e90 (len=4) data=0x00140413[0m
0x80000e90: 00 14 04 13 addi	s0, s0, 1
[1;34m[src/memory/paddr.c:97 mtrace_log] R: 0x80000e94 (len=4) data=0x00448493[0m
0x80000e94: 00 44 84 93 addi	s1, s1, 4
[1;34m[src/memory/paddr.c:97 mtrace_log] R: 0x80000e98 (len=4) data=0xff2412e3[0m
0x80000e98: ff 24 12 e3 bne	s0, s2, -0x1c
[1;34m[src/memory/paddr.c:97 mtrace_log] R: 0x80000e7c (len=4) data=0x0004a603[0m
[1;34m[src/memory/paddr.c:97 mtrace_log] R: 0x80002ff0 (len=4) data=0x00000000[0m
0x80000e7c: 00 04 a6 03 lw	a2, 0(s1)
[1;34m[src/memory/paddr.c:97 mtrace_log] R: 0x80000e80 (len=4) data=0x00060863[0m
0x80000e80: 00 06 08 63 beqz	a2, 0x10
[1;34m[src/memory/paddr.c:97 mtrace_log] R: 0x80000e90 (len=4) data=0x00140413[0m
0x80000e90: 00 14 04 13 addi	s0, s0, 1
[1;34m[src/memory/paddr.c:97 mtrace_log] R: 0x80000e94 (len=4) data=0x00448493[0m
0x80000e94: 00 44 84 93 addi	s1, s1, 4
[1;34m[src/memory/paddr.c:97 mtrace_log] R: 0x80000e98 (len=4) data=0xff2412e3[0m
0x80000e98: ff 24 12 e3 bne	s0, s2, -0x1c
[1;34m[src/memory/paddr.c:97 mtrace_log] R: 0x80000e7c (len=4) data=0x0004a603[0m
[1;34m[src/memory/paddr.c:97 mtrace_log] R: 0x80002ff4 (len=4) data=0x00000000[0m
0x80000e7c: 00 04 a6 03 lw	a2, 0(s1)
[1;34m[src/memory/paddr.c:97 mtrace_log] R: 0x80000e80 (len=4) data=0x00060863[0m
0x80000e80: 00 06 08 63 beqz	a2, 0x10
[1;34m[src/memory/paddr.c:97 mtrace_log] R: 0x80000e90 (len=4) data=0x00140413[0m
0x80000e90: 00 14 04 13 addi	s0, s0, 1
[1;34m[src/memory/paddr.c:97 mtrace_log] R: 0x80000e94 (len=4) data=0x00448493[0m
0x80000e94: 00 44 84 93 addi	s1, s1, 4
[1;34m[src/memory/paddr.c:97 mtrace_log] R: 0x80000e98 (len=4) data=0xff2412e3[0m
0x80000e98: ff 24 12 e3 bne	s0, s2, -0x1c
[1;34m[src/memory/paddr.c:97 mtrace_log] R: 0x80000e7c (len=4) data=0x0004a603[0m
[1;34m[src/memory/paddr.c:97 mtrace_log] R: 0x80002ff8 (len=4) data=0x00000000[0m
0x80000e7c: 00 04 a6 03 lw	a2, 0(s1)
[1;34m[src/memory/paddr.c:97 mtrace_log] R: 0x80000e80 (len=4) data=0x00060863[0m
0x80000e80: 00 06 08 63 beqz	a2, 0x10
[1;34m[src/memory/paddr.c:97 mtrace_log] R: 0x80000e90 (len=4) data=0x00140413[0m
0x80000e90: 00 14 04 13 addi	s0, s0, 1
[1;34m[src/memory/paddr.c:97 mtrace_log] R: 0x80000e94 (len=4) data=0x00448493[0m
0x80000e94: 00 44 84 93 addi	s1, s1, 4
[1;34m[src/memory/paddr.c:97 mtrace_log] R: 0x80000e98 (len=4) data=0xff2412e3[0m
0x80000e98: ff 24 12 e3 bne	s0, s2, -0x1c
[1;34m[src/memory/paddr.c:97 mtrace_log] R: 0x80000e7c (len=4) data=0x0004a603[0m
[1;34m[src/memory/paddr.c:97 mtrace_log] R: 0x80002ffc (len=4) data=0x00000000[0m
0x80000e7c: 00 04 a6 03 lw	a2, 0(s1)
[1;34m[src/memory/paddr.c:97 mtrace_log] R: 0x80000e80 (len=4) data=0x00060863[0m
0x80000e80: 00 06 08 63 beqz	a2, 0x10
[1;34m[src/memory/paddr.c:97 mtrace_log] R: 0x80000e90 (len=4) data=0x00140413[0m
0x80000e90: 00 14 04 13 addi	s0, s0, 1
[1;34m[src/memory/paddr.c:97 mtrace_log] R: 0x80000e94 (len=4) data=0x00448493[0m
0x80000e94: 00 44 84 93 addi	s1, s1, 4
[1;34m[src/memory/paddr.c:97 mtrace_log] R: 0x80000e98 (len=4) data=0xff2412e3[0m
0x80000e98: ff 24 12 e3 bne	s0, s2, -0x1c
[1;34m[src/memory/paddr.c:97 mtrace_log] R: 0x80000e7c (len=4) data=0x0004a603[0m
[1;34m[src/memory/paddr.c:97 mtrace_log] R: 0x80003000 (len=4) data=0x00000000[0m
0x80000e7c: 00 04 a6 03 lw	a2, 0(s1)
[1;34m[src/memory/paddr.c:97 mtrace_log] R: 0x80000e80 (len=4) data=0x00060863[0m
0x80000e80: 00 06 08 63 beqz	a2, 0x10
[1;34m[src/memory/paddr.c:97 mtrace_log] R: 0x80000e90 (len=4) data=0x00140413[0m
0x80000e90: 00 14 04 13 addi	s0, s0, 1
[1;34m[src/memory/paddr.c:97 mtrace_log] R: 0x80000e94 (len=4) data=0x00448493[0m
0x80000e94: 00 44 84 93 addi	s1, s1, 4
[1;34m[src/memory/paddr.c:97 mtrace_log] R: 0x80000e98 (len=4) data=0xff2412e3[0m
0x80000e98: ff 24 12 e3 bne	s0, s2, -0x1c
[1;34m[src/memory/paddr.c:97 mtrace_log] R: 0x80000e7c (len=4) data=0x0004a603[0m
[1;34m[src/memory/paddr.c:97 mtrace_log] R: 0x80003004 (len=4) data=0x00000000[0m
0x80000e7c: 00 04 a6 03 lw	a2, 0(s1)
[1;34m[src/memory/paddr.c:97 mtrace_log] R: 0x80000e80 (len=4) data=0x00060863[0m
0x80000e80: 00 06 08 63 beqz	a2, 0x10
[1;34m[src/memory/paddr.c:97 mtrace_log] R: 0x80000e90 (len=4) data=0x00140413[0m
0x80000e90: 00 14 04 13 addi	s0, s0, 1
[1;34m[src/memory/paddr.c:97 mtrace_log] R: 0x80000e94 (len=4) data=0x00448493[0m
0x80000e94: 00 44 84 93 addi	s1, s1, 4
[1;34m[src/memory/paddr.c:97 mtrace_log] R: 0x80000e98 (len=4) data=0xff2412e3[0m
0x80000e98: ff 24 12 e3 bne	s0, s2, -0x1c
[1;34m[src/memory/paddr.c:97 mtrace_log] R: 0x80000e7c (len=4) data=0x0004a603[0m
[1;34m[src/memory/paddr.c:97 mtrace_log] R: 0x80003008 (len=4) data=0x00000000[0m
0x80000e7c: 00 04 a6 03 lw	a2, 0(s1)
[1;34m[src/memory/paddr.c:97 mtrace_log] R: 0x80000e80 (len=4) data=0x00060863[0m
0x80000e80: 00 06 08 63 beqz	a2, 0x10
[1;34m[src/memory/paddr.c:97 mtrace_log] R: 0x80000e90 (len=4) data=0x00140413[0m
0x80000e90: 00 14 04 13 addi	s0, s0, 1
[1;34m[src/memory/paddr.c:97 mtrace_log] R: 0x80000e94 (len=4) data=0x00448493[0m
0x80000e94: 00 44 84 93 addi	s1, s1, 4
[1;34m[src/memory/paddr.c:97 mtrace_log] R: 0x80000e98 (len=4) data=0xff2412e3[0m
0x80000e98: ff 24 12 e3 bne	s0, s2, -0x1c
[1;34m[src/memory/paddr.c:97 mtrace_log] R: 0x80000e7c (len=4) data=0x0004a603[0m
[1;34m[src/memory/paddr.c:97 mtrace_log] R: 0x8000300c (len=4) data=0x00000000[0m
0x80000e7c: 00 04 a6 03 lw	a2, 0(s1)
[1;34m[src/memory/paddr.c:97 mtrace_log] R: 0x80000e80 (len=4) data=0x00060863[0m
0x80000e80: 00 06 08 63 beqz	a2, 0x10
[1;34m[src/memory/paddr.c:97 mtrace_log] R: 0x80000e90 (len=4) data=0x00140413[0m
0x80000e90: 00 14 04 13 addi	s0, s0, 1
[1;34m[src/memory/paddr.c:97 mtrace_log] R: 0x80000e94 (len=4) data=0x00448493[0m
0x80000e94: 00 44 84 93 addi	s1, s1, 4
[1;34m[src/memory/paddr.c:97 mtrace_log] R: 0x80000e98 (len=4) data=0xff2412e3[0m
0x80000e98: ff 24 12 e3 bne	s0, s2, -0x1c
[1;34m[src/memory/paddr.c:97 mtrace_log] R: 0x80000e7c (len=4) data=0x0004a603[0m
[1;34m[src/memory/paddr.c:97 mtrace_log] R: 0x80003010 (len=4) data=0x00000000[0m
0x80000e7c: 00 04 a6 03 lw	a2, 0(s1)
[1;34m[src/memory/paddr.c:97 mtrace_log] R: 0x80000e80 (len=4) data=0x00060863[0m
0x80000e80: 00 06 08 63 beqz	a2, 0x10
[1;34m[src/memory/paddr.c:97 mtrace_log] R: 0x80000e90 (len=4) data=0x00140413[0m
0x80000e90: 00 14 04 13 addi	s0, s0, 1
[1;34m[src/memory/paddr.c:97 mtrace_log] R: 0x80000e94 (len=4) data=0x00448493[0m
0x80000e94: 00 44 84 93 addi	s1, s1, 4
[1;34m[src/memory/paddr.c:97 mtrace_log] R: 0x80000e98 (len=4) data=0xff2412e3[0m
0x80000e98: ff 24 12 e3 bne	s0, s2, -0x1c
[1;34m[src/memory/paddr.c:97 mtrace_log] R: 0x80000e7c (len=4) data=0x0004a603[0m
[1;34m[src/memory/paddr.c:97 mtrace_log] R: 0x80003014 (len=4) data=0x00000000[0m
0x80000e7c: 00 04 a6 03 lw	a2, 0(s1)
[1;34m[src/memory/paddr.c:97 mtrace_log] R: 0x80000e80 (len=4) data=0x00060863[0m
0x80000e80: 00 06 08 63 beqz	a2, 0x10
[1;34m[src/memory/paddr.c:97 mtrace_log] R: 0x80000e90 (len=4) data=0x00140413[0m
0x80000e90: 00 14 04 13 addi	s0, s0, 1
[1;34m[src/memory/paddr.c:97 mtrace_log] R: 0x80000e94 (len=4) data=0x00448493[0m
0x80000e94: 00 44 84 93 addi	s1, s1, 4
[1;34m[src/memory/paddr.c:97 mtrace_log] R: 0x80000e98 (len=4) data=0xff2412e3[0m
0x80000e98: ff 24 12 e3 bne	s0, s2, -0x1c
[1;34m[src/memory/paddr.c:97 mtrace_log] R: 0x80000e7c (len=4) data=0x0004a603[0m
[1;34m[src/memory/paddr.c:97 mtrace_log] R: 0x80003018 (len=4) data=0x00000000[0m
0x80000e7c: 00 04 a6 03 lw	a2, 0(s1)
[1;34m[src/memory/paddr.c:97 mtrace_log] R: 0x80000e80 (len=4) data=0x00060863[0m
0x80000e80: 00 06 08 63 beqz	a2, 0x10
[1;34m[src/memory/paddr.c:97 mtrace_log] R: 0x80000e90 (len=4) data=0x00140413[0m
0x80000e90: 00 14 04 13 addi	s0, s0, 1
[1;34m[src/memory/paddr.c:97 mtrace_log] R: 0x80000e94 (len=4) data=0x00448493[0m
0x80000e94: 00 44 84 93 addi	s1, s1, 4
[1;34m[src/memory/paddr.c:97 mtrace_log] R: 0x80000e98 (len=4) data=0xff2412e3[0m
0x80000e98: ff 24 12 e3 bne	s0, s2, -0x1c
[1;34m[src/memory/paddr.c:97 mtrace_log] R: 0x80000e7c (len=4) data=0x0004a603[0m
[1;34m[src/memory/paddr.c:97 mtrace_log] R: 0x8000301c (len=4) data=0x00000000[0m
0x80000e7c: 00 04 a6 03 lw	a2, 0(s1)
[1;34m[src/memory/paddr.c:97 mtrace_log] R: 0x80000e80 (len=4) data=0x00060863[0m
0x80000e80: 00 06 08 63 beqz	a2, 0x10
[1;34m[src/memory/paddr.c:97 mtrace_log] R: 0x80000e90 (len=4) data=0x00140413[0m
0x80000e90: 00 14 04 13 addi	s0, s0, 1
[1;34m[src/memory/paddr.c:97 mtrace_log] R: 0x80000e94 (len=4) data=0x00448493[0m
0x80000e94: 00 44 84 93 addi	s1, s1, 4
[1;34m[src/memory/paddr.c:97 mtrace_log] R: 0x80000e98 (len=4) data=0xff2412e3[0m
0x80000e98: ff 24 12 e3 bne	s0, s2, -0x1c
[1;34m[src/memory/paddr.c:97 mtrace_log] R: 0x80000e7c (len=4) data=0x0004a603[0m
[1;34m[src/memory/paddr.c:97 mtrace_log] R: 0x80003020 (len=4) data=0x00000000[0m
0x80000e7c: 00 04 a6 03 lw	a2, 0(s1)
[1;34m[src/memory/paddr.c:97 mtrace_log] R: 0x80000e80 (len=4) data=0x00060863[0m
0x80000e80: 00 06 08 63 beqz	a2, 0x10
[1;34m[src/memory/paddr.c:97 mtrace_log] R: 0x80000e90 (len=4) data=0x00140413[0m
0x80000e90: 00 14 04 13 addi	s0, s0, 1
[1;34m[src/memory/paddr.c:97 mtrace_log] R: 0x80000e94 (len=4) data=0x00448493[0m
0x80000e94: 00 44 84 93 addi	s1, s1, 4
[1;34m[src/memory/paddr.c:97 mtrace_log] R: 0x80000e98 (len=4) data=0xff2412e3[0m
0x80000e98: ff 24 12 e3 bne	s0, s2, -0x1c
[1;34m[src/memory/paddr.c:97 mtrace_log] R: 0x80000e7c (len=4) data=0x0004a603[0m
[1;34m[src/memory/paddr.c:97 mtrace_log] R: 0x80003024 (len=4) data=0x00000000[0m
0x80000e7c: 00 04 a6 03 lw	a2, 0(s1)
[1;34m[src/memory/paddr.c:97 mtrace_log] R: 0x80000e80 (len=4) data=0x00060863[0m
0x80000e80: 00 06 08 63 beqz	a2, 0x10
[1;34m[src/memory/paddr.c:97 mtrace_log] R: 0x80000e90 (len=4) data=0x00140413[0m
0x80000e90: 00 14 04 13 addi	s0, s0, 1
[1;34m[src/memory/paddr.c:97 mtrace_log] R: 0x80000e94 (len=4) data=0x00448493[0m
0x80000e94: 00 44 84 93 addi	s1, s1, 4
[1;34m[src/memory/paddr.c:97 mtrace_log] R: 0x80000e98 (len=4) data=0xff2412e3[0m
0x80000e98: ff 24 12 e3 bne	s0, s2, -0x1c
[1;34m[src/memory/paddr.c:97 mtrace_log] R: 0x80000e7c (len=4) data=0x0004a603[0m
[1;34m[src/memory/paddr.c:97 mtrace_log] R: 0x80003028 (len=4) data=0x00000000[0m
0x80000e7c: 00 04 a6 03 lw	a2, 0(s1)
[1;34m[src/memory/paddr.c:97 mtrace_log] R: 0x80000e80 (len=4) data=0x00060863[0m
0x80000e80: 00 06 08 63 beqz	a2, 0x10
[1;34m[src/memory/paddr.c:97 mtrace_log] R: 0x80000e90 (len=4) data=0x00140413[0m
0x80000e90: 00 14 04 13 addi	s0, s0, 1
[1;34m[src/memory/paddr.c:97 mtrace_log] R: 0x80000e94 (len=4) data=0x00448493[0m
0x80000e94: 00 44 84 93 addi	s1, s1, 4
[1;34m[src/memory/paddr.c:97 mtrace_log] R: 0x80000e98 (len=4) data=0xff2412e3[0m
0x80000e98: ff 24 12 e3 bne	s0, s2, -0x1c
[1;34m[src/memory/paddr.c:97 mtrace_log] R: 0x80000e7c (len=4) data=0x0004a603[0m
[1;34m[src/memory/paddr.c:97 mtrace_log] R: 0x8000302c (len=4) data=0x00000000[0m
0x80000e7c: 00 04 a6 03 lw	a2, 0(s1)
[1;34m[src/memory/paddr.c:97 mtrace_log] R: 0x80000e80 (len=4) data=0x00060863[0m
0x80000e80: 00 06 08 63 beqz	a2, 0x10
[1;34m[src/memory/paddr.c:97 mtrace_log] R: 0x80000e90 (len=4) data=0x00140413[0m
0x80000e90: 00 14 04 13 addi	s0, s0, 1
[1;34m[src/memory/paddr.c:97 mtrace_log] R: 0x80000e94 (len=4) data=0x00448493[0m
0x80000e94: 00 44 84 93 addi	s1, s1, 4
[1;34m[src/memory/paddr.c:97 mtrace_log] R: 0x80000e98 (len=4) data=0xff2412e3[0m
0x80000e98: ff 24 12 e3 bne	s0, s2, -0x1c
[1;34m[src/memory/paddr.c:97 mtrace_log] R: 0x80000e7c (len=4) data=0x0004a603[0m
[1;34m[src/memory/paddr.c:97 mtrace_log] R: 0x80003030 (len=4) data=0x00000000[0m
0x80000e7c: 00 04 a6 03 lw	a2, 0(s1)
[1;34m[src/memory/paddr.c:97 mtrace_log] R: 0x80000e80 (len=4) data=0x00060863[0m
0x80000e80: 00 06 08 63 beqz	a2, 0x10
[1;34m[src/memory/paddr.c:97 mtrace_log] R: 0x80000e90 (len=4) data=0x00140413[0m
0x80000e90: 00 14 04 13 addi	s0, s0, 1
[1;34m[src/memory/paddr.c:97 mtrace_log] R: 0x80000e94 (len=4) data=0x00448493[0m
0x80000e94: 00 44 84 93 addi	s1, s1, 4
[1;34m[src/memory/paddr.c:97 mtrace_log] R: 0x80000e98 (len=4) data=0xff2412e3[0m
0x80000e98: ff 24 12 e3 bne	s0, s2, -0x1c
[1;34m[src/memory/paddr.c:97 mtrace_log] R: 0x80000e7c (len=4) data=0x0004a603[0m
[1;34m[src/memory/paddr.c:97 mtrace_log] R: 0x80003034 (len=4) data=0x00000000[0m
0x80000e7c: 00 04 a6 03 lw	a2, 0(s1)
[1;34m[src/memory/paddr.c:97 mtrace_log] R: 0x80000e80 (len=4) data=0x00060863[0m
0x80000e80: 00 06 08 63 beqz	a2, 0x10
[1;34m[src/memory/paddr.c:97 mtrace_log] R: 0x80000e90 (len=4) data=0x00140413[0m
0x80000e90: 00 14 04 13 addi	s0, s0, 1
[1;34m[src/memory/paddr.c:97 mtrace_log] R: 0x80000e94 (len=4) data=0x00448493[0m
0x80000e94: 00 44 84 93 addi	s1, s1, 4
[1;34m[src/memory/paddr.c:97 mtrace_log] R: 0x80000e98 (len=4) data=0xff2412e3[0m
0x80000e98: ff 24 12 e3 bne	s0, s2, -0x1c
[1;34m[src/memory/paddr.c:97 mtrace_log] R: 0x80000e7c (len=4) data=0x0004a603[0m
[1;34m[src/memory/paddr.c:97 mtrace_log] R: 0x80003038 (len=4) data=0x00000000[0m
0x80000e7c: 00 04 a6 03 lw	a2, 0(s1)
[1;34m[src/memory/paddr.c:97 mtrace_log] R: 0x80000e80 (len=4) data=0x00060863[0m
0x80000e80: 00 06 08 63 beqz	a2, 0x10
[1;34m[src/memory/paddr.c:97 mtrace_log] R: 0x80000e90 (len=4) data=0x00140413[0m
0x80000e90: 00 14 04 13 addi	s0, s0, 1
[1;34m[src/memory/paddr.c:97 mtrace_log] R: 0x80000e94 (len=4) data=0x00448493[0m
0x80000e94: 00 44 84 93 addi	s1, s1, 4
[1;34m[src/memory/paddr.c:97 mtrace_log] R: 0x80000e98 (len=4) data=0xff2412e3[0m
0x80000e98: ff 24 12 e3 bne	s0, s2, -0x1c
[1;34m[src/memory/paddr.c:97 mtrace_log] R: 0x80000e7c (len=4) data=0x0004a603[0m
[1;34m[src/memory/paddr.c:97 mtrace_log] R: 0x8000303c (len=4) data=0x00000000[0m
0x80000e7c: 00 04 a6 03 lw	a2, 0(s1)
[1;34m[src/memory/paddr.c:97 mtrace_log] R: 0x80000e80 (len=4) data=0x00060863[0m
0x80000e80: 00 06 08 63 beqz	a2, 0x10
[1;34m[src/memory/paddr.c:97 mtrace_log] R: 0x80000e90 (len=4) data=0x00140413[0m
0x80000e90: 00 14 04 13 addi	s0, s0, 1
[1;34m[src/memory/paddr.c:97 mtrace_log] R: 0x80000e94 (len=4) data=0x00448493[0m
0x80000e94: 00 44 84 93 addi	s1, s1, 4
[1;34m[src/memory/paddr.c:97 mtrace_log] R: 0x80000e98 (len=4) data=0xff2412e3[0m
0x80000e98: ff 24 12 e3 bne	s0, s2, -0x1c
[1;34m[src/memory/paddr.c:97 mtrace_log] R: 0x80000e7c (len=4) data=0x0004a603[0m
[1;34m[src/memory/paddr.c:97 mtrace_log] R: 0x80003040 (len=4) data=0x00000000[0m
0x80000e7c: 00 04 a6 03 lw	a2, 0(s1)
[1;34m[src/memory/paddr.c:97 mtrace_log] R: 0x80000e80 (len=4) data=0x00060863[0m
0x80000e80: 00 06 08 63 beqz	a2, 0x10
[1;34m[src/memory/paddr.c:97 mtrace_log] R: 0x80000e90 (len=4) data=0x00140413[0m
0x80000e90: 00 14 04 13 addi	s0, s0, 1
[1;34m[src/memory/paddr.c:97 mtrace_log] R: 0x80000e94 (len=4) data=0x00448493[0m
0x80000e94: 00 44 84 93 addi	s1, s1, 4
[1;34m[src/memory/paddr.c:97 mtrace_log] R: 0x80000e98 (len=4) data=0xff2412e3[0m
0x80000e98: ff 24 12 e3 bne	s0, s2, -0x1c
[1;34m[src/memory/paddr.c:97 mtrace_log] R: 0x80000e7c (len=4) data=0x0004a603[0m
[1;34m[src/memory/paddr.c:97 mtrace_log] R: 0x80003044 (len=4) data=0x00000000[0m
0x80000e7c: 00 04 a6 03 lw	a2, 0(s1)
[1;34m[src/memory/paddr.c:97 mtrace_log] R: 0x80000e80 (len=4) data=0x00060863[0m
0x80000e80: 00 06 08 63 beqz	a2, 0x10
[1;34m[src/memory/paddr.c:97 mtrace_log] R: 0x80000e90 (len=4) data=0x00140413[0m
0x80000e90: 00 14 04 13 addi	s0, s0, 1
[1;34m[src/memory/paddr.c:97 mtrace_log] R: 0x80000e94 (len=4) data=0x00448493[0m
0x80000e94: 00 44 84 93 addi	s1, s1, 4
[1;34m[src/memory/paddr.c:97 mtrace_log] R: 0x80000e98 (len=4) data=0xff2412e3[0m
0x80000e98: ff 24 12 e3 bne	s0, s2, -0x1c
[1;34m[src/memory/paddr.c:97 mtrace_log] R: 0x80000e7c (len=4) data=0x0004a603[0m
[1;34m[src/memory/paddr.c:97 mtrace_log] R: 0x80003048 (len=4) data=0x00000000[0m
0x80000e7c: 00 04 a6 03 lw	a2, 0(s1)
[1;34m[src/memory/paddr.c:97 mtrace_log] R: 0x80000e80 (len=4) data=0x00060863[0m
0x80000e80: 00 06 08 63 beqz	a2, 0x10
[1;34m[src/memory/paddr.c:97 mtrace_log] R: 0x80000e90 (len=4) data=0x00140413[0m
0x80000e90: 00 14 04 13 addi	s0, s0, 1
[1;34m[src/memory/paddr.c:97 mtrace_log] R: 0x80000e94 (len=4) data=0x00448493[0m
0x80000e94: 00 44 84 93 addi	s1, s1, 4
[1;34m[src/memory/paddr.c:97 mtrace_log] R: 0x80000e98 (len=4) data=0xff2412e3[0m
0x80000e98: ff 24 12 e3 bne	s0, s2, -0x1c
[1;34m[src/memory/paddr.c:97 mtrace_log] R: 0x80000e7c (len=4) data=0x0004a603[0m
[1;34m[src/memory/paddr.c:97 mtrace_log] R: 0x8000304c (len=4) data=0x00000000[0m
0x80000e7c: 00 04 a6 03 lw	a2, 0(s1)
[1;34m[src/memory/paddr.c:97 mtrace_log] R: 0x80000e80 (len=4) data=0x00060863[0m
0x80000e80: 00 06 08 63 beqz	a2, 0x10
[1;34m[src/memory/paddr.c:97 mtrace_log] R: 0x80000e90 (len=4) data=0x00140413[0m
0x80000e90: 00 14 04 13 addi	s0, s0, 1
[1;34m[src/memory/paddr.c:97 mtrace_log] R: 0x80000e94 (len=4) data=0x00448493[0m
0x80000e94: 00 44 84 93 addi	s1, s1, 4
[1;34m[src/memory/paddr.c:97 mtrace_log] R: 0x80000e98 (len=4) data=0xff2412e3[0m
0x80000e98: ff 24 12 e3 bne	s0, s2, -0x1c
[1;34m[src/memory/paddr.c:97 mtrace_log] R: 0x80000e7c (len=4) data=0x0004a603[0m
[1;34m[src/memory/paddr.c:97 mtrace_log] R: 0x80003050 (len=4) data=0x00000000[0m
0x80000e7c: 00 04 a6 03 lw	a2, 0(s1)
[1;34m[src/memory/paddr.c:97 mtrace_log] R: 0x80000e80 (len=4) data=0x00060863[0m
0x80000e80: 00 06 08 63 beqz	a2, 0x10
[1;34m[src/memory/paddr.c:97 mtrace_log] R: 0x80000e90 (len=4) data=0x00140413[0m
0x80000e90: 00 14 04 13 addi	s0, s0, 1
[1;34m[src/memory/paddr.c:97 mtrace_log] R: 0x80000e94 (len=4) data=0x00448493[0m
0x80000e94: 00 44 84 93 addi	s1, s1, 4
[1;34m[src/memory/paddr.c:97 mtrace_log] R: 0x80000e98 (len=4) data=0xff2412e3[0m
0x80000e98: ff 24 12 e3 bne	s0, s2, -0x1c
[1;34m[src/memory/paddr.c:97 mtrace_log] R: 0x80000e7c (len=4) data=0x0004a603[0m
[1;34m[src/memory/paddr.c:97 mtrace_log] R: 0x80003054 (len=4) data=0x00000000[0m
0x80000e7c: 00 04 a6 03 lw	a2, 0(s1)
[1;34m[src/memory/paddr.c:97 mtrace_log] R: 0x80000e80 (len=4) data=0x00060863[0m
0x80000e80: 00 06 08 63 beqz	a2, 0x10
[1;34m[src/memory/paddr.c:97 mtrace_log] R: 0x80000e90 (len=4) data=0x00140413[0m
0x80000e90: 00 14 04 13 addi	s0, s0, 1
[1;34m[src/memory/paddr.c:97 mtrace_log] R: 0x80000e94 (len=4) data=0x00448493[0m
0x80000e94: 00 44 84 93 addi	s1, s1, 4
[1;34m[src/memory/paddr.c:97 mtrace_log] R: 0x80000e98 (len=4) data=0xff2412e3[0m
0x80000e98: ff 24 12 e3 bne	s0, s2, -0x1c
[1;34m[src/memory/paddr.c:97 mtrace_log] R: 0x80000e7c (len=4) data=0x0004a603[0m
[1;34m[src/memory/paddr.c:97 mtrace_log] R: 0x80003058 (len=4) data=0x00000000[0m
0x80000e7c: 00 04 a6 03 lw	a2, 0(s1)
[1;34m[src/memory/paddr.c:97 mtrace_log] R: 0x80000e80 (len=4) data=0x00060863[0m
0x80000e80: 00 06 08 63 beqz	a2, 0x10
[1;34m[src/memory/paddr.c:97 mtrace_log] R: 0x80000e90 (len=4) data=0x00140413[0m
0x80000e90: 00 14 04 13 addi	s0, s0, 1
[1;34m[src/memory/paddr.c:97 mtrace_log] R: 0x80000e94 (len=4) data=0x00448493[0m
0x80000e94: 00 44 84 93 addi	s1, s1, 4
[1;34m[src/memory/paddr.c:97 mtrace_log] R: 0x80000e98 (len=4) data=0xff2412e3[0m
0x80000e98: ff 24 12 e3 bne	s0, s2, -0x1c
[1;34m[src/memory/paddr.c:97 mtrace_log] R: 0x80000e7c (len=4) data=0x0004a603[0m
[1;34m[src/memory/paddr.c:97 mtrace_log] R: 0x8000305c (len=4) data=0x00000000[0m
0x80000e7c: 00 04 a6 03 lw	a2, 0(s1)
[1;34m[src/memory/paddr.c:97 mtrace_log] R: 0x80000e80 (len=4) data=0x00060863[0m
0x80000e80: 00 06 08 63 beqz	a2, 0x10
[1;34m[src/memory/paddr.c:97 mtrace_log] R: 0x80000e90 (len=4) data=0x00140413[0m
0x80000e90: 00 14 04 13 addi	s0, s0, 1
[1;34m[src/memory/paddr.c:97 mtrace_log] R: 0x80000e94 (len=4) data=0x00448493[0m
0x80000e94: 00 44 84 93 addi	s1, s1, 4
[1;34m[src/memory/paddr.c:97 mtrace_log] R: 0x80000e98 (len=4) data=0xff2412e3[0m
0x80000e98: ff 24 12 e3 bne	s0, s2, -0x1c
[1;34m[src/memory/paddr.c:97 mtrace_log] R: 0x80000e7c (len=4) data=0x0004a603[0m
[1;34m[src/memory/paddr.c:97 mtrace_log] R: 0x80003060 (len=4) data=0x00000000[0m
0x80000e7c: 00 04 a6 03 lw	a2, 0(s1)
[1;34m[src/memory/paddr.c:97 mtrace_log] R: 0x80000e80 (len=4) data=0x00060863[0m
0x80000e80: 00 06 08 63 beqz	a2, 0x10
[1;34m[src/memory/paddr.c:97 mtrace_log] R: 0x80000e90 (len=4) data=0x00140413[0m
0x80000e90: 00 14 04 13 addi	s0, s0, 1
[1;34m[src/memory/paddr.c:97 mtrace_log] R: 0x80000e94 (len=4) data=0x00448493[0m
0x80000e94: 00 44 84 93 addi	s1, s1, 4
[1;34m[src/memory/paddr.c:97 mtrace_log] R: 0x80000e98 (len=4) data=0xff2412e3[0m
0x80000e98: ff 24 12 e3 bne	s0, s2, -0x1c
[1;34m[src/memory/paddr.c:97 mtrace_log] R: 0x80000e7c (len=4) data=0x0004a603[0m
[1;34m[src/memory/paddr.c:97 mtrace_log] R: 0x80003064 (len=4) data=0x00000000[0m
0x80000e7c: 00 04 a6 03 lw	a2, 0(s1)
[1;34m[src/memory/paddr.c:97 mtrace_log] R: 0x80000e80 (len=4) data=0x00060863[0m
0x80000e80: 00 06 08 63 beqz	a2, 0x10
[1;34m[src/memory/paddr.c:97 mtrace_log] R: 0x80000e90 (len=4) data=0x00140413[0m
0x80000e90: 00 14 04 13 addi	s0, s0, 1
[1;34m[src/memory/paddr.c:97 mtrace_log] R: 0x80000e94 (len=4) data=0x00448493[0m
0x80000e94: 00 44 84 93 addi	s1, s1, 4
[1;34m[src/memory/paddr.c:97 mtrace_log] R: 0x80000e98 (len=4) data=0xff2412e3[0m
0x80000e98: ff 24 12 e3 bne	s0, s2, -0x1c
[1;34m[src/memory/paddr.c:97 mtrace_log] R: 0x80000e7c (len=4) data=0x0004a603[0m
[1;34m[src/memory/paddr.c:97 mtrace_log] R: 0x80003068 (len=4) data=0x00000000[0m
0x80000e7c: 00 04 a6 03 lw	a2, 0(s1)
[1;34m[src/memory/paddr.c:97 mtrace_log] R: 0x80000e80 (len=4) data=0x00060863[0m
0x80000e80: 00 06 08 63 beqz	a2, 0x10
[1;34m[src/memory/paddr.c:97 mtrace_log] R: 0x80000e90 (len=4) data=0x00140413[0m
0x80000e90: 00 14 04 13 addi	s0, s0, 1
[1;34m[src/memory/paddr.c:97 mtrace_log] R: 0x80000e94 (len=4) data=0x00448493[0m
0x80000e94: 00 44 84 93 addi	s1, s1, 4
[1;34m[src/memory/paddr.c:97 mtrace_log] R: 0x80000e98 (len=4) data=0xff2412e3[0m
0x80000e98: ff 24 12 e3 bne	s0, s2, -0x1c
[1;34m[src/memory/paddr.c:97 mtrace_log] R: 0x80000e7c (len=4) data=0x0004a603[0m
[1;34m[src/memory/paddr.c:97 mtrace_log] R: 0x8000306c (len=4) data=0x00000000[0m
0x80000e7c: 00 04 a6 03 lw	a2, 0(s1)
[1;34m[src/memory/paddr.c:97 mtrace_log] R: 0x80000e80 (len=4) data=0x00060863[0m
0x80000e80: 00 06 08 63 beqz	a2, 0x10
[1;34m[src/memory/paddr.c:97 mtrace_log] R: 0x80000e90 (len=4) data=0x00140413[0m
0x80000e90: 00 14 04 13 addi	s0, s0, 1
[1;34m[src/memory/paddr.c:97 mtrace_log] R: 0x80000e94 (len=4) data=0x00448493[0m
0x80000e94: 00 44 84 93 addi	s1, s1, 4
[1;34m[src/memory/paddr.c:97 mtrace_log] R: 0x80000e98 (len=4) data=0xff2412e3[0m
0x80000e98: ff 24 12 e3 bne	s0, s2, -0x1c
[1;34m[src/memory/paddr.c:97 mtrace_log] R: 0x80000e7c (len=4) data=0x0004a603[0m
[1;34m[src/memory/paddr.c:97 mtrace_log] R: 0x80003070 (len=4) data=0x00000000[0m
0x80000e7c: 00 04 a6 03 lw	a2, 0(s1)
[1;34m[src/memory/paddr.c:97 mtrace_log] R: 0x80000e80 (len=4) data=0x00060863[0m
0x80000e80: 00 06 08 63 beqz	a2, 0x10
[1;34m[src/memory/paddr.c:97 mtrace_log] R: 0x80000e90 (len=4) data=0x00140413[0m
0x80000e90: 00 14 04 13 addi	s0, s0, 1
[1;34m[src/memory/paddr.c:97 mtrace_log] R: 0x80000e94 (len=4) data=0x00448493[0m
0x80000e94: 00 44 84 93 addi	s1, s1, 4
[1;34m[src/memory/paddr.c:97 mtrace_log] R: 0x80000e98 (len=4) data=0xff2412e3[0m
0x80000e98: ff 24 12 e3 bne	s0, s2, -0x1c
[1;34m[src/memory/paddr.c:97 mtrace_log] R: 0x80000e7c (len=4) data=0x0004a603[0m
[1;34m[src/memory/paddr.c:97 mtrace_log] R: 0x80003074 (len=4) data=0x00000000[0m
0x80000e7c: 00 04 a6 03 lw	a2, 0(s1)
[1;34m[src/memory/paddr.c:97 mtrace_log] R: 0x80000e80 (len=4) data=0x00060863[0m
0x80000e80: 00 06 08 63 beqz	a2, 0x10
[1;34m[src/memory/paddr.c:97 mtrace_log] R: 0x80000e90 (len=4) data=0x00140413[0m
0x80000e90: 00 14 04 13 addi	s0, s0, 1
[1;34m[src/memory/paddr.c:97 mtrace_log] R: 0x80000e94 (len=4) data=0x00448493[0m
0x80000e94: 00 44 84 93 addi	s1, s1, 4
[1;34m[src/memory/paddr.c:97 mtrace_log] R: 0x80000e98 (len=4) data=0xff2412e3[0m
0x80000e98: ff 24 12 e3 bne	s0, s2, -0x1c
[1;34m[src/memory/paddr.c:97 mtrace_log] R: 0x80000e7c (len=4) data=0x0004a603[0m
[1;34m[src/memory/paddr.c:97 mtrace_log] R: 0x80003078 (len=4) data=0x00000000[0m
0x80000e7c: 00 04 a6 03 lw	a2, 0(s1)
[1;34m[src/memory/paddr.c:97 mtrace_log] R: 0x80000e80 (len=4) data=0x00060863[0m
0x80000e80: 00 06 08 63 beqz	a2, 0x10
[1;34m[src/memory/paddr.c:97 mtrace_log] R: 0x80000e90 (len=4) data=0x00140413[0m
0x80000e90: 00 14 04 13 addi	s0, s0, 1
[1;34m[src/memory/paddr.c:97 mtrace_log] R: 0x80000e94 (len=4) data=0x00448493[0m
0x80000e94: 00 44 84 93 addi	s1, s1, 4
[1;34m[src/memory/paddr.c:97 mtrace_log] R: 0x80000e98 (len=4) data=0xff2412e3[0m
0x80000e98: ff 24 12 e3 bne	s0, s2, -0x1c
[1;34m[src/memory/paddr.c:97 mtrace_log] R: 0x80000e7c (len=4) data=0x0004a603[0m
[1;34m[src/memory/paddr.c:97 mtrace_log] R: 0x8000307c (len=4) data=0x00000000[0m
0x80000e7c: 00 04 a6 03 lw	a2, 0(s1)
[1;34m[src/memory/paddr.c:97 mtrace_log] R: 0x80000e80 (len=4) data=0x00060863[0m
0x80000e80: 00 06 08 63 beqz	a2, 0x10
[1;34m[src/memory/paddr.c:97 mtrace_log] R: 0x80000e90 (len=4) data=0x00140413[0m
0x80000e90: 00 14 04 13 addi	s0, s0, 1
[1;34m[src/memory/paddr.c:97 mtrace_log] R: 0x80000e94 (len=4) data=0x00448493[0m
0x80000e94: 00 44 84 93 addi	s1, s1, 4
[1;34m[src/memory/paddr.c:97 mtrace_log] R: 0x80000e98 (len=4) data=0xff2412e3[0m
0x80000e98: ff 24 12 e3 bne	s0, s2, -0x1c
[1;34m[src/memory/paddr.c:97 mtrace_log] R: 0x80000e7c (len=4) data=0x0004a603[0m
[1;34m[src/memory/paddr.c:97 mtrace_log] R: 0x80003080 (len=4) data=0x00000000[0m
0x80000e7c: 00 04 a6 03 lw	a2, 0(s1)
[1;34m[src/memory/paddr.c:97 mtrace_log] R: 0x80000e80 (len=4) data=0x00060863[0m
0x80000e80: 00 06 08 63 beqz	a2, 0x10
[1;34m[src/memory/paddr.c:97 mtrace_log] R: 0x80000e90 (len=4) data=0x00140413[0m
0x80000e90: 00 14 04 13 addi	s0, s0, 1
[1;34m[src/memory/paddr.c:97 mtrace_log] R: 0x80000e94 (len=4) data=0x00448493[0m
0x80000e94: 00 44 84 93 addi	s1, s1, 4
[1;34m[src/memory/paddr.c:97 mtrace_log] R: 0x80000e98 (len=4) data=0xff2412e3[0m
0x80000e98: ff 24 12 e3 bne	s0, s2, -0x1c
[1;34m[src/memory/paddr.c:97 mtrace_log] R: 0x80000e7c (len=4) data=0x0004a603[0m
[1;34m[src/memory/paddr.c:97 mtrace_log] R: 0x80003084 (len=4) data=0x00000000[0m
0x80000e7c: 00 04 a6 03 lw	a2, 0(s1)
[1;34m[src/memory/paddr.c:97 mtrace_log] R: 0x80000e80 (len=4) data=0x00060863[0m
0x80000e80: 00 06 08 63 beqz	a2, 0x10
[1;34m[src/memory/paddr.c:97 mtrace_log] R: 0x80000e90 (len=4) data=0x00140413[0m
0x80000e90: 00 14 04 13 addi	s0, s0, 1
[1;34m[src/memory/paddr.c:97 mtrace_log] R: 0x80000e94 (len=4) data=0x00448493[0m
0x80000e94: 00 44 84 93 addi	s1, s1, 4
[1;34m[src/memory/paddr.c:97 mtrace_log] R: 0x80000e98 (len=4) data=0xff2412e3[0m
0x80000e98: ff 24 12 e3 bne	s0, s2, -0x1c
[1;34m[src/memory/paddr.c:97 mtrace_log] R: 0x80000e7c (len=4) data=0x0004a603[0m
[1;34m[src/memory/paddr.c:97 mtrace_log] R: 0x80003088 (len=4) data=0x00000000[0m
0x80000e7c: 00 04 a6 03 lw	a2, 0(s1)
[1;34m[src/memory/paddr.c:97 mtrace_log] R: 0x80000e80 (len=4) data=0x00060863[0m
0x80000e80: 00 06 08 63 beqz	a2, 0x10
[1;34m[src/memory/paddr.c:97 mtrace_log] R: 0x80000e90 (len=4) data=0x00140413[0m
0x80000e90: 00 14 04 13 addi	s0, s0, 1
[1;34m[src/memory/paddr.c:97 mtrace_log] R: 0x80000e94 (len=4) data=0x00448493[0m
0x80000e94: 00 44 84 93 addi	s1, s1, 4
[1;34m[src/memory/paddr.c:97 mtrace_log] R: 0x80000e98 (len=4) data=0xff2412e3[0m
0x80000e98: ff 24 12 e3 bne	s0, s2, -0x1c
[1;34m[src/memory/paddr.c:97 mtrace_log] R: 0x80000e7c (len=4) data=0x0004a603[0m
[1;34m[src/memory/paddr.c:97 mtrace_log] R: 0x8000308c (len=4) data=0x00000000[0m
0x80000e7c: 00 04 a6 03 lw	a2, 0(s1)
[1;34m[src/memory/paddr.c:97 mtrace_log] R: 0x80000e80 (len=4) data=0x00060863[0m
0x80000e80: 00 06 08 63 beqz	a2, 0x10
[1;34m[src/memory/paddr.c:97 mtrace_log] R: 0x80000e90 (len=4) data=0x00140413[0m
0x80000e90: 00 14 04 13 addi	s0, s0, 1
[1;34m[src/memory/paddr.c:97 mtrace_log] R: 0x80000e94 (len=4) data=0x00448493[0m
0x80000e94: 00 44 84 93 addi	s1, s1, 4
[1;34m[src/memory/paddr.c:97 mtrace_log] R: 0x80000e98 (len=4) data=0xff2412e3[0m
0x80000e98: ff 24 12 e3 bne	s0, s2, -0x1c
[1;34m[src/memory/paddr.c:97 mtrace_log] R: 0x80000e7c (len=4) data=0x0004a603[0m
[1;34m[src/memory/paddr.c:97 mtrace_log] R: 0x80003090 (len=4) data=0x00000000[0m
0x80000e7c: 00 04 a6 03 lw	a2, 0(s1)
[1;34m[src/memory/paddr.c:97 mtrace_log] R: 0x80000e80 (len=4) data=0x00060863[0m
0x80000e80: 00 06 08 63 beqz	a2, 0x10
[1;34m[src/memory/paddr.c:97 mtrace_log] R: 0x80000e90 (len=4) data=0x00140413[0m
0x80000e90: 00 14 04 13 addi	s0, s0, 1
[1;34m[src/memory/paddr.c:97 mtrace_log] R: 0x80000e94 (len=4) data=0x00448493[0m
0x80000e94: 00 44 84 93 addi	s1, s1, 4
[1;34m[src/memory/paddr.c:97 mtrace_log] R: 0x80000e98 (len=4) data=0xff2412e3[0m
0x80000e98: ff 24 12 e3 bne	s0, s2, -0x1c
[1;34m[src/memory/paddr.c:97 mtrace_log] R: 0x80000e7c (len=4) data=0x0004a603[0m
[1;34m[src/memory/paddr.c:97 mtrace_log] R: 0x80003094 (len=4) data=0x00000000[0m
0x80000e7c: 00 04 a6 03 lw	a2, 0(s1)
[1;34m[src/memory/paddr.c:97 mtrace_log] R: 0x80000e80 (len=4) data=0x00060863[0m
0x80000e80: 00 06 08 63 beqz	a2, 0x10
[1;34m[src/memory/paddr.c:97 mtrace_log] R: 0x80000e90 (len=4) data=0x00140413[0m
0x80000e90: 00 14 04 13 addi	s0, s0, 1
[1;34m[src/memory/paddr.c:97 mtrace_log] R: 0x80000e94 (len=4) data=0x00448493[0m
0x80000e94: 00 44 84 93 addi	s1, s1, 4
[1;34m[src/memory/paddr.c:97 mtrace_log] R: 0x80000e98 (len=4) data=0xff2412e3[0m
0x80000e98: ff 24 12 e3 bne	s0, s2, -0x1c
[1;34m[src/memory/paddr.c:97 mtrace_log] R: 0x80000e7c (len=4) data=0x0004a603[0m
[1;34m[src/memory/paddr.c:97 mtrace_log] R: 0x80003098 (len=4) data=0x00000000[0m
0x80000e7c: 00 04 a6 03 lw	a2, 0(s1)
[1;34m[src/memory/paddr.c:97 mtrace_log] R: 0x80000e80 (len=4) data=0x00060863[0m
0x80000e80: 00 06 08 63 beqz	a2, 0x10
[1;34m[src/memory/paddr.c:97 mtrace_log] R: 0x80000e90 (len=4) data=0x00140413[0m
0x80000e90: 00 14 04 13 addi	s0, s0, 1
[1;34m[src/memory/paddr.c:97 mtrace_log] R: 0x80000e94 (len=4) data=0x00448493[0m
0x80000e94: 00 44 84 93 addi	s1, s1, 4
[1;34m[src/memory/paddr.c:97 mtrace_log] R: 0x80000e98 (len=4) data=0xff2412e3[0m
0x80000e98: ff 24 12 e3 bne	s0, s2, -0x1c
[1;34m[src/memory/paddr.c:97 mtrace_log] R: 0x80000e7c (len=4) data=0x0004a603[0m
[1;34m[src/memory/paddr.c:97 mtrace_log] R: 0x8000309c (len=4) data=0x00000000[0m
0x80000e7c: 00 04 a6 03 lw	a2, 0(s1)
[1;34m[src/memory/paddr.c:97 mtrace_log] R: 0x80000e80 (len=4) data=0x00060863[0m
0x80000e80: 00 06 08 63 beqz	a2, 0x10
[1;34m[src/memory/paddr.c:97 mtrace_log] R: 0x80000e90 (len=4) data=0x00140413[0m
0x80000e90: 00 14 04 13 addi	s0, s0, 1
[1;34m[src/memory/paddr.c:97 mtrace_log] R: 0x80000e94 (len=4) data=0x00448493[0m
0x80000e94: 00 44 84 93 addi	s1, s1, 4
[1;34m[src/memory/paddr.c:97 mtrace_log] R: 0x80000e98 (len=4) data=0xff2412e3[0m
0x80000e98: ff 24 12 e3 bne	s0, s2, -0x1c
[1;34m[src/memory/paddr.c:97 mtrace_log] R: 0x80000e7c (len=4) data=0x0004a603[0m
[1;34m[src/memory/paddr.c:97 mtrace_log] R: 0x800030a0 (len=4) data=0x00000000[0m
0x80000e7c: 00 04 a6 03 lw	a2, 0(s1)
[1;34m[src/memory/paddr.c:97 mtrace_log] R: 0x80000e80 (len=4) data=0x00060863[0m
0x80000e80: 00 06 08 63 beqz	a2, 0x10
[1;34m[src/memory/paddr.c:97 mtrace_log] R: 0x80000e90 (len=4) data=0x00140413[0m
0x80000e90: 00 14 04 13 addi	s0, s0, 1
[1;34m[src/memory/paddr.c:97 mtrace_log] R: 0x80000e94 (len=4) data=0x00448493[0m
0x80000e94: 00 44 84 93 addi	s1, s1, 4
[1;34m[src/memory/paddr.c:97 mtrace_log] R: 0x80000e98 (len=4) data=0xff2412e3[0m
0x80000e98: ff 24 12 e3 bne	s0, s2, -0x1c
[1;34m[src/memory/paddr.c:97 mtrace_log] R: 0x80000e7c (len=4) data=0x0004a603[0m
[1;34m[src/memory/paddr.c:97 mtrace_log] R: 0x800030a4 (len=4) data=0x00000000[0m
0x80000e7c: 00 04 a6 03 lw	a2, 0(s1)
[1;34m[src/memory/paddr.c:97 mtrace_log] R: 0x80000e80 (len=4) data=0x00060863[0m
0x80000e80: 00 06 08 63 beqz	a2, 0x10
[1;34m[src/memory/paddr.c:97 mtrace_log] R: 0x80000e90 (len=4) data=0x00140413[0m
0x80000e90: 00 14 04 13 addi	s0, s0, 1
[1;34m[src/memory/paddr.c:97 mtrace_log] R: 0x80000e94 (len=4) data=0x00448493[0m
0x80000e94: 00 44 84 93 addi	s1, s1, 4
[1;34m[src/memory/paddr.c:97 mtrace_log] R: 0x80000e98 (len=4) data=0xff2412e3[0m
0x80000e98: ff 24 12 e3 bne	s0, s2, -0x1c
[1;34m[src/memory/paddr.c:97 mtrace_log] R: 0x80000e7c (len=4) data=0x0004a603[0m
[1;34m[src/memory/paddr.c:97 mtrace_log] R: 0x800030a8 (len=4) data=0x00000000[0m
0x80000e7c: 00 04 a6 03 lw	a2, 0(s1)
[1;34m[src/memory/paddr.c:97 mtrace_log] R: 0x80000e80 (len=4) data=0x00060863[0m
0x80000e80: 00 06 08 63 beqz	a2, 0x10
[1;34m[src/memory/paddr.c:97 mtrace_log] R: 0x80000e90 (len=4) data=0x00140413[0m
0x80000e90: 00 14 04 13 addi	s0, s0, 1
[1;34m[src/memory/paddr.c:97 mtrace_log] R: 0x80000e94 (len=4) data=0x00448493[0m
0x80000e94: 00 44 84 93 addi	s1, s1, 4
[1;34m[src/memory/paddr.c:97 mtrace_log] R: 0x80000e98 (len=4) data=0xff2412e3[0m
0x80000e98: ff 24 12 e3 bne	s0, s2, -0x1c
[1;34m[src/memory/paddr.c:97 mtrace_log] R: 0x80000e7c (len=4) data=0x0004a603[0m
[1;34m[src/memory/paddr.c:97 mtrace_log] R: 0x800030ac (len=4) data=0x00000000[0m
0x80000e7c: 00 04 a6 03 lw	a2, 0(s1)
[1;34m[src/memory/paddr.c:97 mtrace_log] R: 0x80000e80 (len=4) data=0x00060863[0m
0x80000e80: 00 06 08 63 beqz	a2, 0x10
[1;34m[src/memory/paddr.c:97 mtrace_log] R: 0x80000e90 (len=4) data=0x00140413[0m
0x80000e90: 00 14 04 13 addi	s0, s0, 1
[1;34m[src/memory/paddr.c:97 mtrace_log] R: 0x80000e94 (len=4) data=0x00448493[0m
0x80000e94: 00 44 84 93 addi	s1, s1, 4
[1;34m[src/memory/paddr.c:97 mtrace_log] R: 0x80000e98 (len=4) data=0xff2412e3[0m
0x80000e98: ff 24 12 e3 bne	s0, s2, -0x1c
[1;34m[src/memory/paddr.c:97 mtrace_log] R: 0x80000e7c (len=4) data=0x0004a603[0m
[1;34m[src/memory/paddr.c:97 mtrace_log] R: 0x800030b0 (len=4) data=0x00000000[0m
0x80000e7c: 00 04 a6 03 lw	a2, 0(s1)
[1;34m[src/memory/paddr.c:97 mtrace_log] R: 0x80000e80 (len=4) data=0x00060863[0m
0x80000e80: 00 06 08 63 beqz	a2, 0x10
[1;34m[src/memory/paddr.c:97 mtrace_log] R: 0x80000e90 (len=4) data=0x00140413[0m
0x80000e90: 00 14 04 13 addi	s0, s0, 1
[1;34m[src/memory/paddr.c:97 mtrace_log] R: 0x80000e94 (len=4) data=0x00448493[0m
0x80000e94: 00 44 84 93 addi	s1, s1, 4
[1;34m[src/memory/paddr.c:97 mtrace_log] R: 0x80000e98 (len=4) data=0xff2412e3[0m
0x80000e98: ff 24 12 e3 bne	s0, s2, -0x1c
[1;34m[src/memory/paddr.c:97 mtrace_log] R: 0x80000e7c (len=4) data=0x0004a603[0m
[1;34m[src/memory/paddr.c:97 mtrace_log] R: 0x800030b4 (len=4) data=0x00000000[0m
0x80000e7c: 00 04 a6 03 lw	a2, 0(s1)
[1;34m[src/memory/paddr.c:97 mtrace_log] R: 0x80000e80 (len=4) data=0x00060863[0m
0x80000e80: 00 06 08 63 beqz	a2, 0x10
[1;34m[src/memory/paddr.c:97 mtrace_log] R: 0x80000e90 (len=4) data=0x00140413[0m
0x80000e90: 00 14 04 13 addi	s0, s0, 1
[1;34m[src/memory/paddr.c:97 mtrace_log] R: 0x80000e94 (len=4) data=0x00448493[0m
0x80000e94: 00 44 84 93 addi	s1, s1, 4
[1;34m[src/memory/paddr.c:97 mtrace_log] R: 0x80000e98 (len=4) data=0xff2412e3[0m
0x80000e98: ff 24 12 e3 bne	s0, s2, -0x1c
[1;34m[src/memory/paddr.c:97 mtrace_log] R: 0x80000e7c (len=4) data=0x0004a603[0m
[1;34m[src/memory/paddr.c:97 mtrace_log] R: 0x800030b8 (len=4) data=0x00000000[0m
0x80000e7c: 00 04 a6 03 lw	a2, 0(s1)
[1;34m[src/memory/paddr.c:97 mtrace_log] R: 0x80000e80 (len=4) data=0x00060863[0m
0x80000e80: 00 06 08 63 beqz	a2, 0x10
[1;34m[src/memory/paddr.c:97 mtrace_log] R: 0x80000e90 (len=4) data=0x00140413[0m
0x80000e90: 00 14 04 13 addi	s0, s0, 1
[1;34m[src/memory/paddr.c:97 mtrace_log] R: 0x80000e94 (len=4) data=0x00448493[0m
0x80000e94: 00 44 84 93 addi	s1, s1, 4
[1;34m[src/memory/paddr.c:97 mtrace_log] R: 0x80000e98 (len=4) data=0xff2412e3[0m
0x80000e98: ff 24 12 e3 bne	s0, s2, -0x1c
[1;34m[src/memory/paddr.c:97 mtrace_log] R: 0x80000e7c (len=4) data=0x0004a603[0m
[1;34m[src/memory/paddr.c:97 mtrace_log] R: 0x800030bc (len=4) data=0x00000000[0m
0x80000e7c: 00 04 a6 03 lw	a2, 0(s1)
[1;34m[src/memory/paddr.c:97 mtrace_log] R: 0x80000e80 (len=4) data=0x00060863[0m
0x80000e80: 00 06 08 63 beqz	a2, 0x10
[1;34m[src/memory/paddr.c:97 mtrace_log] R: 0x80000e90 (len=4) data=0x00140413[0m
0x80000e90: 00 14 04 13 addi	s0, s0, 1
[1;34m[src/memory/paddr.c:97 mtrace_log] R: 0x80000e94 (len=4) data=0x00448493[0m
0x80000e94: 00 44 84 93 addi	s1, s1, 4
[1;34m[src/memory/paddr.c:97 mtrace_log] R: 0x80000e98 (len=4) data=0xff2412e3[0m
0x80000e98: ff 24 12 e3 bne	s0, s2, -0x1c
[1;34m[src/memory/paddr.c:97 mtrace_log] R: 0x80000e7c (len=4) data=0x0004a603[0m
[1;34m[src/memory/paddr.c:97 mtrace_log] R: 0x800030c0 (len=4) data=0x00000000[0m
0x80000e7c: 00 04 a6 03 lw	a2, 0(s1)
[1;34m[src/memory/paddr.c:97 mtrace_log] R: 0x80000e80 (len=4) data=0x00060863[0m
0x80000e80: 00 06 08 63 beqz	a2, 0x10
[1;34m[src/memory/paddr.c:97 mtrace_log] R: 0x80000e90 (len=4) data=0x00140413[0m
0x80000e90: 00 14 04 13 addi	s0, s0, 1
[1;34m[src/memory/paddr.c:97 mtrace_log] R: 0x80000e94 (len=4) data=0x00448493[0m
0x80000e94: 00 44 84 93 addi	s1, s1, 4
[1;34m[src/memory/paddr.c:97 mtrace_log] R: 0x80000e98 (len=4) data=0xff2412e3[0m
0x80000e98: ff 24 12 e3 bne	s0, s2, -0x1c
[1;34m[src/memory/paddr.c:97 mtrace_log] R: 0x80000e7c (len=4) data=0x0004a603[0m
[1;34m[src/memory/paddr.c:97 mtrace_log] R: 0x800030c4 (len=4) data=0x00000000[0m
0x80000e7c: 00 04 a6 03 lw	a2, 0(s1)
[1;34m[src/memory/paddr.c:97 mtrace_log] R: 0x80000e80 (len=4) data=0x00060863[0m
0x80000e80: 00 06 08 63 beqz	a2, 0x10
[1;34m[src/memory/paddr.c:97 mtrace_log] R: 0x80000e90 (len=4) data=0x00140413[0m
0x80000e90: 00 14 04 13 addi	s0, s0, 1
[1;34m[src/memory/paddr.c:97 mtrace_log] R: 0x80000e94 (len=4) data=0x00448493[0m
0x80000e94: 00 44 84 93 addi	s1, s1, 4
[1;34m[src/memory/paddr.c:97 mtrace_log] R: 0x80000e98 (len=4) data=0xff2412e3[0m
0x80000e98: ff 24 12 e3 bne	s0, s2, -0x1c
[1;34m[src/memory/paddr.c:97 mtrace_log] R: 0x80000e7c (len=4) data=0x0004a603[0m
[1;34m[src/memory/paddr.c:97 mtrace_log] R: 0x800030c8 (len=4) data=0x00000000[0m
0x80000e7c: 00 04 a6 03 lw	a2, 0(s1)
[1;34m[src/memory/paddr.c:97 mtrace_log] R: 0x80000e80 (len=4) data=0x00060863[0m
0x80000e80: 00 06 08 63 beqz	a2, 0x10
[1;34m[src/memory/paddr.c:97 mtrace_log] R: 0x80000e90 (len=4) data=0x00140413[0m
0x80000e90: 00 14 04 13 addi	s0, s0, 1
[1;34m[src/memory/paddr.c:97 mtrace_log] R: 0x80000e94 (len=4) data=0x00448493[0m
0x80000e94: 00 44 84 93 addi	s1, s1, 4
[1;34m[src/memory/paddr.c:97 mtrace_log] R: 0x80000e98 (len=4) data=0xff2412e3[0m
0x80000e98: ff 24 12 e3 bne	s0, s2, -0x1c
[1;34m[src/memory/paddr.c:97 mtrace_log] R: 0x80000e7c (len=4) data=0x0004a603[0m
[1;34m[src/memory/paddr.c:97 mtrace_log] R: 0x800030cc (len=4) data=0x00000000[0m
0x80000e7c: 00 04 a6 03 lw	a2, 0(s1)
[1;34m[src/memory/paddr.c:97 mtrace_log] R: 0x80000e80 (len=4) data=0x00060863[0m
0x80000e80: 00 06 08 63 beqz	a2, 0x10
[1;34m[src/memory/paddr.c:97 mtrace_log] R: 0x80000e90 (len=4) data=0x00140413[0m
0x80000e90: 00 14 04 13 addi	s0, s0, 1
[1;34m[src/memory/paddr.c:97 mtrace_log] R: 0x80000e94 (len=4) data=0x00448493[0m
0x80000e94: 00 44 84 93 addi	s1, s1, 4
[1;34m[src/memory/paddr.c:97 mtrace_log] R: 0x80000e98 (len=4) data=0xff2412e3[0m
0x80000e98: ff 24 12 e3 bne	s0, s2, -0x1c
[1;34m[src/memory/paddr.c:97 mtrace_log] R: 0x80000e7c (len=4) data=0x0004a603[0m
[1;34m[src/memory/paddr.c:97 mtrace_log] R: 0x800030d0 (len=4) data=0x00000000[0m
0x80000e7c: 00 04 a6 03 lw	a2, 0(s1)
[1;34m[src/memory/paddr.c:97 mtrace_log] R: 0x80000e80 (len=4) data=0x00060863[0m
0x80000e80: 00 06 08 63 beqz	a2, 0x10
[1;34m[src/memory/paddr.c:97 mtrace_log] R: 0x80000e90 (len=4) data=0x00140413[0m
0x80000e90: 00 14 04 13 addi	s0, s0, 1
[1;34m[src/memory/paddr.c:97 mtrace_log] R: 0x80000e94 (len=4) data=0x00448493[0m
0x80000e94: 00 44 84 93 addi	s1, s1, 4
[1;34m[src/memory/paddr.c:97 mtrace_log] R: 0x80000e98 (len=4) data=0xff2412e3[0m
0x80000e98: ff 24 12 e3 bne	s0, s2, -0x1c
[1;34m[src/memory/paddr.c:97 mtrace_log] R: 0x80000e7c (len=4) data=0x0004a603[0m
[1;34m[src/memory/paddr.c:97 mtrace_log] R: 0x800030d4 (len=4) data=0x00000000[0m
0x80000e7c: 00 04 a6 03 lw	a2, 0(s1)
[1;34m[src/memory/paddr.c:97 mtrace_log] R: 0x80000e80 (len=4) data=0x00060863[0m
0x80000e80: 00 06 08 63 beqz	a2, 0x10
[1;34m[src/memory/paddr.c:97 mtrace_log] R: 0x80000e90 (len=4) data=0x00140413[0m
0x80000e90: 00 14 04 13 addi	s0, s0, 1
[1;34m[src/memory/paddr.c:97 mtrace_log] R: 0x80000e94 (len=4) data=0x00448493[0m
0x80000e94: 00 44 84 93 addi	s1, s1, 4
[1;34m[src/memory/paddr.c:97 mtrace_log] R: 0x80000e98 (len=4) data=0xff2412e3[0m
0x80000e98: ff 24 12 e3 bne	s0, s2, -0x1c
[1;34m[src/memory/paddr.c:97 mtrace_log] R: 0x80000e7c (len=4) data=0x0004a603[0m
[1;34m[src/memory/paddr.c:97 mtrace_log] R: 0x800030d8 (len=4) data=0x00000000[0m
0x80000e7c: 00 04 a6 03 lw	a2, 0(s1)
[1;34m[src/memory/paddr.c:97 mtrace_log] R: 0x80000e80 (len=4) data=0x00060863[0m
0x80000e80: 00 06 08 63 beqz	a2, 0x10
[1;34m[src/memory/paddr.c:97 mtrace_log] R: 0x80000e90 (len=4) data=0x00140413[0m
0x80000e90: 00 14 04 13 addi	s0, s0, 1
[1;34m[src/memory/paddr.c:97 mtrace_log] R: 0x80000e94 (len=4) data=0x00448493[0m
0x80000e94: 00 44 84 93 addi	s1, s1, 4
[1;34m[src/memory/paddr.c:97 mtrace_log] R: 0x80000e98 (len=4) data=0xff2412e3[0m
0x80000e98: ff 24 12 e3 bne	s0, s2, -0x1c
[1;34m[src/memory/paddr.c:97 mtrace_log] R: 0x80000e7c (len=4) data=0x0004a603[0m
[1;34m[src/memory/paddr.c:97 mtrace_log] R: 0x800030dc (len=4) data=0x00000000[0m
0x80000e7c: 00 04 a6 03 lw	a2, 0(s1)
[1;34m[src/memory/paddr.c:97 mtrace_log] R: 0x80000e80 (len=4) data=0x00060863[0m
0x80000e80: 00 06 08 63 beqz	a2, 0x10
[1;34m[src/memory/paddr.c:97 mtrace_log] R: 0x80000e90 (len=4) data=0x00140413[0m
0x80000e90: 00 14 04 13 addi	s0, s0, 1
[1;34m[src/memory/paddr.c:97 mtrace_log] R: 0x80000e94 (len=4) data=0x00448493[0m
0x80000e94: 00 44 84 93 addi	s1, s1, 4
[1;34m[src/memory/paddr.c:97 mtrace_log] R: 0x80000e98 (len=4) data=0xff2412e3[0m
0x80000e98: ff 24 12 e3 bne	s0, s2, -0x1c
[1;34m[src/memory/paddr.c:97 mtrace_log] R: 0x80000e7c (len=4) data=0x0004a603[0m
[1;34m[src/memory/paddr.c:97 mtrace_log] R: 0x800030e0 (len=4) data=0x00000000[0m
0x80000e7c: 00 04 a6 03 lw	a2, 0(s1)
[1;34m[src/memory/paddr.c:97 mtrace_log] R: 0x80000e80 (len=4) data=0x00060863[0m
0x80000e80: 00 06 08 63 beqz	a2, 0x10
[1;34m[src/memory/paddr.c:97 mtrace_log] R: 0x80000e90 (len=4) data=0x00140413[0m
0x80000e90: 00 14 04 13 addi	s0, s0, 1
[1;34m[src/memory/paddr.c:97 mtrace_log] R: 0x80000e94 (len=4) data=0x00448493[0m
0x80000e94: 00 44 84 93 addi	s1, s1, 4
[1;34m[src/memory/paddr.c:97 mtrace_log] R: 0x80000e98 (len=4) data=0xff2412e3[0m
0x80000e98: ff 24 12 e3 bne	s0, s2, -0x1c
[1;34m[src/memory/paddr.c:97 mtrace_log] R: 0x80000e7c (len=4) data=0x0004a603[0m
[1;34m[src/memory/paddr.c:97 mtrace_log] R: 0x800030e4 (len=4) data=0x00000000[0m
0x80000e7c: 00 04 a6 03 lw	a2, 0(s1)
[1;34m[src/memory/paddr.c:97 mtrace_log] R: 0x80000e80 (len=4) data=0x00060863[0m
0x80000e80: 00 06 08 63 beqz	a2, 0x10
[1;34m[src/memory/paddr.c:97 mtrace_log] R: 0x80000e90 (len=4) data=0x00140413[0m
0x80000e90: 00 14 04 13 addi	s0, s0, 1
[1;34m[src/memory/paddr.c:97 mtrace_log] R: 0x80000e94 (len=4) data=0x00448493[0m
0x80000e94: 00 44 84 93 addi	s1, s1, 4
[1;34m[src/memory/paddr.c:97 mtrace_log] R: 0x80000e98 (len=4) data=0xff2412e3[0m
0x80000e98: ff 24 12 e3 bne	s0, s2, -0x1c
[1;34m[src/memory/paddr.c:97 mtrace_log] R: 0x80000e7c (len=4) data=0x0004a603[0m
[1;34m[src/memory/paddr.c:97 mtrace_log] R: 0x800030e8 (len=4) data=0x00000000[0m
0x80000e7c: 00 04 a6 03 lw	a2, 0(s1)
[1;34m[src/memory/paddr.c:97 mtrace_log] R: 0x80000e80 (len=4) data=0x00060863[0m
0x80000e80: 00 06 08 63 beqz	a2, 0x10
[1;34m[src/memory/paddr.c:97 mtrace_log] R: 0x80000e90 (len=4) data=0x00140413[0m
0x80000e90: 00 14 04 13 addi	s0, s0, 1
[1;34m[src/memory/paddr.c:97 mtrace_log] R: 0x80000e94 (len=4) data=0x00448493[0m
0x80000e94: 00 44 84 93 addi	s1, s1, 4
[1;34m[src/memory/paddr.c:97 mtrace_log] R: 0x80000e98 (len=4) data=0xff2412e3[0m
0x80000e98: ff 24 12 e3 bne	s0, s2, -0x1c
[1;34m[src/memory/paddr.c:97 mtrace_log] R: 0x80000e7c (len=4) data=0x0004a603[0m
[1;34m[src/memory/paddr.c:97 mtrace_log] R: 0x800030ec (len=4) data=0x00000000[0m
0x80000e7c: 00 04 a6 03 lw	a2, 0(s1)
[1;34m[src/memory/paddr.c:97 mtrace_log] R: 0x80000e80 (len=4) data=0x00060863[0m
0x80000e80: 00 06 08 63 beqz	a2, 0x10
[1;34m[src/memory/paddr.c:97 mtrace_log] R: 0x80000e90 (len=4) data=0x00140413[0m
0x80000e90: 00 14 04 13 addi	s0, s0, 1
[1;34m[src/memory/paddr.c:97 mtrace_log] R: 0x80000e94 (len=4) data=0x00448493[0m
0x80000e94: 00 44 84 93 addi	s1, s1, 4
[1;34m[src/memory/paddr.c:97 mtrace_log] R: 0x80000e98 (len=4) data=0xff2412e3[0m
0x80000e98: ff 24 12 e3 bne	s0, s2, -0x1c
[1;34m[src/memory/paddr.c:97 mtrace_log] R: 0x80000e7c (len=4) data=0x0004a603[0m
[1;34m[src/memory/paddr.c:97 mtrace_log] R: 0x800030f0 (len=4) data=0x00000000[0m
0x80000e7c: 00 04 a6 03 lw	a2, 0(s1)
[1;34m[src/memory/paddr.c:97 mtrace_log] R: 0x80000e80 (len=4) data=0x00060863[0m
0x80000e80: 00 06 08 63 beqz	a2, 0x10
[1;34m[src/memory/paddr.c:97 mtrace_log] R: 0x80000e90 (len=4) data=0x00140413[0m
0x80000e90: 00 14 04 13 addi	s0, s0, 1
[1;34m[src/memory/paddr.c:97 mtrace_log] R: 0x80000e94 (len=4) data=0x00448493[0m
0x80000e94: 00 44 84 93 addi	s1, s1, 4
[1;34m[src/memory/paddr.c:97 mtrace_log] R: 0x80000e98 (len=4) data=0xff2412e3[0m
0x80000e98: ff 24 12 e3 bne	s0, s2, -0x1c
[1;34m[src/memory/paddr.c:97 mtrace_log] R: 0x80000e7c (len=4) data=0x0004a603[0m
[1;34m[src/memory/paddr.c:97 mtrace_log] R: 0x800030f4 (len=4) data=0x00000000[0m
0x80000e7c: 00 04 a6 03 lw	a2, 0(s1)
[1;34m[src/memory/paddr.c:97 mtrace_log] R: 0x80000e80 (len=4) data=0x00060863[0m
0x80000e80: 00 06 08 63 beqz	a2, 0x10
[1;34m[src/memory/paddr.c:97 mtrace_log] R: 0x80000e90 (len=4) data=0x00140413[0m
0x80000e90: 00 14 04 13 addi	s0, s0, 1
[1;34m[src/memory/paddr.c:97 mtrace_log] R: 0x80000e94 (len=4) data=0x00448493[0m
0x80000e94: 00 44 84 93 addi	s1, s1, 4
[1;34m[src/memory/paddr.c:97 mtrace_log] R: 0x80000e98 (len=4) data=0xff2412e3[0m
0x80000e98: ff 24 12 e3 bne	s0, s2, -0x1c
[1;34m[src/memory/paddr.c:97 mtrace_log] R: 0x80000e9c (len=4) data=0x01812403[0m
[1;34m[src/memory/paddr.c:97 mtrace_log] R: 0x8009dfe8 (len=4) data=0x00000000[0m
0x80000e9c: 01 81 24 03 lw	s0, 0x18(sp)
[1;34m[src/memory/paddr.c:97 mtrace_log] R: 0x80000ea0 (len=4) data=0x01412483[0m
[1;34m[src/memory/paddr.c:97 mtrace_log] R: 0x8009dfe4 (len=4) data=0x00000000[0m
0x80000ea0: 01 41 24 83 lw	s1, 0x14(sp)
[1;34m[src/memory/paddr.c:97 mtrace_log] R: 0x80000ea4 (len=4) data=0x01012903[0m
[1;34m[src/memory/paddr.c:97 mtrace_log] R: 0x8009dfe0 (len=4) data=0x00000000[0m
0x80000ea4: 01 01 29 03 lw	s2, 0x10(sp)
[1;34m[src/memory/paddr.c:97 mtrace_log] R: 0x80000ea8 (len=4) data=0x00c12983[0m
[1;34m[src/memory/paddr.c:97 mtrace_log] R: 0x8009dfdc (len=4) data=0x00000000[0m
0x80000ea8: 00 c1 29 83 lw	s3, 0xc(sp)
[1;34m[src/memory/paddr.c:97 mtrace_log] R: 0x80000eac (len=4) data=0x01c12083[0m
[1;34m[src/memory/paddr.c:97 mtrace_log] R: 0x8009dfec (len=4) data=0x80001020[0m
0x80000eac: 01 c1 20 83 lw	ra, 0x1c(sp)
[1;34m[src/memory/paddr.c:97 mtrace_log] R: 0x80000eb0 (len=4) data=0x00000513[0m
0x80000eb0: 00 00 05 13 mv	a0, zero
[1;34m[src/memory/paddr.c:97 mtrace_log] R: 0x80000eb4 (len=4) data=0x02010113[0m
0x80000eb4: 02 01 01 13 addi	sp, sp, 0x20
[1;34m[src/memory/paddr.c:97 mtrace_log] R: 0x80000eb8 (len=4) data=0x00008067[0m
0x80000eb8: 00 00 80 67 ret
[1;34m[src/memory/paddr.c:97 mtrace_log] R: 0x80001020 (len=4) data=0x00050513[0m
0x80001020: 00 05 05 13 mv	a0, a0
[1;34m[src/memory/paddr.c:97 mtrace_log] R: 0x80001024 (len=4) data=0x00100073[0m
0x80001024: 00 10 00 73 ebreak
[1;34m[src/cpu/cpu-exec.c:162 cpu_exec] nemu: [1;32mHIT GOOD TRAP[0m at pc = 0x80001024[0m
[1;34m[src/cpu/cpu-exec.c:130 statistic] host time spent = 59382 us[0m
[1;34m[src/cpu/cpu-exec.c:131 statistic] total guest instructions = 5961[0m
[1;34m[src/cpu/cpu-exec.c:132 statistic] simulation frequency = 100383 inst/s[0m
